ARM GAS  C:\DOCUME~1\z_80\LOCALS~1\Temp\ccydNBJc.s 			page 1


   1              		.syntax unified
   2              		.cpu cortex-m3
   3              		.fpu softvfp
   4              		.eabi_attribute 20, 1
   5              		.eabi_attribute 21, 1
   6              		.eabi_attribute 23, 3
   7              		.eabi_attribute 24, 1
   8              		.eabi_attribute 25, 1
   9              		.eabi_attribute 26, 1
  10              		.eabi_attribute 30, 2
  11              		.eabi_attribute 18, 4
  12              		.thumb
  13              		.file	"chcore_v7m.c"
  20 0000 1D020000 		.text
  20      02006601 
  20      00000201 
  20      FB0E0D00 
  20      01010101 
  21              	.Ltext0:
  22              		.cfi_sections	.debug_frame
  23              		.section	.text._port_switch_from_isr,"ax",%progbits
  24              		.align	2
  25              		.p2align 4,,15
  26              		.global	_port_switch_from_isr
  27              		.thumb
  28              		.thumb_func
  29              		.type	_port_switch_from_isr, %function
  30              	_port_switch_from_isr:
  31              	.LFB11:
  32              		.file 1 "../chibios_2.6.3/os/ports/GCC/ARMCMx/chcore_v7m.c"
  33              		.loc 1 207 0
  34              		.cfi_startproc
  35              		@ Naked Function: prologue and epilogue provided by programmer.
  36              		@ args = 0, pretend = 0, frame = 0
  37              		@ frame_needed = 0, uses_anonymous_args = 0
  38              		.loc 1 210 0
  39 0000 FFF7FEFF 		bl	chSchDoReschedule
  40              		.loc 1 212 0
  41              	@ 212 "../chibios_2.6.3/os/ports/GCC/ARMCMx/chcore_v7m.c" 1
  42              		_port_exit_from_isr:
  43              	@ 0 "" 2
  44              		.loc 1 214 0
  45              	@ 214 "../chibios_2.6.3/os/ports/GCC/ARMCMx/chcore_v7m.c" 1
  46 0004 00DF     		svc     #0
  47              	@ 0 "" 2
  48              		.loc 1 221 0
  49              		.thumb
  50              		.cfi_endproc
  51              	.LFE11:
  52              		.size	_port_switch_from_isr, .-_port_switch_from_isr
  53 0006 00BFAFF3 		.section	.text.SVCallVector,"ax",%progbits
ARM GAS  C:\DOCUME~1\z_80\LOCALS~1\Temp\ccydNBJc.s 			page 2


  53      0080AFF3 
  53      0080
  54              		.align	2
  55              		.p2align 4,,15
  56              		.global	SVCallVector
  57              		.thumb
  58              		.thumb_func
  59              		.type	SVCallVector, %function
  60              	SVCallVector:
  61              	.LFB8:
  62              		.loc 1 65 0
  63              		.cfi_startproc
  64              		@ args = 0, pretend = 0, frame = 0
  65              		@ frame_needed = 0, uses_anonymous_args = 0
  66              		@ link register save eliminated.
  67              		.loc 1 69 0
  68              	@ 69 "../chibios_2.6.3/os/ports/GCC/ARMCMx/chcore_v7m.c" 1
  69 0000 EFF30983 		mrs     r3, PSP
  70              	@ 0 "" 2
  71              	.LVL0:
  72              		.loc 1 73 0
  73              		.thumb
  74 0004 2033     		adds	r3, r3, #32
  75              	.LVL1:
  76              		.loc 1 80 0
  77              	@ 80 "../chibios_2.6.3/os/ports/GCC/ARMCMx/chcore_v7m.c" 1
  78 0006 83F30988 		msr     PSP, r3
  79              	@ 0 "" 2
  80              		.thumb
  81              	.LBB2:
  82              		.loc 1 81 0
  83 000a 0023     		movs	r3, #0
  84              	.LVL2:
  85              	@ 81 "../chibios_2.6.3/os/ports/GCC/ARMCMx/chcore_v7m.c" 1
  86 000c 83F31188 		msr     BASEPRI, r3
  87              	@ 0 "" 2
  88              	.LVL3:
  89              		.thumb
  90              	.LBE2:
  91              		.loc 1 82 0
  92 0010 7047     		bx	lr
  93              		.cfi_endproc
  94              	.LFE8:
  95              		.size	SVCallVector, .-SVCallVector
  96 0012 00BFAFF3 		.section	.text._port_init,"ax",%progbits
  96      0080AFF3 
  96      0080AFF3 
  96      0080
  97              		.align	2
  98              		.p2align 4,,15
  99              		.global	_port_init
 100              		.thumb
 101              		.thumb_func
 102              		.type	_port_init, %function
 103              	_port_init:
 104              	.LFB9:
 105              		.loc 1 118 0
ARM GAS  C:\DOCUME~1\z_80\LOCALS~1\Temp\ccydNBJc.s 			page 3


 106              		.cfi_startproc
 107              		@ args = 0, pretend = 0, frame = 0
 108              		@ frame_needed = 0, uses_anonymous_args = 0
 109              		.loc 1 121 0
 110 0000 094B     		ldr	r3, .L4
 111 0002 0022     		movs	r2, #0
 112              		.loc 1 118 0
 113 0004 10B5     		push	{r4, lr}
 114              	.LCFI0:
 115              		.cfi_def_cfa_offset 8
 116              		.loc 1 121 0
 117 0006 9A60     		str	r2, [r3, #8]
 118              		.loc 1 122 0
 119 0008 084A     		ldr	r2, .L4+4
 120              		.loc 1 125 0
 121 000a 0720     		movs	r0, #7
 122 000c 1021     		movs	r1, #16
 123              		.loc 1 122 0
 124 000e DA60     		str	r2, [r3, #12]
 125              		.loc 1 125 0
 126              		.cfi_offset 14, -4
 127              		.cfi_offset 4, -8
 128 0010 FFF7FEFF 		bl	nvicSetSystemHandlerPriority
 129              		.loc 1 127 0
 130 0014 0A20     		movs	r0, #10
 131 0016 2021     		movs	r1, #32
 132 0018 FFF7FEFF 		bl	nvicSetSystemHandlerPriority
 133              		.loc 1 129 0
 134 001c 0B20     		movs	r0, #11
 135 001e 8021     		movs	r1, #128
 136              		.loc 1 131 0
 137 0020 BDE81040 		pop	{r4, lr}
 138              		.loc 1 129 0
 139 0024 FFF7FEBF 		b	nvicSetSystemHandlerPriority
 140              	.L5:
 141              		.align	2
 142              	.L4:
 143 0028 00ED00E0 		.word	-536810240
 144 002c 0003FA05 		.word	100270848
 145              		.cfi_endproc
 146              	.LFE9:
 147              		.size	_port_init, .-_port_init
 148              		.section	.text._port_irq_epilogue,"ax",%progbits
 149              		.align	2
 150              		.p2align 4,,15
 151              		.global	_port_irq_epilogue
 152              		.thumb
 153              		.thumb_func
 154              		.type	_port_irq_epilogue, %function
 155              	_port_irq_epilogue:
 156              	.LFB10:
 157              		.loc 1 148 0
 158              		.cfi_startproc
 159              		@ args = 0, pretend = 0, frame = 0
 160              		@ frame_needed = 0, uses_anonymous_args = 0
 161              		@ link register save eliminated.
 162              	.LBB3:
ARM GAS  C:\DOCUME~1\z_80\LOCALS~1\Temp\ccydNBJc.s 			page 4


 163              		.loc 1 150 0
 164 0000 2023     		movs	r3, #32
 165              	.LVL4:
 166              	@ 150 "../chibios_2.6.3/os/ports/GCC/ARMCMx/chcore_v7m.c" 1
 167 0002 83F31188 		msr     BASEPRI, r3
 168              	@ 0 "" 2
 169              	.LVL5:
 170              		.thumb
 171              	.LBE3:
 172              		.loc 1 151 0
 173 0006 1548     		ldr	r0, .L14
 174 0008 4368     		ldr	r3, [r0, #4]
 175              	.LVL6:
 176 000a 13F40063 		ands	r3, r3, #2048
 177 000e 16D0     		beq	.L7
 178              	.LBB4:
 179              		.loc 1 155 0
 180              	@ 155 "../chibios_2.6.3/os/ports/GCC/ARMCMx/chcore_v7m.c" 1
 181 0010 EFF30983 		mrs     r3, PSP
 182              	@ 0 "" 2
 183              	.LVL7:
 184              		.loc 1 159 0
 185              		.thumb
 186 0014 203B     		subs	r3, r3, #32
 187              	.LVL8:
 188              		.loc 1 160 0
 189              	@ 160 "../chibios_2.6.3/os/ports/GCC/ARMCMx/chcore_v7m.c" 1
 190 0016 83F30988 		msr     PSP, r3
 191              	@ 0 "" 2
 192              		.loc 1 165 0
 193              		.thumb
 194 001a 1149     		ldr	r1, .L14+4
 195              		.loc 1 161 0
 196 001c 4FF08070 		mov	r0, #16777216
 197              		.loc 1 165 0
 198 0020 8A69     		ldr	r2, [r1, #24]
 199              		.loc 1 161 0
 200 0022 D861     		str	r0, [r3, #28]
 201              		.loc 1 165 0
 202 0024 D07F     		ldrb	r0, [r2, #31]	@ zero_extendqisi2
 203 0026 68B1     		cbz	r0, .L8
 204              		.loc 1 165 0 is_stmt 0 discriminator 1
 205 0028 0868     		ldr	r0, [r1, #0]
 206 002a 9268     		ldr	r2, [r2, #8]
 207 002c 8168     		ldr	r1, [r0, #8]
 208 002e 9142     		cmp	r1, r2
 209 0030 94BF     		ite	ls
 210 0032 0022     		movls	r2, #0
 211 0034 0122     		movhi	r2, #1
 212 0036 72B1     		cbz	r2, .L10
 213              	.L13:
 214              		.loc 1 167 0 is_stmt 1
 215 0038 0A4A     		ldr	r2, .L14+8
 216 003a 9A61     		str	r2, [r3, #24]
 217 003c 7047     		bx	lr
 218              	.LVL9:
 219              	.L7:
ARM GAS  C:\DOCUME~1\z_80\LOCALS~1\Temp\ccydNBJc.s 			page 5


 220              	.LBE4:
 221              	.LBB5:
 222              		.loc 1 197 0
 223              	@ 197 "../chibios_2.6.3/os/ports/GCC/ARMCMx/chcore_v7m.c" 1
 224 003e 83F31188 		msr     BASEPRI, r3
 225              	@ 0 "" 2
 226              	.LVL10:
 227              		.thumb
 228 0042 7047     		bx	lr
 229              	.LVL11:
 230              	.L8:
 231              	.LBE5:
 232              	.LBB6:
 233              		.loc 1 165 0 discriminator 2
 234 0044 0868     		ldr	r0, [r1, #0]
 235 0046 9268     		ldr	r2, [r2, #8]
 236 0048 8168     		ldr	r1, [r0, #8]
 237 004a 9142     		cmp	r1, r2
 238 004c 34BF     		ite	cc
 239 004e 0022     		movcc	r2, #0
 240 0050 0122     		movcs	r2, #1
 241 0052 002A     		cmp	r2, #0
 242 0054 F0D1     		bne	.L13
 243              	.L10:
 244              		.loc 1 176 0
 245 0056 0449     		ldr	r1, .L14+12
 246 0058 9961     		str	r1, [r3, #24]
 247 005a 7047     		bx	lr
 248              	.L15:
 249              		.align	2
 250              	.L14:
 251 005c 00ED00E0 		.word	-536810240
 252 0060 00000000 		.word	rlist
 253 0064 00000000 		.word	_port_switch_from_isr
 254 0068 04000000 		.word	_port_exit_from_isr
 255              	.LBE6:
 256              		.cfi_endproc
 257              	.LFE10:
 258              		.size	_port_irq_epilogue, .-_port_irq_epilogue
 259 006c AFF30080 		.section	.text.SysTickVector,"ax",%progbits
 260              		.align	2
 261              		.p2align 4,,15
 262              		.global	SysTickVector
 263              		.thumb
 264              		.thumb_func
 265              		.type	SysTickVector, %function
 266              	SysTickVector:
 267              	.LFB7:
 268              		.loc 1 47 0
 269              		.cfi_startproc
 270              		@ args = 0, pretend = 0, frame = 0
 271              		@ frame_needed = 0, uses_anonymous_args = 0
 272 0000 10B5     		push	{r4, lr}
 273              	.LCFI1:
 274              		.cfi_def_cfa_offset 8
 275              	.LBB7:
 276              		.loc 1 51 0
ARM GAS  C:\DOCUME~1\z_80\LOCALS~1\Temp\ccydNBJc.s 			page 6


 277 0002 2023     		movs	r3, #32
 278              	.LVL12:
 279              	@ 51 "../chibios_2.6.3/os/ports/GCC/ARMCMx/chcore_v7m.c" 1
 280 0004 83F31188 		msr     BASEPRI, r3
 281              	@ 0 "" 2
 282              	.LVL13:
 283              		.thumb
 284              	.LBE7:
 285              		.loc 1 52 0
 286              		.cfi_offset 14, -4
 287              		.cfi_offset 4, -8
 288 0008 FFF7FEFF 		bl	chSysTimerHandlerI
 289              	.LVL14:
 290              	.LBB8:
 291              		.loc 1 53 0
 292 000c 0023     		movs	r3, #0
 293              	.LVL15:
 294              	@ 53 "../chibios_2.6.3/os/ports/GCC/ARMCMx/chcore_v7m.c" 1
 295 000e 83F31188 		msr     BASEPRI, r3
 296              	@ 0 "" 2
 297              	.LVL16:
 298              		.thumb
 299              	.LBE8:
 300              		.loc 1 56 0
 301 0012 BDE81040 		pop	{r4, lr}
 302              		.loc 1 55 0
 303 0016 FFF7FEBF 		b	_port_irq_epilogue
 304              		.cfi_endproc
 305              	.LFE7:
 306              		.size	SysTickVector, .-SysTickVector
 307 001a 00BFAFF3 		.section	.text._port_switch,"ax",%progbits
 307      0080
 308              		.align	2
 309              		.p2align 4,,15
 310              		.global	_port_switch
 311              		.thumb
 312              		.thumb_func
 313              		.type	_port_switch, %function
 314              	_port_switch:
 315              	.LFB12:
 316              		.loc 1 236 0
 317              		.cfi_startproc
 318              		@ Naked Function: prologue and epilogue provided by programmer.
 319              		@ args = 0, pretend = 0, frame = 0
 320              		@ frame_needed = 0, uses_anonymous_args = 0
 321              	.LVL17:
 322              		.loc 1 238 0
 323              	@ 238 "../chibios_2.6.3/os/ports/GCC/ARMCMx/chcore_v7m.c" 1
 324 0000 2DE9F04F 		push    {r4, r5, r6, r7, r8, r9, r10, r11, lr}
 325              	@ 0 "" 2
 326              		.loc 1 244 0
 327              	@ 244 "../chibios_2.6.3/os/ports/GCC/ARMCMx/chcore_v7m.c" 1
 328 0004 C1F80CD0 		str     sp, [r1, #12]                          
 329 0008 D0F80CD0 		ldr     sp, [r0, #12]
 330              	@ 0 "" 2
 331              		.loc 1 250 0
 332              	@ 250 "../chibios_2.6.3/os/ports/GCC/ARMCMx/chcore_v7m.c" 1
ARM GAS  C:\DOCUME~1\z_80\LOCALS~1\Temp\ccydNBJc.s 			page 7


 333 000c BDE8F08F 		pop     {r4, r5, r6, r7, r8, r9, r10, r11, pc}
 334              	@ 0 "" 2
 335              		.loc 1 252 0
 336              		.thumb
 337              		.cfi_endproc
 338              	.LFE12:
 339              		.size	_port_switch, .-_port_switch
 340              		.section	.text._port_thread_start,"ax",%progbits
 341              		.align	2
 342              		.p2align 4,,15
 343              		.global	_port_thread_start
 344              		.thumb
 345              		.thumb_func
 346              		.type	_port_thread_start, %function
 347              	_port_thread_start:
 348              	.LFB13:
 349              		.loc 1 259 0
 350              		.cfi_startproc
 351              		@ args = 0, pretend = 0, frame = 0
 352              		@ frame_needed = 0, uses_anonymous_args = 0
 353              		@ link register save eliminated.
 354              	.LBB9:
 355              		.loc 1 261 0
 356 0000 0023     		movs	r3, #0
 357              	.LVL18:
 358              	@ 261 "../chibios_2.6.3/os/ports/GCC/ARMCMx/chcore_v7m.c" 1
 359 0002 83F31188 		msr     BASEPRI, r3
 360              	@ 0 "" 2
 361              	.LVL19:
 362              		.thumb
 363              	.LBE9:
 364              		.loc 1 262 0
 365              	@ 262 "../chibios_2.6.3/os/ports/GCC/ARMCMx/chcore_v7m.c" 1
 366 0006 2846     		mov     r0, r5                                 
 367 0008 A047     		blx     r4                                     
 368 000a FFF7FEFF 		bl      chThdExit
 369              	@ 0 "" 2
 370              		.loc 1 265 0
 371              		.thumb
 372 000e 7047     		bx	lr
 373              		.cfi_endproc
 374              	.LFE13:
 375              		.size	_port_thread_start, .-_port_thread_start
 376              		.text
 377              	.Letext0: