ARM GAS  C:\DOCUME~1\z_80\LOCALS~1\Temp\ccxELgke.s 			page 1


   1              		.syntax unified
   2              		.cpu cortex-m3
   3              		.fpu softvfp
   4              		.eabi_attribute 20, 1
   5              		.eabi_attribute 21, 1
   6              		.eabi_attribute 23, 3
   7              		.eabi_attribute 24, 1
   8              		.eabi_attribute 25, 1
   9              		.eabi_attribute 26, 1
  10              		.eabi_attribute 30, 2
  11              		.eabi_attribute 18, 4
  12              		.thumb
  13              		.file	"chcond.c"
  20 0000 97020000 		.text
  20      02006901 
  20      00000201 
  20      FB0E0D00 
  20      01010101 
  21              	.Ltext0:
  22              		.cfi_sections	.debug_frame
  23              		.section	.text.chCondInit,"ax",%progbits
  24              		.align	2
  25              		.p2align 4,,15
  26              		.global	chCondInit
  27              		.thumb
  28              		.thumb_func
  29              		.type	chCondInit, %function
  30              	chCondInit:
  31              	.LFB7:
  32              		.file 1 "../chibios_2.6.3/os/kernel/src/chcond.c"
  33              		.loc 1 59 0
  34              		.cfi_startproc
  35              		@ args = 0, pretend = 0, frame = 0
  36              		@ frame_needed = 0, uses_anonymous_args = 0
  37              		@ link register save eliminated.
  38              	.LVL0:
  39              		.loc 1 63 0
  40 0000 4060     		str	r0, [r0, #4]
  41 0002 0060     		str	r0, [r0, #0]
  42              		.loc 1 64 0
  43 0004 7047     		bx	lr
  44              		.cfi_endproc
  45              	.LFE7:
  46              		.size	chCondInit, .-chCondInit
  47 0006 00BFAFF3 		.section	.text.chCondSignal,"ax",%progbits
  47      0080AFF3 
  47      0080
  48              		.align	2
  49              		.p2align 4,,15
  50              		.global	chCondSignal
  51              		.thumb
ARM GAS  C:\DOCUME~1\z_80\LOCALS~1\Temp\ccxELgke.s 			page 2


  52              		.thumb_func
  53              		.type	chCondSignal, %function
  54              	chCondSignal:
  55              	.LFB8:
  56              		.loc 1 73 0
  57              		.cfi_startproc
  58              		@ args = 0, pretend = 0, frame = 0
  59              		@ frame_needed = 0, uses_anonymous_args = 0
  60              	.LVL1:
  61 0000 08B5     		push	{r3, lr}
  62              	.LCFI0:
  63              		.cfi_def_cfa_offset 8
  64              		.loc 1 73 0
  65 0002 0246     		mov	r2, r0
  66              	.LBB14:
  67              		.loc 1 77 0
  68 0004 2023     		movs	r3, #32
  69              		.cfi_offset 14, -4
  70              		.cfi_offset 3, -8
  71              	.LVL2:
  72              	@ 77 "../chibios_2.6.3/os/kernel/src/chcond.c" 1
  73 0006 83F31188 		msr     BASEPRI, r3
  74              	@ 0 "" 2
  75              	.LVL3:
  76              		.thumb
  77              	.LBE14:
  78              		.loc 1 78 0
  79 000a 0068     		ldr	r0, [r0, #0]
  80              	.LVL4:
  81 000c 9042     		cmp	r0, r2
  82 000e 05D0     		beq	.L3
  83              	.LVL5:
  84              	.LBB15:
  85              	.LBB16:
  86              		.file 2 "../chibios_2.6.3/os/kernel/include/chinline.h"
  87              		.loc 2 62 0
  88 0010 0368     		ldr	r3, [r0, #0]
  89              	.LVL6:
  90              	.LBE16:
  91              	.LBE15:
  92              		.loc 1 79 0
  93 0012 0021     		movs	r1, #0
  94              	.LBB18:
  95              	.LBB17:
  96              		.loc 2 62 0
  97 0014 1360     		str	r3, [r2, #0]
  98 0016 5A60     		str	r2, [r3, #4]
  99              	.LBE17:
 100              	.LBE18:
 101              		.loc 1 79 0
 102 0018 FFF7FEFF 		bl	chSchWakeupS
 103              	.LVL7:
 104              	.L3:
 105              	.LBB19:
 106              		.loc 1 80 0
 107 001c 0023     		movs	r3, #0
 108              	.LVL8:
ARM GAS  C:\DOCUME~1\z_80\LOCALS~1\Temp\ccxELgke.s 			page 3


 109              	@ 80 "../chibios_2.6.3/os/kernel/src/chcond.c" 1
 110 001e 83F31188 		msr     BASEPRI, r3
 111              	@ 0 "" 2
 112              	.LVL9:
 113              		.thumb
 114              	.LBE19:
 115              		.loc 1 81 0
 116 0022 08BD     		pop	{r3, pc}
 117              		.cfi_endproc
 118              	.LFE8:
 119              		.size	chCondSignal, .-chCondSignal
 120 0024 AFF30080 		.section	.text.chCondSignalI,"ax",%progbits
 120      AFF30080 
 120      AFF30080 
 121              		.align	2
 122              		.p2align 4,,15
 123              		.global	chCondSignalI
 124              		.thumb
 125              		.thumb_func
 126              		.type	chCondSignalI, %function
 127              	chCondSignalI:
 128              	.LFB9:
 129              		.loc 1 94 0
 130              		.cfi_startproc
 131              		@ args = 0, pretend = 0, frame = 0
 132              		@ frame_needed = 0, uses_anonymous_args = 0
 133              	.LVL10:
 134 0000 08B5     		push	{r3, lr}
 135              	.LCFI1:
 136              		.cfi_def_cfa_offset 8
 137              		.loc 1 94 0
 138 0002 0346     		mov	r3, r0
 139              		.cfi_offset 14, -4
 140              		.cfi_offset 3, -8
 141              		.loc 1 99 0
 142 0004 0068     		ldr	r0, [r0, #0]
 143              	.LVL11:
 144 0006 9842     		cmp	r0, r3
 145 0008 06D0     		beq	.L5
 146              	.LVL12:
 147              	.LBB20:
 148              	.LBB21:
 149              		.loc 2 62 0
 150 000a 0268     		ldr	r2, [r0, #0]
 151 000c 1A60     		str	r2, [r3, #0]
 152 000e 5360     		str	r3, [r2, #4]
 153              	.LBE21:
 154              	.LBE20:
 155              		.loc 1 100 0
 156 0010 FFF7FEFF 		bl	chSchReadyI
 157              	.LVL13:
 158 0014 0023     		movs	r3, #0
 159 0016 4362     		str	r3, [r0, #36]
 160              	.L5:
 161 0018 08BD     		pop	{r3, pc}
 162              		.cfi_endproc
 163              	.LFE9:
ARM GAS  C:\DOCUME~1\z_80\LOCALS~1\Temp\ccxELgke.s 			page 4


 164              		.size	chCondSignalI, .-chCondSignalI
 165 001a 00BFAFF3 		.section	.text.chCondBroadcastI,"ax",%progbits
 165      0080
 166              		.align	2
 167              		.p2align 4,,15
 168              		.global	chCondBroadcastI
 169              		.thumb
 170              		.thumb_func
 171              		.type	chCondBroadcastI, %function
 172              	chCondBroadcastI:
 173              	.LFB11:
 174              		.loc 1 129 0
 175              		.cfi_startproc
 176              		@ args = 0, pretend = 0, frame = 0
 177              		@ frame_needed = 0, uses_anonymous_args = 0
 178              	.LVL14:
 179 0000 38B5     		push	{r3, r4, r5, lr}
 180              	.LCFI2:
 181              		.cfi_def_cfa_offset 16
 182              		.loc 1 129 0
 183 0002 0446     		mov	r4, r0
 184              		.cfi_offset 14, -4
 185              		.cfi_offset 5, -8
 186              		.cfi_offset 4, -12
 187              		.cfi_offset 3, -16
 188              		.loc 1 137 0
 189 0004 0068     		ldr	r0, [r0, #0]
 190              	.LVL15:
 191 0006 A042     		cmp	r0, r4
 192 0008 0AD0     		beq	.L7
 193              		.loc 1 138 0
 194 000a 6FF00105 		mvn	r5, #1
 195              	.L10:
 196              	.LVL16:
 197              	.LBB22:
 198              	.LBB23:
 199              		.loc 2 62 0
 200 000e 0368     		ldr	r3, [r0, #0]
 201 0010 2360     		str	r3, [r4, #0]
 202 0012 5C60     		str	r4, [r3, #4]
 203              	.LBE23:
 204              	.LBE22:
 205              		.loc 1 138 0
 206 0014 FFF7FEFF 		bl	chSchReadyI
 207              	.LVL17:
 208 0018 4562     		str	r5, [r0, #36]
 209              		.loc 1 137 0
 210 001a 2068     		ldr	r0, [r4, #0]
 211 001c A042     		cmp	r0, r4
 212 001e F6D1     		bne	.L10
 213              	.LVL18:
 214              	.L7:
 215 0020 38BD     		pop	{r3, r4, r5, pc}
 216              		.cfi_endproc
 217              	.LFE11:
 218              		.size	chCondBroadcastI, .-chCondBroadcastI
 219 0022 00BFAFF3 		.section	.text.chCondBroadcast,"ax",%progbits
ARM GAS  C:\DOCUME~1\z_80\LOCALS~1\Temp\ccxELgke.s 			page 5


 219      0080AFF3 
 219      0080AFF3 
 219      0080
 220              		.align	2
 221              		.p2align 4,,15
 222              		.global	chCondBroadcast
 223              		.thumb
 224              		.thumb_func
 225              		.type	chCondBroadcast, %function
 226              	chCondBroadcast:
 227              	.LFB10:
 228              		.loc 1 110 0
 229              		.cfi_startproc
 230              		@ args = 0, pretend = 0, frame = 0
 231              		@ frame_needed = 0, uses_anonymous_args = 0
 232              	.LVL19:
 233 0000 08B5     		push	{r3, lr}
 234              	.LCFI3:
 235              		.cfi_def_cfa_offset 8
 236              	.LBB24:
 237              		.loc 1 112 0
 238 0002 2023     		movs	r3, #32
 239              		.cfi_offset 14, -4
 240              		.cfi_offset 3, -8
 241              	.LVL20:
 242              	@ 112 "../chibios_2.6.3/os/kernel/src/chcond.c" 1
 243 0004 83F31188 		msr     BASEPRI, r3
 244              	@ 0 "" 2
 245              	.LVL21:
 246              		.thumb
 247              	.LBE24:
 248              		.loc 1 113 0
 249 0008 FFF7FEFF 		bl	chCondBroadcastI
 250              	.LVL22:
 251              		.loc 1 114 0
 252 000c FFF7FEFF 		bl	chSchRescheduleS
 253              	.LBB25:
 254              		.loc 1 115 0
 255 0010 0023     		movs	r3, #0
 256              	.LVL23:
 257              	@ 115 "../chibios_2.6.3/os/kernel/src/chcond.c" 1
 258 0012 83F31188 		msr     BASEPRI, r3
 259              	@ 0 "" 2
 260              	.LVL24:
 261              		.thumb
 262              	.LBE25:
 263              		.loc 1 116 0
 264 0016 08BD     		pop	{r3, pc}
 265              		.cfi_endproc
 266              	.LFE10:
 267              		.size	chCondBroadcast, .-chCondBroadcast
 268 0018 AFF30080 		.section	.text.chCondWaitS,"ax",%progbits
 268      AFF30080 
 269              		.align	2
 270              		.p2align 4,,15
 271              		.global	chCondWaitS
 272              		.thumb
ARM GAS  C:\DOCUME~1\z_80\LOCALS~1\Temp\ccxELgke.s 			page 6


 273              		.thumb_func
 274              		.type	chCondWaitS, %function
 275              	chCondWaitS:
 276              	.LFB13:
 277              		.loc 1 184 0
 278              		.cfi_startproc
 279              		@ args = 0, pretend = 0, frame = 0
 280              		@ frame_needed = 0, uses_anonymous_args = 0
 281              	.LVL25:
 282              		.loc 1 185 0
 283 0000 104B     		ldr	r3, .L19
 284              		.loc 1 184 0
 285 0002 70B5     		push	{r4, r5, r6, lr}
 286              	.LCFI4:
 287              		.cfi_def_cfa_offset 16
 288              		.loc 1 184 0
 289 0004 0546     		mov	r5, r0
 290              		.cfi_offset 14, -4
 291              		.cfi_offset 6, -8
 292              		.cfi_offset 5, -12
 293              		.cfi_offset 4, -16
 294              		.loc 1 185 0
 295 0006 9C69     		ldr	r4, [r3, #24]
 296              	.LVL26:
 297              		.loc 1 195 0
 298 0008 FFF7FEFF 		bl	chMtxUnlockS
 299              	.LVL27:
 300              		.loc 1 196 0
 301 000c 6562     		str	r5, [r4, #36]
 302              		.loc 1 195 0
 303 000e 0646     		mov	r6, r0
 304              	.LVL28:
 305              	.LBB26:
 306              	.LBB27:
 307              		.loc 2 43 0
 308 0010 2B46     		mov	r3, r5
 309              	.LVL29:
 310 0012 2A46     		mov	r2, r5
 311 0014 03E0     		b	.L15
 312              	.LVL30:
 313              	.L18:
 314              		.loc 2 46 0
 315 0016 9068     		ldr	r0, [r2, #8]
 316 0018 A168     		ldr	r1, [r4, #8]
 317 001a 8842     		cmp	r0, r1
 318 001c 10D3     		bcc	.L17
 319              	.L15:
 320              		.loc 2 45 0
 321 001e 1268     		ldr	r2, [r2, #0]
 322              	.LVL31:
 323              		.loc 2 46 0
 324 0020 9542     		cmp	r5, r2
 325 0022 F8D1     		bne	.L18
 326              	.L14:
 327              		.loc 2 48 0
 328 0024 5A68     		ldr	r2, [r3, #4]
 329              	.LVL32:
ARM GAS  C:\DOCUME~1\z_80\LOCALS~1\Temp\ccxELgke.s 			page 7


 330              		.loc 2 47 0
 331 0026 2360     		str	r3, [r4, #0]
 332              		.loc 2 48 0
 333 0028 6260     		str	r2, [r4, #4]
 334              		.loc 2 49 0
 335 002a 1460     		str	r4, [r2, #0]
 336 002c 5C60     		str	r4, [r3, #4]
 337              	.LBE27:
 338              	.LBE26:
 339              		.loc 1 198 0
 340 002e 0520     		movs	r0, #5
 341 0030 FFF7FEFF 		bl	chSchGoSleepS
 342              		.loc 1 199 0
 343 0034 646A     		ldr	r4, [r4, #36]
 344              	.LVL33:
 345              		.loc 1 200 0
 346 0036 3046     		mov	r0, r6
 347 0038 FFF7FEFF 		bl	chMtxLockS
 348              		.loc 1 202 0
 349 003c 2046     		mov	r0, r4
 350 003e 70BD     		pop	{r4, r5, r6, pc}
 351              	.LVL34:
 352              	.L17:
 353              	.LBB29:
 354              	.LBB28:
 355              		.loc 2 45 0
 356 0040 1346     		mov	r3, r2
 357 0042 EFE7     		b	.L14
 358              	.L20:
 359              		.align	2
 360              	.L19:
 361 0044 00000000 		.word	rlist
 362              	.LBE28:
 363              	.LBE29:
 364              		.cfi_endproc
 365              	.LFE13:
 366              		.size	chCondWaitS, .-chCondWaitS
 367 0048 AFF30080 		.section	.text.chCondWait,"ax",%progbits
 367      AFF30080 
 368              		.align	2
 369              		.p2align 4,,15
 370              		.global	chCondWait
 371              		.thumb
 372              		.thumb_func
 373              		.type	chCondWait, %function
 374              	chCondWait:
 375              	.LFB12:
 376              		.loc 1 158 0
 377              		.cfi_startproc
 378              		@ args = 0, pretend = 0, frame = 0
 379              		@ frame_needed = 0, uses_anonymous_args = 0
 380              	.LVL35:
 381 0000 08B5     		push	{r3, lr}
 382              	.LCFI5:
 383              		.cfi_def_cfa_offset 8
 384              	.LBB30:
 385              		.loc 1 161 0
ARM GAS  C:\DOCUME~1\z_80\LOCALS~1\Temp\ccxELgke.s 			page 8


 386 0002 2023     		movs	r3, #32
 387              		.cfi_offset 14, -4
 388              		.cfi_offset 3, -8
 389              	.LVL36:
 390              	@ 161 "../chibios_2.6.3/os/kernel/src/chcond.c" 1
 391 0004 83F31188 		msr     BASEPRI, r3
 392              	@ 0 "" 2
 393              	.LVL37:
 394              		.thumb
 395              	.LBE30:
 396              		.loc 1 162 0
 397 0008 FFF7FEFF 		bl	chCondWaitS
 398              	.LVL38:
 399              	.LBB31:
 400              		.loc 1 163 0
 401 000c 0023     		movs	r3, #0
 402              	.LVL39:
 403              	@ 163 "../chibios_2.6.3/os/kernel/src/chcond.c" 1
 404 000e 83F31188 		msr     BASEPRI, r3
 405              	@ 0 "" 2
 406              	.LVL40:
 407              		.thumb
 408              	.LBE31:
 409              		.loc 1 165 0
 410 0012 08BD     		pop	{r3, pc}
 411              		.cfi_endproc
 412              	.LFE12:
 413              		.size	chCondWait, .-chCondWait
 414 0014 AFF30080 		.section	.text.chCondWaitTimeoutS,"ax",%progbits
 414      AFF30080 
 414      AFF30080 
 415              		.align	2
 416              		.p2align 4,,15
 417              		.global	chCondWaitTimeoutS
 418              		.thumb
 419              		.thumb_func
 420              		.type	chCondWaitTimeoutS, %function
 421              	chCondWaitTimeoutS:
 422              	.LFB15:
 423              		.loc 1 270 0
 424              		.cfi_startproc
 425              		@ args = 0, pretend = 0, frame = 0
 426              		@ frame_needed = 0, uses_anonymous_args = 0
 427              	.LVL41:
 428 0000 F8B5     		push	{r3, r4, r5, r6, r7, lr}
 429              	.LCFI6:
 430              		.cfi_def_cfa_offset 24
 431              		.loc 1 270 0
 432 0002 0446     		mov	r4, r0
 433              		.cfi_offset 14, -4
 434              		.cfi_offset 7, -8
 435              		.cfi_offset 6, -12
 436              		.cfi_offset 5, -16
 437              		.cfi_offset 4, -20
 438              		.cfi_offset 3, -24
 439 0004 0E46     		mov	r6, r1
 440              		.loc 1 280 0
ARM GAS  C:\DOCUME~1\z_80\LOCALS~1\Temp\ccxELgke.s 			page 9


 441 0006 FFF7FEFF 		bl	chMtxUnlockS
 442              	.LVL42:
 443              		.loc 1 281 0
 444 000a 114B     		ldr	r3, .L29
 445              		.loc 1 280 0
 446 000c 0546     		mov	r5, r0
 447              	.LVL43:
 448              		.loc 1 281 0
 449 000e 9869     		ldr	r0, [r3, #24]
 450              	.LVL44:
 451              	.LBB32:
 452              	.LBB34:
 453              		.loc 2 43 0
 454 0010 2746     		mov	r7, r4
 455 0012 2346     		mov	r3, r4
 456              	.LBE34:
 457              	.LBE32:
 458              		.loc 1 281 0
 459 0014 4462     		str	r4, [r0, #36]
 460              	.LVL45:
 461 0016 03E0     		b	.L24
 462              	.LVL46:
 463              	.L28:
 464              	.LBB36:
 465              	.LBB33:
 466              		.loc 2 46 0
 467 0018 9968     		ldr	r1, [r3, #8]
 468 001a 8268     		ldr	r2, [r0, #8]
 469 001c 9142     		cmp	r1, r2
 470 001e 14D3     		bcc	.L27
 471              	.L24:
 472              		.loc 2 45 0
 473 0020 1B68     		ldr	r3, [r3, #0]
 474              	.LVL47:
 475              		.loc 2 46 0
 476 0022 9C42     		cmp	r4, r3
 477 0024 F8D1     		bne	.L28
 478              	.L23:
 479              		.loc 2 48 0
 480 0026 7C68     		ldr	r4, [r7, #4]
 481              	.LVL48:
 482              		.loc 2 47 0
 483 0028 0760     		str	r7, [r0, #0]
 484              		.loc 2 48 0
 485 002a 4460     		str	r4, [r0, #4]
 486              		.loc 2 49 0
 487 002c 2060     		str	r0, [r4, #0]
 488 002e 7860     		str	r0, [r7, #4]
 489              	.LBE33:
 490              	.LBE36:
 491              		.loc 1 283 0
 492 0030 3146     		mov	r1, r6
 493 0032 0520     		movs	r0, #5
 494 0034 FFF7FEFF 		bl	chSchGoSleepTimeoutS
 495              	.LVL49:
 496              		.loc 1 284 0
 497 0038 B0F1FF3F 		cmp	r0, #-1
ARM GAS  C:\DOCUME~1\z_80\LOCALS~1\Temp\ccxELgke.s 			page 10


 498              		.loc 1 283 0
 499 003c 0446     		mov	r4, r0
 500              	.LVL50:
 501              		.loc 1 284 0
 502 003e 02D0     		beq	.L25
 503              		.loc 1 285 0
 504 0040 2846     		mov	r0, r5
 505              	.LVL51:
 506 0042 FFF7FEFF 		bl	chMtxLockS
 507              	.L25:
 508              		.loc 1 287 0
 509 0046 2046     		mov	r0, r4
 510 0048 F8BD     		pop	{r3, r4, r5, r6, r7, pc}
 511              	.LVL52:
 512              	.L27:
 513              	.LBB37:
 514              	.LBB35:
 515              		.loc 2 45 0
 516 004a 1F46     		mov	r7, r3
 517 004c EBE7     		b	.L23
 518              	.L30:
 519 004e 00BF     		.align	2
 520              	.L29:
 521 0050 00000000 		.word	rlist
 522              	.LBE35:
 523              	.LBE37:
 524              		.cfi_endproc
 525              	.LFE15:
 526              		.size	chCondWaitTimeoutS, .-chCondWaitTimeoutS
 527              		.section	.text.chCondWaitTimeout,"ax",%progbits
 528              		.align	2
 529              		.p2align 4,,15
 530              		.global	chCondWaitTimeout
 531              		.thumb
 532              		.thumb_func
 533              		.type	chCondWaitTimeout, %function
 534              	chCondWaitTimeout:
 535              	.LFB14:
 536              		.loc 1 233 0
 537              		.cfi_startproc
 538              		@ args = 0, pretend = 0, frame = 0
 539              		@ frame_needed = 0, uses_anonymous_args = 0
 540              	.LVL53:
 541 0000 08B5     		push	{r3, lr}
 542              	.LCFI7:
 543              		.cfi_def_cfa_offset 8
 544              	.LBB38:
 545              		.loc 1 236 0
 546 0002 2023     		movs	r3, #32
 547              		.cfi_offset 14, -4
 548              		.cfi_offset 3, -8
 549              	.LVL54:
 550              	@ 236 "../chibios_2.6.3/os/kernel/src/chcond.c" 1
 551 0004 83F31188 		msr     BASEPRI, r3
 552              	@ 0 "" 2
 553              	.LVL55:
 554              		.thumb
ARM GAS  C:\DOCUME~1\z_80\LOCALS~1\Temp\ccxELgke.s 			page 11


 555              	.LBE38:
 556              		.loc 1 237 0
 557 0008 FFF7FEFF 		bl	chCondWaitTimeoutS
 558              	.LVL56:
 559              	.LBB39:
 560              		.loc 1 238 0
 561 000c 0023     		movs	r3, #0
 562              	.LVL57:
 563              	@ 238 "../chibios_2.6.3/os/kernel/src/chcond.c" 1
 564 000e 83F31188 		msr     BASEPRI, r3
 565              	@ 0 "" 2
 566              	.LVL58:
 567              		.thumb
 568              	.LBE39:
 569              		.loc 1 240 0
 570 0012 08BD     		pop	{r3, pc}
 571              		.cfi_endproc
 572              	.LFE14:
 573              		.size	chCondWaitTimeout, .-chCondWaitTimeout
 574 0014 AFF30080 		.text
 574      AFF30080 
 574      AFF30080 
 575              	.Letext0: