ARM GAS  C:\DOCUME~1\z_80\LOCALS~1\Temp\ccm1f3Ow.s 			page 1


   1              		.syntax unified
   2              		.cpu cortex-m3
   3              		.fpu softvfp
   4              		.eabi_attribute 20, 1
   5              		.eabi_attribute 21, 1
   6              		.eabi_attribute 23, 3
   7              		.eabi_attribute 24, 1
   8              		.eabi_attribute 25, 1
   9              		.eabi_attribute 26, 1
  10              		.eabi_attribute 30, 2
  11              		.eabi_attribute 18, 4
  12              		.thumb
  13              		.file	"chdynamic.c"
  20 0000 5B020000 		.text
  20      0200D001 
  20      00000201 
  20      FB0E0D00 
  20      01010101 
  21              	.Ltext0:
  22              		.cfi_sections	.debug_frame
  23              		.section	.text.chThdAddRef,"ax",%progbits
  24              		.align	2
  25              		.p2align 4,,15
  26              		.global	chThdAddRef
  27              		.thumb
  28              		.thumb_func
  29              		.type	chThdAddRef, %function
  30              	chThdAddRef:
  31              	.LFB7:
  32              		.file 1 "../chibios_2.6.3/os/kernel/src/chdynamic.c"
  33              		.loc 1 52 0
  34              		.cfi_startproc
  35              		@ args = 0, pretend = 0, frame = 0
  36              		@ frame_needed = 0, uses_anonymous_args = 0
  37              		@ link register save eliminated.
  38              	.LVL0:
  39              	.LBB2:
  40              		.loc 1 54 0
  41 0000 2023     		movs	r3, #32
  42              	.LVL1:
  43              	@ 54 "../chibios_2.6.3/os/kernel/src/chdynamic.c" 1
  44 0002 83F31188 		msr     BASEPRI, r3
  45              	@ 0 "" 2
  46              	.LVL2:
  47              		.thumb
  48              	.LBE2:
  49              		.loc 1 56 0
  50 0006 817F     		ldrb	r1, [r0, #30]	@ zero_extendqisi2
  51              	.LBB3:
  52              		.loc 1 57 0
  53 0008 0023     		movs	r3, #0
ARM GAS  C:\DOCUME~1\z_80\LOCALS~1\Temp\ccm1f3Ow.s 			page 2


  54              	.LVL3:
  55              	.LBE3:
  56              		.loc 1 56 0
  57 000a 0131     		adds	r1, r1, #1
  58 000c 8177     		strb	r1, [r0, #30]
  59              	.LBB4:
  60              		.loc 1 57 0
  61              	@ 57 "../chibios_2.6.3/os/kernel/src/chdynamic.c" 1
  62 000e 83F31188 		msr     BASEPRI, r3
  63              	@ 0 "" 2
  64              	.LVL4:
  65              		.thumb
  66              	.LBE4:
  67              		.loc 1 59 0
  68 0012 7047     		bx	lr
  69              		.cfi_endproc
  70              	.LFE7:
  71              		.size	chThdAddRef, .-chThdAddRef
  72 0014 AFF30080 		.section	.text.chThdRelease,"ax",%progbits
  72      AFF30080 
  72      AFF30080 
  73              		.align	2
  74              		.p2align 4,,15
  75              		.global	chThdRelease
  76              		.thumb
  77              		.thumb_func
  78              		.type	chThdRelease, %function
  79              	chThdRelease:
  80              	.LFB8:
  81              		.loc 1 74 0
  82              		.cfi_startproc
  83              		@ args = 0, pretend = 0, frame = 0
  84              		@ frame_needed = 0, uses_anonymous_args = 0
  85              		@ link register save eliminated.
  86              	.LVL5:
  87              		.loc 1 74 0
  88 0000 0146     		mov	r1, r0
  89              	.LBB5:
  90              		.loc 1 77 0
  91 0002 2023     		movs	r3, #32
  92              	.LVL6:
  93              	@ 77 "../chibios_2.6.3/os/kernel/src/chdynamic.c" 1
  94 0004 83F31188 		msr     BASEPRI, r3
  95              	@ 0 "" 2
  96              	.LVL7:
  97              		.thumb
  98              	.LBE5:
  99              		.loc 1 79 0
 100 0008 827F     		ldrb	r2, [r0, #30]	@ zero_extendqisi2
 101              	.LBB6:
 102              		.loc 1 80 0
 103 000a 0023     		movs	r3, #0
 104              	.LVL8:
 105              	.LBE6:
 106              		.loc 1 79 0
 107 000c 013A     		subs	r2, r2, #1
 108 000e D2B2     		uxtb	r2, r2
ARM GAS  C:\DOCUME~1\z_80\LOCALS~1\Temp\ccm1f3Ow.s 			page 3


 109 0010 8277     		strb	r2, [r0, #30]
 110              	.LVL9:
 111              	.LBB7:
 112              		.loc 1 80 0
 113              	@ 80 "../chibios_2.6.3/os/kernel/src/chdynamic.c" 1
 114 0012 83F31188 		msr     BASEPRI, r3
 115              	@ 0 "" 2
 116              	.LVL10:
 117              		.thumb
 118              	.LBE7:
 119              		.loc 1 85 0
 120 0016 12B9     		cbnz	r2, .L2
 121              		.loc 1 85 0 is_stmt 0 discriminator 1
 122 0018 037F     		ldrb	r3, [r0, #28]	@ zero_extendqisi2
 123              	.LVL11:
 124 001a 0E2B     		cmp	r3, #14
 125 001c 00D0     		beq	.L7
 126              	.LVL12:
 127              	.L2:
 128 001e 7047     		bx	lr
 129              	.LVL13:
 130              	.L7:
 131              		.loc 1 86 0 is_stmt 1
 132 0020 90F81DC0 		ldrb	ip, [r0, #29]	@ zero_extendqisi2
 133 0024 0CF00303 		and	r3, ip, #3
 134 0028 012B     		cmp	r3, #1
 135 002a 09D0     		beq	.L4
 136 002c 022B     		cmp	r3, #2
 137 002e F6D1     		bne	.L2
 138              		.loc 1 98 0
 139 0030 4369     		ldr	r3, [r0, #20]
 140 0032 0269     		ldr	r2, [r0, #16]
 141              	.LVL14:
 142              		.loc 1 100 0
 143 0034 406C     		ldr	r0, [r0, #68]
 144              	.LVL15:
 145              		.loc 1 98 0
 146 0036 1A61     		str	r2, [r3, #16]
 147 0038 0A69     		ldr	r2, [r1, #16]
 148 003a 5361     		str	r3, [r2, #20]
 149              		.loc 1 105 0
 150              		.loc 1 100 0
 151 003c FFF7FEBF 		b	chPoolFree
 152              	.LVL16:
 153              	.L4:
 154              		.loc 1 90 0
 155 0040 4369     		ldr	r3, [r0, #20]
 156 0042 0269     		ldr	r2, [r0, #16]
 157              	.LVL17:
 158 0044 1A61     		str	r2, [r3, #16]
 159 0046 0169     		ldr	r1, [r0, #16]
 160 0048 4B61     		str	r3, [r1, #20]
 161              		.loc 1 105 0
 162              		.loc 1 92 0
 163 004a FFF7FEBF 		b	chHeapFree
 164              		.cfi_endproc
 165              	.LFE8:
ARM GAS  C:\DOCUME~1\z_80\LOCALS~1\Temp\ccm1f3Ow.s 			page 4


 166              		.size	chThdRelease, .-chThdRelease
 167 004e 00BF     		.section	.text.chThdCreateFromHeap,"ax",%progbits
 168              		.align	2
 169              		.p2align 4,,15
 170              		.global	chThdCreateFromHeap
 171              		.thumb
 172              		.thumb_func
 173              		.type	chThdCreateFromHeap, %function
 174              	chThdCreateFromHeap:
 175              	.LFB9:
 176              		.loc 1 131 0
 177              		.cfi_startproc
 178              		@ args = 4, pretend = 0, frame = 0
 179              		@ frame_needed = 0, uses_anonymous_args = 0
 180              	.LVL18:
 181 0000 70B5     		push	{r4, r5, r6, lr}
 182              	.LCFI0:
 183              		.cfi_def_cfa_offset 16
 184 0002 82B0     		sub	sp, sp, #8
 185              	.LCFI1:
 186              		.cfi_def_cfa_offset 24
 187              		.loc 1 131 0
 188 0004 0C46     		mov	r4, r1
 189              		.cfi_offset 14, -4
 190              		.cfi_offset 6, -8
 191              		.cfi_offset 5, -12
 192              		.cfi_offset 4, -16
 193 0006 1546     		mov	r5, r2
 194 0008 1E46     		mov	r6, r3
 195              		.loc 1 135 0
 196 000a FFF7FEFF 		bl	chHeapAlloc
 197              	.LVL19:
 198              		.loc 1 136 0
 199 000e A8B1     		cbz	r0, .L10
 200              	.LBB8:
 201              		.loc 1 148 0
 202 0010 2023     		movs	r3, #32
 203              	.LVL20:
 204              	@ 148 "../chibios_2.6.3/os/kernel/src/chdynamic.c" 1
 205 0012 83F31188 		msr     BASEPRI, r3
 206              	@ 0 "" 2
 207              	.LVL21:
 208              		.thumb
 209              	.LBE8:
 210              		.loc 1 149 0
 211 0016 2146     		mov	r1, r4
 212 0018 069C     		ldr	r4, [sp, #24]
 213              	.LVL22:
 214 001a 3346     		mov	r3, r6
 215              	.LVL23:
 216 001c 2A46     		mov	r2, r5
 217 001e 0094     		str	r4, [sp, #0]
 218 0020 FFF7FEFF 		bl	chThdCreateI
 219              	.LVL24:
 220              		.loc 1 150 0
 221 0024 0123     		movs	r3, #1
 222 0026 4377     		strb	r3, [r0, #29]
ARM GAS  C:\DOCUME~1\z_80\LOCALS~1\Temp\ccm1f3Ow.s 			page 5


 223              		.loc 1 151 0
 224 0028 0021     		movs	r1, #0
 225              		.loc 1 149 0
 226 002a 0446     		mov	r4, r0
 227              	.LVL25:
 228              		.loc 1 151 0
 229 002c FFF7FEFF 		bl	chSchWakeupS
 230              	.LVL26:
 231              	.LBB9:
 232              		.loc 1 152 0
 233 0030 0023     		movs	r3, #0
 234              	.LVL27:
 235              	@ 152 "../chibios_2.6.3/os/kernel/src/chdynamic.c" 1
 236 0032 83F31188 		msr     BASEPRI, r3
 237              	@ 0 "" 2
 238              	.LVL28:
 239              		.thumb
 240              	.L9:
 241              	.LBE9:
 242              		.loc 1 154 0
 243 0036 2046     		mov	r0, r4
 244 0038 02B0     		add	sp, sp, #8
 245 003a 70BD     		pop	{r4, r5, r6, pc}
 246              	.LVL29:
 247              	.L10:
 248              		.loc 1 137 0
 249 003c 0446     		mov	r4, r0
 250              	.LVL30:
 251 003e FAE7     		b	.L9
 252              		.cfi_endproc
 253              	.LFE9:
 254              		.size	chThdCreateFromHeap, .-chThdCreateFromHeap
 255              		.section	.text.chThdCreateFromMemoryPool,"ax",%progbits
 256              		.align	2
 257              		.p2align 4,,15
 258              		.global	chThdCreateFromMemoryPool
 259              		.thumb
 260              		.thumb_func
 261              		.type	chThdCreateFromMemoryPool, %function
 262              	chThdCreateFromMemoryPool:
 263              	.LFB10:
 264              		.loc 1 180 0
 265              		.cfi_startproc
 266              		@ args = 0, pretend = 0, frame = 0
 267              		@ frame_needed = 0, uses_anonymous_args = 0
 268              	.LVL31:
 269 0000 F0B5     		push	{r4, r5, r6, r7, lr}
 270              	.LCFI2:
 271              		.cfi_def_cfa_offset 20
 272 0002 83B0     		sub	sp, sp, #12
 273              	.LCFI3:
 274              		.cfi_def_cfa_offset 32
 275              		.loc 1 180 0
 276 0004 0446     		mov	r4, r0
 277              		.cfi_offset 14, -4
 278              		.cfi_offset 7, -8
 279              		.cfi_offset 6, -12
ARM GAS  C:\DOCUME~1\z_80\LOCALS~1\Temp\ccm1f3Ow.s 			page 6


 280              		.cfi_offset 5, -16
 281              		.cfi_offset 4, -20
 282 0006 0E46     		mov	r6, r1
 283 0008 1746     		mov	r7, r2
 284 000a 1D46     		mov	r5, r3
 285              		.loc 1 186 0
 286 000c FFF7FEFF 		bl	chPoolAlloc
 287              	.LVL32:
 288              		.loc 1 187 0
 289 0010 A8B1     		cbz	r0, .L13
 290              	.LBB10:
 291              		.loc 1 199 0
 292 0012 2023     		movs	r3, #32
 293              	.LVL33:
 294              	@ 199 "../chibios_2.6.3/os/kernel/src/chdynamic.c" 1
 295 0014 83F31188 		msr     BASEPRI, r3
 296              	@ 0 "" 2
 297              	.LVL34:
 298              		.thumb
 299              	.LBE10:
 300              		.loc 1 200 0
 301 0018 6168     		ldr	r1, [r4, #4]
 302 001a 3B46     		mov	r3, r7
 303              	.LVL35:
 304 001c 3246     		mov	r2, r6
 305 001e 0095     		str	r5, [sp, #0]
 306 0020 FFF7FEFF 		bl	chThdCreateI
 307              	.LVL36:
 308              		.loc 1 201 0
 309 0024 0223     		movs	r3, #2
 310 0026 4377     		strb	r3, [r0, #29]
 311              		.loc 1 202 0
 312 0028 4464     		str	r4, [r0, #68]
 313              		.loc 1 203 0
 314 002a 0021     		movs	r1, #0
 315              		.loc 1 200 0
 316 002c 0546     		mov	r5, r0
 317              	.LVL37:
 318              		.loc 1 203 0
 319 002e FFF7FEFF 		bl	chSchWakeupS
 320              	.LVL38:
 321              	.LBB11:
 322              		.loc 1 204 0
 323 0032 0023     		movs	r3, #0
 324              	.LVL39:
 325              	@ 204 "../chibios_2.6.3/os/kernel/src/chdynamic.c" 1
 326 0034 83F31188 		msr     BASEPRI, r3
 327              	@ 0 "" 2
 328              	.LVL40:
 329              		.thumb
 330              	.L12:
 331              	.LBE11:
 332              		.loc 1 206 0
 333 0038 2846     		mov	r0, r5
 334 003a 03B0     		add	sp, sp, #12
 335 003c F0BD     		pop	{r4, r5, r6, r7, pc}
 336              	.LVL41:
ARM GAS  C:\DOCUME~1\z_80\LOCALS~1\Temp\ccm1f3Ow.s 			page 7


 337              	.L13:
 338              		.loc 1 188 0
 339 003e 0546     		mov	r5, r0
 340              	.LVL42:
 341 0040 FAE7     		b	.L12
 342              		.cfi_endproc
 343              	.LFE10:
 344              		.size	chThdCreateFromMemoryPool, .-chThdCreateFromMemoryPool
 345 0042 00BFAFF3 		.text
 345      0080AFF3 
 345      0080AFF3 
 345      0080
 346              	.Letext0: