ARM GAS  C:\DOCUME~1\z_80\LOCALS~1\Temp\cc2zov4R.s 			page 1


   1              		.syntax unified
   2              		.cpu cortex-m3
   3              		.fpu softvfp
   4              		.eabi_attribute 20, 1
   5              		.eabi_attribute 21, 1
   6              		.eabi_attribute 23, 3
   7              		.eabi_attribute 24, 1
   8              		.eabi_attribute 25, 1
   9              		.eabi_attribute 26, 1
  10              		.eabi_attribute 30, 2
  11              		.eabi_attribute 18, 4
  12              		.thumb
  13              		.file	"chevents.c"
  20 0000 51030000 		.text
  20      02005F01 
  20      00000201 
  20      FB0E0D00 
  20      01010101 
  21              	.Ltext0:
  22              		.cfi_sections	.debug_frame
  23              		.section	.text.chEvtRegisterMask,"ax",%progbits
  24              		.align	2
  25              		.p2align 4,,15
  26              		.global	chEvtRegisterMask
  27              		.thumb
  28              		.thumb_func
  29              		.type	chEvtRegisterMask, %function
  30              	chEvtRegisterMask:
  31              	.LFB7:
  32              		.file 1 "../chibios_2.6.3/os/kernel/src/chevents.c"
  33              		.loc 1 85 0
  34              		.cfi_startproc
  35              		@ args = 0, pretend = 0, frame = 0
  36              		@ frame_needed = 0, uses_anonymous_args = 0
  37              		@ link register save eliminated.
  38              	.LVL0:
  39 0000 30B4     		push	{r4, r5}
  40              	.LCFI0:
  41              		.cfi_def_cfa_offset 8
  42              	.LBB2:
  43              		.loc 1 89 0
  44 0002 2023     		movs	r3, #32
  45              	.LVL1:
  46              	@ 89 "../chibios_2.6.3/os/kernel/src/chevents.c" 1
  47 0004 83F31188 		msr     BASEPRI, r3
  48              	@ 0 "" 2
  49              	.LVL2:
  50              		.thumb
  51              	.LBE2:
  52              		.loc 1 92 0
  53 0008 064C     		ldr	r4, .L2
ARM GAS  C:\DOCUME~1\z_80\LOCALS~1\Temp\cc2zov4R.s 			page 2


  54              		.cfi_offset 5, -4
  55              		.cfi_offset 4, -8
  56              		.loc 1 90 0
  57 000a 0368     		ldr	r3, [r0, #0]
  58              	.LVL3:
  59              		.loc 1 92 0
  60 000c A569     		ldr	r5, [r4, #24]
  61              		.loc 1 94 0
  62 000e 0024     		movs	r4, #0
  63              		.loc 1 90 0
  64 0010 0B60     		str	r3, [r1, #0]
  65              		.loc 1 91 0
  66 0012 0160     		str	r1, [r0, #0]
  67              	.LBB3:
  68              		.loc 1 95 0
  69 0014 2346     		mov	r3, r4
  70              	.LVL4:
  71              	.LBE3:
  72              		.loc 1 92 0
  73 0016 4D60     		str	r5, [r1, #4]
  74              		.loc 1 93 0
  75 0018 8A60     		str	r2, [r1, #8]
  76              		.loc 1 94 0
  77 001a CC60     		str	r4, [r1, #12]
  78              	.LBB4:
  79              		.loc 1 95 0
  80              	@ 95 "../chibios_2.6.3/os/kernel/src/chevents.c" 1
  81 001c 83F31188 		msr     BASEPRI, r3
  82              	@ 0 "" 2
  83              	.LVL5:
  84              		.thumb
  85              	.LBE4:
  86              		.loc 1 96 0
  87 0020 30BC     		pop	{r4, r5}
  88 0022 7047     		bx	lr
  89              	.L3:
  90              		.align	2
  91              	.L2:
  92 0024 00000000 		.word	rlist
  93              		.cfi_endproc
  94              	.LFE7:
  95              		.size	chEvtRegisterMask, .-chEvtRegisterMask
  96 0028 AFF30080 		.section	.text.chEvtUnregister,"ax",%progbits
  96      AFF30080 
  97              		.align	2
  98              		.p2align 4,,15
  99              		.global	chEvtUnregister
 100              		.thumb
 101              		.thumb_func
 102              		.type	chEvtUnregister, %function
 103              	chEvtUnregister:
 104              	.LFB8:
 105              		.loc 1 111 0
 106              		.cfi_startproc
 107              		@ args = 0, pretend = 0, frame = 0
 108              		@ frame_needed = 0, uses_anonymous_args = 0
 109              		@ link register save eliminated.
ARM GAS  C:\DOCUME~1\z_80\LOCALS~1\Temp\cc2zov4R.s 			page 3


 110              	.LVL6:
 111              	.LBB5:
 112              		.loc 1 117 0
 113 0000 2023     		movs	r3, #32
 114              	.LVL7:
 115              	@ 117 "../chibios_2.6.3/os/kernel/src/chevents.c" 1
 116 0002 83F31188 		msr     BASEPRI, r3
 117              	@ 0 "" 2
 118              	.LVL8:
 119              		.thumb
 120              	.LBE5:
 121              		.loc 1 116 0
 122 0006 0246     		mov	r2, r0
 123              		.loc 1 118 0
 124 0008 02E0     		b	.L5
 125              	.LVL9:
 126              	.L7:
 127              		.loc 1 119 0
 128 000a 9942     		cmp	r1, r3
 129 000c 07D0     		beq	.L10
 130 000e 1A46     		mov	r2, r3
 131              	.LVL10:
 132              	.L5:
 133              		.loc 1 118 0 discriminator 1
 134 0010 1368     		ldr	r3, [r2, #0]
 135              	.LVL11:
 136 0012 9842     		cmp	r0, r3
 137 0014 F9D1     		bne	.L7
 138              	.LBB6:
 139              		.loc 1 125 0
 140 0016 0023     		movs	r3, #0
 141              	.LVL12:
 142              	@ 125 "../chibios_2.6.3/os/kernel/src/chevents.c" 1
 143 0018 83F31188 		msr     BASEPRI, r3
 144              	@ 0 "" 2
 145              	.LVL13:
 146              		.thumb
 147              	.LBE6:
 148              		.loc 1 126 0
 149 001c 7047     		bx	lr
 150              	.LVL14:
 151              	.L10:
 152              		.loc 1 120 0
 153 001e 0B68     		ldr	r3, [r1, #0]
 154 0020 1360     		str	r3, [r2, #0]
 155              	.LBB7:
 156              		.loc 1 125 0
 157 0022 0023     		movs	r3, #0
 158              	@ 125 "../chibios_2.6.3/os/kernel/src/chevents.c" 1
 159 0024 83F31188 		msr     BASEPRI, r3
 160              	@ 0 "" 2
 161              	.LVL15:
 162              		.thumb
 163              	.LBE7:
 164              		.loc 1 126 0
 165 0028 7047     		bx	lr
 166              		.cfi_endproc
ARM GAS  C:\DOCUME~1\z_80\LOCALS~1\Temp\cc2zov4R.s 			page 4


 167              	.LFE8:
 168              		.size	chEvtUnregister, .-chEvtUnregister
 169 002a 00BFAFF3 		.section	.text.chEvtGetAndClearEvents,"ax",%progbits
 169      0080
 170              		.align	2
 171              		.p2align 4,,15
 172              		.global	chEvtGetAndClearEvents
 173              		.thumb
 174              		.thumb_func
 175              		.type	chEvtGetAndClearEvents, %function
 176              	chEvtGetAndClearEvents:
 177              	.LFB9:
 178              		.loc 1 136 0
 179              		.cfi_startproc
 180              		@ args = 0, pretend = 0, frame = 0
 181              		@ frame_needed = 0, uses_anonymous_args = 0
 182              		@ link register save eliminated.
 183              	.LVL16:
 184 0000 10B4     		push	{r4}
 185              	.LCFI1:
 186              		.cfi_def_cfa_offset 4
 187              	.LBB8:
 188              		.loc 1 139 0
 189 0002 2023     		movs	r3, #32
 190              	.LVL17:
 191              	@ 139 "../chibios_2.6.3/os/kernel/src/chevents.c" 1
 192 0004 83F31188 		msr     BASEPRI, r3
 193              	@ 0 "" 2
 194              	.LVL18:
 195              		.thumb
 196              	.LBE8:
 197              		.loc 1 141 0
 198 0008 054C     		ldr	r4, .L12
 199              		.cfi_offset 4, -4
 200              	.LBB9:
 201              		.loc 1 144 0
 202 000a 0023     		movs	r3, #0
 203              	.LVL19:
 204              	.LBE9:
 205              		.loc 1 141 0
 206 000c A169     		ldr	r1, [r4, #24]
 207 000e 8A6B     		ldr	r2, [r1, #56]
 208              		.loc 1 142 0
 209 0010 22EA0004 		bic	r4, r2, r0
 210              	.LVL20:
 211 0014 8C63     		str	r4, [r1, #56]
 212              	.LBB10:
 213              		.loc 1 144 0
 214              	@ 144 "../chibios_2.6.3/os/kernel/src/chevents.c" 1
 215 0016 83F31188 		msr     BASEPRI, r3
 216              	@ 0 "" 2
 217              	.LVL21:
 218              		.thumb
 219              	.LBE10:
 220              		.loc 1 146 0
 221 001a 1040     		ands	r0, r0, r2
 222              	.LVL22:
ARM GAS  C:\DOCUME~1\z_80\LOCALS~1\Temp\cc2zov4R.s 			page 5


 223 001c 10BC     		pop	{r4}
 224 001e 7047     		bx	lr
 225              	.L13:
 226              		.align	2
 227              	.L12:
 228 0020 00000000 		.word	rlist
 229              		.cfi_endproc
 230              	.LFE9:
 231              		.size	chEvtGetAndClearEvents, .-chEvtGetAndClearEvents
 232 0024 AFF30080 		.section	.text.chEvtAddEvents,"ax",%progbits
 232      AFF30080 
 232      AFF30080 
 233              		.align	2
 234              		.p2align 4,,15
 235              		.global	chEvtAddEvents
 236              		.thumb
 237              		.thumb_func
 238              		.type	chEvtAddEvents, %function
 239              	chEvtAddEvents:
 240              	.LFB10:
 241              		.loc 1 157 0
 242              		.cfi_startproc
 243              		@ args = 0, pretend = 0, frame = 0
 244              		@ frame_needed = 0, uses_anonymous_args = 0
 245              		@ link register save eliminated.
 246              	.LVL23:
 247              	.LBB11:
 248              		.loc 1 159 0
 249 0000 2023     		movs	r3, #32
 250              	.LVL24:
 251              	@ 159 "../chibios_2.6.3/os/kernel/src/chevents.c" 1
 252 0002 83F31188 		msr     BASEPRI, r3
 253              	@ 0 "" 2
 254              	.LVL25:
 255              		.thumb
 256              	.LBE11:
 257              		.loc 1 161 0
 258 0006 044A     		ldr	r2, .L15
 259              	.LBB12:
 260              		.loc 1 163 0
 261 0008 0023     		movs	r3, #0
 262              	.LVL26:
 263              	.LBE12:
 264              		.loc 1 161 0
 265 000a 9269     		ldr	r2, [r2, #24]
 266 000c 916B     		ldr	r1, [r2, #56]
 267 000e 0843     		orrs	r0, r0, r1
 268              	.LVL27:
 269 0010 9063     		str	r0, [r2, #56]
 270              	.LVL28:
 271              	.LBB13:
 272              		.loc 1 163 0
 273              	@ 163 "../chibios_2.6.3/os/kernel/src/chevents.c" 1
 274 0012 83F31188 		msr     BASEPRI, r3
 275              	@ 0 "" 2
 276              	.LVL29:
 277              		.thumb
ARM GAS  C:\DOCUME~1\z_80\LOCALS~1\Temp\cc2zov4R.s 			page 6


 278              	.LBE13:
 279              		.loc 1 165 0
 280 0016 7047     		bx	lr
 281              	.L16:
 282              		.align	2
 283              	.L15:
 284 0018 00000000 		.word	rlist
 285              		.cfi_endproc
 286              	.LFE10:
 287              		.size	chEvtAddEvents, .-chEvtAddEvents
 288 001c AFF30080 		.section	.text.chEvtGetAndClearFlags,"ax",%progbits
 289              		.align	2
 290              		.p2align 4,,15
 291              		.global	chEvtGetAndClearFlags
 292              		.thumb
 293              		.thumb_func
 294              		.type	chEvtGetAndClearFlags, %function
 295              	chEvtGetAndClearFlags:
 296              	.LFB12:
 297              		.loc 1 209 0
 298              		.cfi_startproc
 299              		@ args = 0, pretend = 0, frame = 0
 300              		@ frame_needed = 0, uses_anonymous_args = 0
 301              		@ link register save eliminated.
 302              	.LVL30:
 303              		.loc 1 209 0
 304 0000 0246     		mov	r2, r0
 305              	.LBB14:
 306              		.loc 1 212 0
 307 0002 2023     		movs	r3, #32
 308              	.LVL31:
 309              	@ 212 "../chibios_2.6.3/os/kernel/src/chevents.c" 1
 310 0004 83F31188 		msr     BASEPRI, r3
 311              	@ 0 "" 2
 312              	.LVL32:
 313              		.thumb
 314              	.LBE14:
 315              		.loc 1 215 0
 316 0008 0021     		movs	r1, #0
 317              		.loc 1 214 0
 318 000a C068     		ldr	r0, [r0, #12]
 319              	.LVL33:
 320              	.LBB15:
 321              		.loc 1 217 0
 322 000c 0B46     		mov	r3, r1
 323              	.LVL34:
 324              	.LBE15:
 325              		.loc 1 215 0
 326 000e D160     		str	r1, [r2, #12]
 327              	.LBB16:
 328              		.loc 1 217 0
 329              	@ 217 "../chibios_2.6.3/os/kernel/src/chevents.c" 1
 330 0010 83F31188 		msr     BASEPRI, r3
 331              	@ 0 "" 2
 332              	.LVL35:
 333              		.thumb
 334              	.LBE16:
ARM GAS  C:\DOCUME~1\z_80\LOCALS~1\Temp\cc2zov4R.s 			page 7


 335              		.loc 1 219 0
 336 0014 7047     		bx	lr
 337              		.cfi_endproc
 338              	.LFE12:
 339              		.size	chEvtGetAndClearFlags, .-chEvtGetAndClearFlags
 340 0016 00BFAFF3 		.section	.text.chEvtSignalI,"ax",%progbits
 340      0080AFF3 
 340      0080
 341              		.align	2
 342              		.p2align 4,,15
 343              		.global	chEvtSignalI
 344              		.thumb
 345              		.thumb_func
 346              		.type	chEvtSignalI, %function
 347              	chEvtSignalI:
 348              	.LFB14:
 349              		.loc 1 251 0
 350              		.cfi_startproc
 351              		@ args = 0, pretend = 0, frame = 0
 352              		@ frame_needed = 0, uses_anonymous_args = 0
 353              	.LVL36:
 354 0000 08B5     		push	{r3, lr}
 355              	.LCFI2:
 356              		.cfi_def_cfa_offset 8
 357              		.loc 1 256 0
 358 0002 826B     		ldr	r2, [r0, #56]
 359              		.loc 1 258 0
 360 0004 037F     		ldrb	r3, [r0, #28]	@ zero_extendqisi2
 361              		.cfi_offset 14, -4
 362              		.cfi_offset 3, -8
 363              		.loc 1 256 0
 364 0006 41EA0202 		orr	r2, r1, r2
 365              		.loc 1 258 0
 366 000a 082B     		cmp	r3, #8
 367              		.loc 1 256 0
 368 000c 8263     		str	r2, [r0, #56]
 369              		.loc 1 258 0
 370 000e 0CD0     		beq	.L22
 371              		.loc 1 259 0
 372 0010 092B     		cmp	r3, #9
 373 0012 00D0     		beq	.L23
 374              	.LVL37:
 375              	.L18:
 376 0014 08BD     		pop	{r3, pc}
 377              	.LVL38:
 378              	.L23:
 379              		.loc 1 261 0
 380 0016 436A     		ldr	r3, [r0, #36]
 381 0018 02EA0301 		and	r1, r2, r3
 382              	.LVL39:
 383              		.loc 1 260 0
 384 001c 8B42     		cmp	r3, r1
 385 001e F9D1     		bne	.L18
 386              	.L20:
 387              		.loc 1 262 0
 388 0020 FFF7FEFF 		bl	chSchReadyI
 389              	.LVL40:
ARM GAS  C:\DOCUME~1\z_80\LOCALS~1\Temp\cc2zov4R.s 			page 8


 390 0024 0022     		movs	r2, #0
 391 0026 4262     		str	r2, [r0, #36]
 392 0028 08BD     		pop	{r3, pc}
 393              	.LVL41:
 394              	.L22:
 395              		.loc 1 259 0 discriminator 1
 396 002a 436A     		ldr	r3, [r0, #36]
 397              		.loc 1 258 0 discriminator 1
 398 002c 1A42     		tst	r2, r3
 399 002e F7D1     		bne	.L20
 400 0030 08BD     		pop	{r3, pc}
 401              		.cfi_endproc
 402              	.LFE14:
 403              		.size	chEvtSignalI, .-chEvtSignalI
 404 0032 00BFAFF3 		.section	.text.chEvtSignal,"ax",%progbits
 404      0080AFF3 
 404      0080AFF3 
 404      0080
 405              		.align	2
 406              		.p2align 4,,15
 407              		.global	chEvtSignal
 408              		.thumb
 409              		.thumb_func
 410              		.type	chEvtSignal, %function
 411              	chEvtSignal:
 412              	.LFB13:
 413              		.loc 1 229 0
 414              		.cfi_startproc
 415              		@ args = 0, pretend = 0, frame = 0
 416              		@ frame_needed = 0, uses_anonymous_args = 0
 417              	.LVL42:
 418 0000 08B5     		push	{r3, lr}
 419              	.LCFI3:
 420              		.cfi_def_cfa_offset 8
 421              	.LBB17:
 422              		.loc 1 233 0
 423 0002 2023     		movs	r3, #32
 424              		.cfi_offset 14, -4
 425              		.cfi_offset 3, -8
 426              	.LVL43:
 427              	@ 233 "../chibios_2.6.3/os/kernel/src/chevents.c" 1
 428 0004 83F31188 		msr     BASEPRI, r3
 429              	@ 0 "" 2
 430              	.LVL44:
 431              		.thumb
 432              	.LBE17:
 433              		.loc 1 234 0
 434 0008 FFF7FEFF 		bl	chEvtSignalI
 435              	.LVL45:
 436              		.loc 1 235 0
 437 000c FFF7FEFF 		bl	chSchRescheduleS
 438              	.LBB18:
 439              		.loc 1 236 0
 440 0010 0023     		movs	r3, #0
 441              	.LVL46:
 442              	@ 236 "../chibios_2.6.3/os/kernel/src/chevents.c" 1
 443 0012 83F31188 		msr     BASEPRI, r3
ARM GAS  C:\DOCUME~1\z_80\LOCALS~1\Temp\cc2zov4R.s 			page 9


 444              	@ 0 "" 2
 445              	.LVL47:
 446              		.thumb
 447              	.LBE18:
 448              		.loc 1 237 0
 449 0016 08BD     		pop	{r3, pc}
 450              		.cfi_endproc
 451              	.LFE13:
 452              		.size	chEvtSignal, .-chEvtSignal
 453 0018 AFF30080 		.section	.text.chEvtBroadcastFlagsI,"ax",%progbits
 453      AFF30080 
 454              		.align	2
 455              		.p2align 4,,15
 456              		.global	chEvtBroadcastFlagsI
 457              		.thumb
 458              		.thumb_func
 459              		.type	chEvtBroadcastFlagsI, %function
 460              	chEvtBroadcastFlagsI:
 461              	.LFB11:
 462              		.loc 1 184 0
 463              		.cfi_startproc
 464              		@ args = 0, pretend = 0, frame = 0
 465              		@ frame_needed = 0, uses_anonymous_args = 0
 466              	.LVL48:
 467 0000 70B5     		push	{r4, r5, r6, lr}
 468              	.LCFI4:
 469              		.cfi_def_cfa_offset 16
 470              		.loc 1 190 0
 471 0002 0468     		ldr	r4, [r0, #0]
 472              		.cfi_offset 14, -4
 473              		.cfi_offset 6, -8
 474              		.cfi_offset 5, -12
 475              		.cfi_offset 4, -16
 476              	.LVL49:
 477              		.loc 1 184 0
 478 0004 0546     		mov	r5, r0
 479              		.loc 1 191 0
 480 0006 8442     		cmp	r4, r0
 481              		.loc 1 184 0
 482 0008 0E46     		mov	r6, r1
 483              		.loc 1 191 0
 484 000a 0AD0     		beq	.L25
 485              	.LVL50:
 486              	.L28:
 487              		.loc 1 192 0
 488 000c E168     		ldr	r1, [r4, #12]
 489              		.loc 1 193 0
 490 000e 6068     		ldr	r0, [r4, #4]
 491              		.loc 1 192 0
 492 0010 41EA0603 		orr	r3, r1, r6
 493 0014 E360     		str	r3, [r4, #12]
 494              		.loc 1 193 0
 495 0016 A168     		ldr	r1, [r4, #8]
 496 0018 FFF7FEFF 		bl	chEvtSignalI
 497              		.loc 1 194 0
 498 001c 2468     		ldr	r4, [r4, #0]
 499              	.LVL51:
ARM GAS  C:\DOCUME~1\z_80\LOCALS~1\Temp\cc2zov4R.s 			page 10


 500              		.loc 1 191 0
 501 001e AC42     		cmp	r4, r5
 502 0020 F4D1     		bne	.L28
 503              	.L25:
 504 0022 70BD     		pop	{r4, r5, r6, pc}
 505              		.cfi_endproc
 506              	.LFE11:
 507              		.size	chEvtBroadcastFlagsI, .-chEvtBroadcastFlagsI
 508 0024 AFF30080 		.section	.text.chEvtBroadcastFlags,"ax",%progbits
 508      AFF30080 
 508      AFF30080 
 509              		.align	2
 510              		.p2align 4,,15
 511              		.global	chEvtBroadcastFlags
 512              		.thumb
 513              		.thumb_func
 514              		.type	chEvtBroadcastFlags, %function
 515              	chEvtBroadcastFlags:
 516              	.LFB15:
 517              		.loc 1 278 0
 518              		.cfi_startproc
 519              		@ args = 0, pretend = 0, frame = 0
 520              		@ frame_needed = 0, uses_anonymous_args = 0
 521              	.LVL52:
 522 0000 08B5     		push	{r3, lr}
 523              	.LCFI5:
 524              		.cfi_def_cfa_offset 8
 525              	.LBB19:
 526              		.loc 1 280 0
 527 0002 2023     		movs	r3, #32
 528              		.cfi_offset 14, -4
 529              		.cfi_offset 3, -8
 530              	.LVL53:
 531              	@ 280 "../chibios_2.6.3/os/kernel/src/chevents.c" 1
 532 0004 83F31188 		msr     BASEPRI, r3
 533              	@ 0 "" 2
 534              	.LVL54:
 535              		.thumb
 536              	.LBE19:
 537              		.loc 1 281 0
 538 0008 FFF7FEFF 		bl	chEvtBroadcastFlagsI
 539              	.LVL55:
 540              		.loc 1 282 0
 541 000c FFF7FEFF 		bl	chSchRescheduleS
 542              	.LBB20:
 543              		.loc 1 283 0
 544 0010 0023     		movs	r3, #0
 545              	.LVL56:
 546              	@ 283 "../chibios_2.6.3/os/kernel/src/chevents.c" 1
 547 0012 83F31188 		msr     BASEPRI, r3
 548              	@ 0 "" 2
 549              	.LVL57:
 550              		.thumb
 551              	.LBE20:
 552              		.loc 1 284 0
 553 0016 08BD     		pop	{r3, pc}
 554              		.cfi_endproc
ARM GAS  C:\DOCUME~1\z_80\LOCALS~1\Temp\cc2zov4R.s 			page 11


 555              	.LFE15:
 556              		.size	chEvtBroadcastFlags, .-chEvtBroadcastFlags
 557 0018 AFF30080 		.section	.text.chEvtGetAndClearFlagsI,"ax",%progbits
 557      AFF30080 
 558              		.align	2
 559              		.p2align 4,,15
 560              		.global	chEvtGetAndClearFlagsI
 561              		.thumb
 562              		.thumb_func
 563              		.type	chEvtGetAndClearFlagsI, %function
 564              	chEvtGetAndClearFlagsI:
 565              	.LFB16:
 566              		.loc 1 297 0
 567              		.cfi_startproc
 568              		@ args = 0, pretend = 0, frame = 0
 569              		@ frame_needed = 0, uses_anonymous_args = 0
 570              		@ link register save eliminated.
 571              	.LVL58:
 572              		.loc 1 297 0
 573 0000 0346     		mov	r3, r0
 574              		.loc 1 301 0
 575 0002 0022     		movs	r2, #0
 576              		.loc 1 300 0
 577 0004 C068     		ldr	r0, [r0, #12]
 578              	.LVL59:
 579              		.loc 1 301 0
 580 0006 DA60     		str	r2, [r3, #12]
 581              		.loc 1 304 0
 582 0008 7047     		bx	lr
 583              		.cfi_endproc
 584              	.LFE16:
 585              		.size	chEvtGetAndClearFlagsI, .-chEvtGetAndClearFlagsI
 586 000a 00BFAFF3 		.section	.text.chEvtDispatch,"ax",%progbits
 586      0080
 587              		.align	2
 588              		.p2align 4,,15
 589              		.global	chEvtDispatch
 590              		.thumb
 591              		.thumb_func
 592              		.type	chEvtDispatch, %function
 593              	chEvtDispatch:
 594              	.LFB17:
 595              		.loc 1 315 0
 596              		.cfi_startproc
 597              		@ args = 0, pretend = 0, frame = 0
 598              		@ frame_needed = 0, uses_anonymous_args = 0
 599              	.LVL60:
 600 0000 F8B5     		push	{r3, r4, r5, r6, r7, lr}
 601              	.LCFI6:
 602              		.cfi_def_cfa_offset 24
 603              		.loc 1 321 0
 604 0002 0D46     		mov	r5, r1
 605              		.cfi_offset 14, -4
 606              		.cfi_offset 7, -8
 607              		.cfi_offset 6, -12
 608              		.cfi_offset 5, -16
 609              		.cfi_offset 4, -20
ARM GAS  C:\DOCUME~1\z_80\LOCALS~1\Temp\cc2zov4R.s 			page 12


 610              		.cfi_offset 3, -24
 611              		.loc 1 315 0
 612 0004 0746     		mov	r7, r0
 613              		.loc 1 321 0
 614 0006 99B1     		cbz	r1, .L32
 615 0008 0024     		movs	r4, #0
 616              		.loc 1 322 0
 617 000a 0126     		movs	r6, #1
 618 000c 16FA04F3 		lsls	r3, r6, r4
 619 0010 2B42     		tst	r3, r5
 620 0012 05D1     		bne	.L36
 621              	.LVL61:
 622              	.L34:
 623              		.loc 1 321 0
 624 0014 65B1     		cbz	r5, .L32
 625              	.LVL62:
 626              	.L37:
 627              		.loc 1 329 0
 628 0016 0134     		adds	r4, r4, #1
 629              		.loc 1 322 0
 630 0018 16FA04F3 		lsls	r3, r6, r4
 631 001c 2B42     		tst	r3, r5
 632 001e F9D0     		beq	.L34
 633              	.L36:
 634              		.loc 1 326 0
 635 0020 25EA0305 		bic	r5, r5, r3
 636              	.LVL63:
 637              		.loc 1 327 0
 638 0024 57F82420 		ldr	r2, [r7, r4, lsl #2]
 639 0028 2046     		mov	r0, r4
 640 002a 9047     		blx	r2
 641              	.LVL64:
 642              		.loc 1 321 0
 643 002c 002D     		cmp	r5, #0
 644 002e F2D1     		bne	.L37
 645              	.LVL65:
 646              	.L32:
 647 0030 F8BD     		pop	{r3, r4, r5, r6, r7, pc}
 648              		.cfi_endproc
 649              	.LFE17:
 650              		.size	chEvtDispatch, .-chEvtDispatch
 651 0032 00BFAFF3 		.section	.text.chEvtWaitOne,"ax",%progbits
 651      0080AFF3 
 651      0080AFF3 
 651      0080
 652              		.align	2
 653              		.p2align 4,,15
 654              		.global	chEvtWaitOne
 655              		.thumb
 656              		.thumb_func
 657              		.type	chEvtWaitOne, %function
 658              	chEvtWaitOne:
 659              	.LFB18:
 660              		.loc 1 350 0
 661              		.cfi_startproc
 662              		@ args = 0, pretend = 0, frame = 0
 663              		@ frame_needed = 0, uses_anonymous_args = 0
ARM GAS  C:\DOCUME~1\z_80\LOCALS~1\Temp\cc2zov4R.s 			page 13


 664              	.LVL66:
 665 0000 38B5     		push	{r3, r4, r5, lr}
 666              	.LCFI7:
 667              		.cfi_def_cfa_offset 16
 668              		.loc 1 351 0
 669 0002 0D4B     		ldr	r3, .L40
 670              		.cfi_offset 14, -4
 671              		.cfi_offset 5, -8
 672              		.cfi_offset 4, -12
 673              		.cfi_offset 3, -16
 674              		.loc 1 350 0
 675 0004 0546     		mov	r5, r0
 676              		.loc 1 351 0
 677 0006 9C69     		ldr	r4, [r3, #24]
 678              	.LVL67:
 679              	.LBB21:
 680              		.loc 1 354 0
 681 0008 2023     		movs	r3, #32
 682              	.LVL68:
 683              	@ 354 "../chibios_2.6.3/os/kernel/src/chevents.c" 1
 684 000a 83F31188 		msr     BASEPRI, r3
 685              	@ 0 "" 2
 686              	.LVL69:
 687              		.thumb
 688              	.LBE21:
 689              		.loc 1 356 0
 690 000e A36B     		ldr	r3, [r4, #56]
 691              	.LVL70:
 692 0010 10EA0302 		ands	r2, r0, r3
 693 0014 06D1     		bne	.L39
 694              	.LVL71:
 695              		.loc 1 357 0
 696 0016 6062     		str	r0, [r4, #36]
 697              		.loc 1 358 0
 698 0018 0820     		movs	r0, #8
 699              	.LVL72:
 700 001a FFF7FEFF 		bl	chSchGoSleepS
 701              	.LVL73:
 702              		.loc 1 359 0
 703 001e A36B     		ldr	r3, [r4, #56]
 704 0020 05EA0302 		and	r2, r5, r3
 705              	.LVL74:
 706              	.L39:
 707              		.loc 1 361 0
 708 0024 5042     		negs	r0, r2
 709 0026 1040     		ands	r0, r0, r2
 710              	.LVL75:
 711              		.loc 1 362 0
 712 0028 23EA0001 		bic	r1, r3, r0
 713 002c A163     		str	r1, [r4, #56]
 714              	.LBB22:
 715              		.loc 1 364 0
 716 002e 0023     		movs	r3, #0
 717              	.LVL76:
 718              	@ 364 "../chibios_2.6.3/os/kernel/src/chevents.c" 1
 719 0030 83F31188 		msr     BASEPRI, r3
 720              	@ 0 "" 2
ARM GAS  C:\DOCUME~1\z_80\LOCALS~1\Temp\cc2zov4R.s 			page 14


 721              	.LVL77:
 722              		.thumb
 723              	.LBE22:
 724              		.loc 1 366 0
 725 0034 38BD     		pop	{r3, r4, r5, pc}
 726              	.L41:
 727 0036 00BF     		.align	2
 728              	.L40:
 729 0038 00000000 		.word	rlist
 730              		.cfi_endproc
 731              	.LFE18:
 732              		.size	chEvtWaitOne, .-chEvtWaitOne
 733 003c AFF30080 		.section	.text.chEvtWaitAny,"ax",%progbits
 734              		.align	2
 735              		.p2align 4,,15
 736              		.global	chEvtWaitAny
 737              		.thumb
 738              		.thumb_func
 739              		.type	chEvtWaitAny, %function
 740              	chEvtWaitAny:
 741              	.LFB19:
 742              		.loc 1 379 0
 743              		.cfi_startproc
 744              		@ args = 0, pretend = 0, frame = 0
 745              		@ frame_needed = 0, uses_anonymous_args = 0
 746              	.LVL78:
 747 0000 38B5     		push	{r3, r4, r5, lr}
 748              	.LCFI8:
 749              		.cfi_def_cfa_offset 16
 750              		.loc 1 380 0
 751 0002 0B4B     		ldr	r3, .L44
 752              		.cfi_offset 14, -4
 753              		.cfi_offset 5, -8
 754              		.cfi_offset 4, -12
 755              		.cfi_offset 3, -16
 756              		.loc 1 379 0
 757 0004 0546     		mov	r5, r0
 758              		.loc 1 380 0
 759 0006 9C69     		ldr	r4, [r3, #24]
 760              	.LVL79:
 761              	.LBB23:
 762              		.loc 1 383 0
 763 0008 2023     		movs	r3, #32
 764              	.LVL80:
 765              	@ 383 "../chibios_2.6.3/os/kernel/src/chevents.c" 1
 766 000a 83F31188 		msr     BASEPRI, r3
 767              	@ 0 "" 2
 768              	.LVL81:
 769              		.thumb
 770              	.LBE23:
 771              		.loc 1 385 0
 772 000e A36B     		ldr	r3, [r4, #56]
 773              	.LVL82:
 774 0010 1840     		ands	r0, r0, r3
 775              	.LVL83:
 776 0012 06D1     		bne	.L43
 777              		.loc 1 387 0
ARM GAS  C:\DOCUME~1\z_80\LOCALS~1\Temp\cc2zov4R.s 			page 15


 778 0014 0820     		movs	r0, #8
 779              		.loc 1 386 0
 780 0016 6562     		str	r5, [r4, #36]
 781              		.loc 1 387 0
 782 0018 FFF7FEFF 		bl	chSchGoSleepS
 783              	.LVL84:
 784              		.loc 1 388 0
 785 001c A36B     		ldr	r3, [r4, #56]
 786 001e 05EA0300 		and	r0, r5, r3
 787              	.LVL85:
 788              	.L43:
 789              		.loc 1 390 0
 790 0022 23EA0001 		bic	r1, r3, r0
 791 0026 A163     		str	r1, [r4, #56]
 792              	.LBB24:
 793              		.loc 1 392 0
 794 0028 0023     		movs	r3, #0
 795              	.LVL86:
 796              	@ 392 "../chibios_2.6.3/os/kernel/src/chevents.c" 1
 797 002a 83F31188 		msr     BASEPRI, r3
 798              	@ 0 "" 2
 799              	.LVL87:
 800              		.thumb
 801              	.LBE24:
 802              		.loc 1 394 0
 803 002e 38BD     		pop	{r3, r4, r5, pc}
 804              	.L45:
 805              		.align	2
 806              	.L44:
 807 0030 00000000 		.word	rlist
 808              		.cfi_endproc
 809              	.LFE19:
 810              		.size	chEvtWaitAny, .-chEvtWaitAny
 811 0034 AFF30080 		.section	.text.chEvtWaitAll,"ax",%progbits
 811      AFF30080 
 811      AFF30080 
 812              		.align	2
 813              		.p2align 4,,15
 814              		.global	chEvtWaitAll
 815              		.thumb
 816              		.thumb_func
 817              		.type	chEvtWaitAll, %function
 818              	chEvtWaitAll:
 819              	.LFB20:
 820              		.loc 1 407 0
 821              		.cfi_startproc
 822              		@ args = 0, pretend = 0, frame = 0
 823              		@ frame_needed = 0, uses_anonymous_args = 0
 824              	.LVL88:
 825 0000 38B5     		push	{r3, r4, r5, lr}
 826              	.LCFI9:
 827              		.cfi_def_cfa_offset 16
 828              		.loc 1 408 0
 829 0002 0C4B     		ldr	r3, .L48
 830              		.cfi_offset 14, -4
 831              		.cfi_offset 5, -8
 832              		.cfi_offset 4, -12
ARM GAS  C:\DOCUME~1\z_80\LOCALS~1\Temp\cc2zov4R.s 			page 16


 833              		.cfi_offset 3, -16
 834              		.loc 1 407 0
 835 0004 0446     		mov	r4, r0
 836              		.loc 1 408 0
 837 0006 9D69     		ldr	r5, [r3, #24]
 838              	.LVL89:
 839              	.LBB25:
 840              		.loc 1 410 0
 841 0008 2023     		movs	r3, #32
 842              	.LVL90:
 843              	@ 410 "../chibios_2.6.3/os/kernel/src/chevents.c" 1
 844 000a 83F31188 		msr     BASEPRI, r3
 845              	@ 0 "" 2
 846              	.LVL91:
 847              		.thumb
 848              	.LBE25:
 849              		.loc 1 412 0
 850 000e AB6B     		ldr	r3, [r5, #56]
 851              	.LVL92:
 852 0010 00EA0302 		and	r2, r0, r3
 853 0014 8242     		cmp	r2, r0
 854 0016 04D0     		beq	.L47
 855              		.loc 1 413 0
 856 0018 6862     		str	r0, [r5, #36]
 857              		.loc 1 414 0
 858 001a 0920     		movs	r0, #9
 859              	.LVL93:
 860 001c FFF7FEFF 		bl	chSchGoSleepS
 861              	.LVL94:
 862 0020 AB6B     		ldr	r3, [r5, #56]
 863              	.L47:
 864              		.loc 1 416 0
 865 0022 23EA0400 		bic	r0, r3, r4
 866 0026 A863     		str	r0, [r5, #56]
 867              	.LBB26:
 868              		.loc 1 418 0
 869 0028 0023     		movs	r3, #0
 870              	.LVL95:
 871              	@ 418 "../chibios_2.6.3/os/kernel/src/chevents.c" 1
 872 002a 83F31188 		msr     BASEPRI, r3
 873              	@ 0 "" 2
 874              	.LVL96:
 875              		.thumb
 876              	.LBE26:
 877              		.loc 1 420 0
 878 002e 2046     		mov	r0, r4
 879 0030 38BD     		pop	{r3, r4, r5, pc}
 880              	.L49:
 881 0032 00BF     		.align	2
 882              	.L48:
 883 0034 00000000 		.word	rlist
 884              		.cfi_endproc
 885              	.LFE20:
 886              		.size	chEvtWaitAll, .-chEvtWaitAll
 887 0038 AFF30080 		.section	.text.chEvtWaitOneTimeout,"ax",%progbits
 887      AFF30080 
 888              		.align	2
ARM GAS  C:\DOCUME~1\z_80\LOCALS~1\Temp\cc2zov4R.s 			page 17


 889              		.p2align 4,,15
 890              		.global	chEvtWaitOneTimeout
 891              		.thumb
 892              		.thumb_func
 893              		.type	chEvtWaitOneTimeout, %function
 894              	chEvtWaitOneTimeout:
 895              	.LFB21:
 896              		.loc 1 446 0
 897              		.cfi_startproc
 898              		@ args = 0, pretend = 0, frame = 0
 899              		@ frame_needed = 0, uses_anonymous_args = 0
 900              	.LVL97:
 901              		.loc 1 447 0
 902 0000 134B     		ldr	r3, .L56
 903              		.loc 1 446 0
 904 0002 70B5     		push	{r4, r5, r6, lr}
 905              	.LCFI10:
 906              		.cfi_def_cfa_offset 16
 907              		.loc 1 447 0
 908 0004 9E69     		ldr	r6, [r3, #24]
 909              		.cfi_offset 14, -4
 910              		.cfi_offset 6, -8
 911              		.cfi_offset 5, -12
 912              		.cfi_offset 4, -16
 913              	.LVL98:
 914              		.loc 1 446 0
 915 0006 0546     		mov	r5, r0
 916              	.LBB27:
 917              		.loc 1 450 0
 918 0008 2023     		movs	r3, #32
 919              	.LVL99:
 920              	@ 450 "../chibios_2.6.3/os/kernel/src/chevents.c" 1
 921 000a 83F31188 		msr     BASEPRI, r3
 922              	@ 0 "" 2
 923              	.LVL100:
 924              		.thumb
 925              	.LBE27:
 926              		.loc 1 452 0
 927 000e B36B     		ldr	r3, [r6, #56]
 928              	.LVL101:
 929 0010 10EA0304 		ands	r4, r0, r3
 930 0014 0ED1     		bne	.L51
 931              	.LVL102:
 932              		.loc 1 453 0
 933 0016 21B9     		cbnz	r1, .L52
 934              	.LBB28:
 935              		.loc 1 454 0
 936 0018 2346     		mov	r3, r4
 937              	.LVL103:
 938              	@ 454 "../chibios_2.6.3/os/kernel/src/chevents.c" 1
 939 001a 83F31188 		msr     BASEPRI, r3
 940              	@ 0 "" 2
 941              	.LVL104:
 942              		.thumb
 943              	.LBE28:
 944              		.loc 1 469 0
 945 001e 2046     		mov	r0, r4
ARM GAS  C:\DOCUME~1\z_80\LOCALS~1\Temp\cc2zov4R.s 			page 18


 946              	.LVL105:
 947 0020 70BD     		pop	{r4, r5, r6, pc}
 948              	.LVL106:
 949              	.L52:
 950              		.loc 1 457 0
 951 0022 7062     		str	r0, [r6, #36]
 952              		.loc 1 458 0
 953 0024 0820     		movs	r0, #8
 954 0026 FFF7FEFF 		bl	chSchGoSleepTimeoutS
 955              	.LVL107:
 956 002a 0028     		cmp	r0, #0
 957 002c 0CDB     		blt	.L55
 958              		.loc 1 462 0
 959 002e B36B     		ldr	r3, [r6, #56]
 960 0030 05EA0304 		and	r4, r5, r3
 961              	.LVL108:
 962              	.L51:
 963              		.loc 1 464 0
 964 0034 6242     		negs	r2, r4
 965 0036 1440     		ands	r4, r4, r2
 966              	.LVL109:
 967              		.loc 1 465 0
 968 0038 23EA0400 		bic	r0, r3, r4
 969 003c B063     		str	r0, [r6, #56]
 970              	.LBB29:
 971              		.loc 1 467 0
 972 003e 0023     		movs	r3, #0
 973              	.LVL110:
 974              	@ 467 "../chibios_2.6.3/os/kernel/src/chevents.c" 1
 975 0040 83F31188 		msr     BASEPRI, r3
 976              	@ 0 "" 2
 977              	.LVL111:
 978              		.thumb
 979              	.L53:
 980              	.LBE29:
 981              		.loc 1 469 0
 982 0044 2046     		mov	r0, r4
 983 0046 70BD     		pop	{r4, r5, r6, pc}
 984              	.LVL112:
 985              	.L55:
 986              	.LBB30:
 987              		.loc 1 459 0
 988 0048 2346     		mov	r3, r4
 989              	@ 459 "../chibios_2.6.3/os/kernel/src/chevents.c" 1
 990 004a 83F31188 		msr     BASEPRI, r3
 991              	@ 0 "" 2
 992              	.LVL113:
 993              		.thumb
 994              	.LBE30:
 995              		.loc 1 460 0
 996 004e F9E7     		b	.L53
 997              	.L57:
 998              		.align	2
 999              	.L56:
 1000 0050 00000000 		.word	rlist
 1001              		.cfi_endproc
 1002              	.LFE21:
ARM GAS  C:\DOCUME~1\z_80\LOCALS~1\Temp\cc2zov4R.s 			page 19


 1003              		.size	chEvtWaitOneTimeout, .-chEvtWaitOneTimeout
 1004 0054 AFF30080 		.section	.text.chEvtWaitAnyTimeout,"ax",%progbits
 1004      AFF30080 
 1004      AFF30080 
 1005              		.align	2
 1006              		.p2align 4,,15
 1007              		.global	chEvtWaitAnyTimeout
 1008              		.thumb
 1009              		.thumb_func
 1010              		.type	chEvtWaitAnyTimeout, %function
 1011              	chEvtWaitAnyTimeout:
 1012              	.LFB22:
 1013              		.loc 1 489 0
 1014              		.cfi_startproc
 1015              		@ args = 0, pretend = 0, frame = 0
 1016              		@ frame_needed = 0, uses_anonymous_args = 0
 1017              	.LVL114:
 1018              		.loc 1 490 0
 1019 0000 124B     		ldr	r3, .L64
 1020              		.loc 1 489 0
 1021 0002 70B5     		push	{r4, r5, r6, lr}
 1022              	.LCFI11:
 1023              		.cfi_def_cfa_offset 16
 1024              		.loc 1 490 0
 1025 0004 9E69     		ldr	r6, [r3, #24]
 1026              		.cfi_offset 14, -4
 1027              		.cfi_offset 6, -8
 1028              		.cfi_offset 5, -12
 1029              		.cfi_offset 4, -16
 1030              	.LVL115:
 1031              		.loc 1 489 0
 1032 0006 0446     		mov	r4, r0
 1033              	.LBB31:
 1034              		.loc 1 493 0
 1035 0008 2023     		movs	r3, #32
 1036              	.LVL116:
 1037              	@ 493 "../chibios_2.6.3/os/kernel/src/chevents.c" 1
 1038 000a 83F31188 		msr     BASEPRI, r3
 1039              	@ 0 "" 2
 1040              	.LVL117:
 1041              		.thumb
 1042              	.LBE31:
 1043              		.loc 1 495 0
 1044 000e B36B     		ldr	r3, [r6, #56]
 1045              	.LVL118:
 1046 0010 10EA0305 		ands	r5, r0, r3
 1047 0014 0ED1     		bne	.L59
 1048              		.loc 1 496 0
 1049 0016 21B9     		cbnz	r1, .L60
 1050              	.LBB32:
 1051              		.loc 1 497 0
 1052 0018 2B46     		mov	r3, r5
 1053              	.LVL119:
 1054              	@ 497 "../chibios_2.6.3/os/kernel/src/chevents.c" 1
 1055 001a 83F31188 		msr     BASEPRI, r3
 1056              	@ 0 "" 2
 1057              	.LVL120:
ARM GAS  C:\DOCUME~1\z_80\LOCALS~1\Temp\cc2zov4R.s 			page 20


 1058              		.thumb
 1059              	.LBE32:
 1060              		.loc 1 511 0
 1061 001e 2846     		mov	r0, r5
 1062              	.LVL121:
 1063 0020 70BD     		pop	{r4, r5, r6, pc}
 1064              	.LVL122:
 1065              	.L60:
 1066              		.loc 1 500 0
 1067 0022 7062     		str	r0, [r6, #36]
 1068              		.loc 1 501 0
 1069 0024 0820     		movs	r0, #8
 1070 0026 FFF7FEFF 		bl	chSchGoSleepTimeoutS
 1071              	.LVL123:
 1072 002a 0028     		cmp	r0, #0
 1073 002c 0ADB     		blt	.L63
 1074              		.loc 1 505 0
 1075 002e B36B     		ldr	r3, [r6, #56]
 1076 0030 04EA0305 		and	r5, r4, r3
 1077              	.LVL124:
 1078              	.L59:
 1079              		.loc 1 507 0
 1080 0034 23EA0500 		bic	r0, r3, r5
 1081 0038 B063     		str	r0, [r6, #56]
 1082              	.LBB33:
 1083              		.loc 1 509 0
 1084 003a 0023     		movs	r3, #0
 1085              	.LVL125:
 1086              	@ 509 "../chibios_2.6.3/os/kernel/src/chevents.c" 1
 1087 003c 83F31188 		msr     BASEPRI, r3
 1088              	@ 0 "" 2
 1089              	.LVL126:
 1090              		.thumb
 1091              	.L61:
 1092              	.LBE33:
 1093              		.loc 1 511 0
 1094 0040 2846     		mov	r0, r5
 1095 0042 70BD     		pop	{r4, r5, r6, pc}
 1096              	.LVL127:
 1097              	.L63:
 1098              	.LBB34:
 1099              		.loc 1 502 0
 1100 0044 2B46     		mov	r3, r5
 1101              	@ 502 "../chibios_2.6.3/os/kernel/src/chevents.c" 1
 1102 0046 83F31188 		msr     BASEPRI, r3
 1103              	@ 0 "" 2
 1104              	.LVL128:
 1105              		.thumb
 1106              	.LBE34:
 1107              		.loc 1 503 0
 1108 004a F9E7     		b	.L61
 1109              	.L65:
 1110              		.align	2
 1111              	.L64:
 1112 004c 00000000 		.word	rlist
 1113              		.cfi_endproc
 1114              	.LFE22:
ARM GAS  C:\DOCUME~1\z_80\LOCALS~1\Temp\cc2zov4R.s 			page 21


 1115              		.size	chEvtWaitAnyTimeout, .-chEvtWaitAnyTimeout
 1116              		.section	.text.chEvtWaitAllTimeout,"ax",%progbits
 1117              		.align	2
 1118              		.p2align 4,,15
 1119              		.global	chEvtWaitAllTimeout
 1120              		.thumb
 1121              		.thumb_func
 1122              		.type	chEvtWaitAllTimeout, %function
 1123              	chEvtWaitAllTimeout:
 1124              	.LFB23:
 1125              		.loc 1 530 0
 1126              		.cfi_startproc
 1127              		@ args = 0, pretend = 0, frame = 0
 1128              		@ frame_needed = 0, uses_anonymous_args = 0
 1129              	.LVL129:
 1130 0000 38B5     		push	{r3, r4, r5, lr}
 1131              	.LCFI12:
 1132              		.cfi_def_cfa_offset 16
 1133              		.loc 1 531 0
 1134 0002 124B     		ldr	r3, .L71
 1135              		.cfi_offset 14, -4
 1136              		.cfi_offset 5, -8
 1137              		.cfi_offset 4, -12
 1138              		.cfi_offset 3, -16
 1139              		.loc 1 530 0
 1140 0004 0446     		mov	r4, r0
 1141              		.loc 1 531 0
 1142 0006 9D69     		ldr	r5, [r3, #24]
 1143              	.LVL130:
 1144              	.LBB35:
 1145              		.loc 1 533 0
 1146 0008 2023     		movs	r3, #32
 1147              	.LVL131:
 1148              	@ 533 "../chibios_2.6.3/os/kernel/src/chevents.c" 1
 1149 000a 83F31188 		msr     BASEPRI, r3
 1150              	@ 0 "" 2
 1151              	.LVL132:
 1152              		.thumb
 1153              	.LBE35:
 1154              		.loc 1 535 0
 1155 000e AB6B     		ldr	r3, [r5, #56]
 1156              	.LVL133:
 1157 0010 1840     		ands	r0, r0, r3
 1158              	.LVL134:
 1159 0012 A042     		cmp	r0, r4
 1160 0014 0DD0     		beq	.L67
 1161              		.loc 1 536 0
 1162 0016 29B9     		cbnz	r1, .L68
 1163              	.LBB36:
 1164              		.loc 1 537 0
 1165 0018 0B46     		mov	r3, r1
 1166              	.LVL135:
 1167              	@ 537 "../chibios_2.6.3/os/kernel/src/chevents.c" 1
 1168 001a 83F31188 		msr     BASEPRI, r3
 1169              	@ 0 "" 2
 1170              	.LVL136:
 1171              		.thumb
ARM GAS  C:\DOCUME~1\z_80\LOCALS~1\Temp\cc2zov4R.s 			page 22


 1172              	.LBE36:
 1173              		.loc 1 538 0
 1174 001e 0C46     		mov	r4, r1
 1175              	.LVL137:
 1176              		.loc 1 550 0
 1177 0020 2046     		mov	r0, r4
 1178 0022 38BD     		pop	{r3, r4, r5, pc}
 1179              	.LVL138:
 1180              	.L68:
 1181              		.loc 1 541 0
 1182 0024 0920     		movs	r0, #9
 1183              		.loc 1 540 0
 1184 0026 6C62     		str	r4, [r5, #36]
 1185              		.loc 1 541 0
 1186 0028 FFF7FEFF 		bl	chSchGoSleepTimeoutS
 1187              	.LVL139:
 1188 002c 0028     		cmp	r0, #0
 1189 002e 08DB     		blt	.L70
 1190 0030 AB6B     		ldr	r3, [r5, #56]
 1191              	.L67:
 1192              		.loc 1 546 0
 1193 0032 23EA0401 		bic	r1, r3, r4
 1194 0036 A963     		str	r1, [r5, #56]
 1195              	.LBB37:
 1196              		.loc 1 548 0
 1197 0038 0023     		movs	r3, #0
 1198              	.LVL140:
 1199              	@ 548 "../chibios_2.6.3/os/kernel/src/chevents.c" 1
 1200 003a 83F31188 		msr     BASEPRI, r3
 1201              	@ 0 "" 2
 1202              	.LVL141:
 1203              		.thumb
 1204              	.L69:
 1205              	.LBE37:
 1206              		.loc 1 550 0
 1207 003e 2046     		mov	r0, r4
 1208 0040 38BD     		pop	{r3, r4, r5, pc}
 1209              	.LVL142:
 1210              	.L70:
 1211              	.LBB38:
 1212              		.loc 1 542 0
 1213 0042 0023     		movs	r3, #0
 1214              	@ 542 "../chibios_2.6.3/os/kernel/src/chevents.c" 1
 1215 0044 83F31188 		msr     BASEPRI, r3
 1216              	@ 0 "" 2
 1217              	.LVL143:
 1218              		.thumb
 1219              	.LBE38:
 1220              		.loc 1 543 0
 1221 0048 1C46     		mov	r4, r3
 1222              	.LVL144:
 1223 004a F8E7     		b	.L69
 1224              	.L72:
 1225              		.align	2
 1226              	.L71:
 1227 004c 00000000 		.word	rlist
 1228              		.cfi_endproc
ARM GAS  C:\DOCUME~1\z_80\LOCALS~1\Temp\cc2zov4R.s 			page 23


 1229              	.LFE23:
 1230              		.size	chEvtWaitAllTimeout, .-chEvtWaitAllTimeout
 1231              		.text
 1232              	.Letext0: