ARM GAS  C:\DOCUME~1\z_80\LOCALS~1\Temp\cc9g9h1M.s 			page 1


   1              		.syntax unified
   2              		.cpu cortex-m3
   3              		.fpu softvfp
   4              		.eabi_attribute 20, 1
   5              		.eabi_attribute 21, 1
   6              		.eabi_attribute 23, 3
   7              		.eabi_attribute 24, 1
   8              		.eabi_attribute 25, 1
   9              		.eabi_attribute 26, 1
  10              		.eabi_attribute 30, 2
  11              		.eabi_attribute 18, 4
  12              		.thumb
  13              		.file	"chmboxes.c"
  20 0000 91020000 		.text
  20      02005E01 
  20      00000201 
  20      FB0E0D00 
  20      01010101 
  21              	.Ltext0:
  22              		.cfi_sections	.debug_frame
  23              		.section	.text.chMBInit,"ax",%progbits
  24              		.align	2
  25              		.p2align 4,,15
  26              		.global	chMBInit
  27              		.thumb
  28              		.thumb_func
  29              		.type	chMBInit, %function
  30              	chMBInit:
  31              	.LFB7:
  32              		.file 1 "../chibios_2.6.3/os/kernel/src/chmboxes.c"
  33              		.loc 1 72 0
  34              		.cfi_startproc
  35              		@ args = 0, pretend = 0, frame = 0
  36              		@ frame_needed = 0, uses_anonymous_args = 0
  37              	.LVL0:
  38 0000 70B5     		push	{r4, r5, r6, lr}
  39              	.LCFI0:
  40              		.cfi_def_cfa_offset 16
  41              		.loc 1 72 0
  42 0002 0B46     		mov	r3, r1
  43 0004 0446     		mov	r4, r0
  44              		.cfi_offset 14, -4
  45              		.cfi_offset 6, -8
  46              		.cfi_offset 5, -12
  47              		.cfi_offset 4, -16
  48              		.loc 1 77 0
  49 0006 01EB8205 		add	r5, r1, r2, lsl #2
  50              		.loc 1 78 0
  51 000a 1C30     		adds	r0, r0, #28
  52              	.LVL1:
  53 000c 1146     		mov	r1, r2
ARM GAS  C:\DOCUME~1\z_80\LOCALS~1\Temp\cc9g9h1M.s 			page 2


  54              	.LVL2:
  55              		.loc 1 76 0
  56 000e E360     		str	r3, [r4, #12]
  57 0010 A360     		str	r3, [r4, #8]
  58 0012 2360     		str	r3, [r4, #0]
  59              		.loc 1 77 0
  60 0014 6560     		str	r5, [r4, #4]
  61              		.loc 1 78 0
  62 0016 FFF7FEFF 		bl	chSemInit
  63              	.LVL3:
  64              		.loc 1 79 0
  65 001a 04F11000 		add	r0, r4, #16
  66 001e 0021     		movs	r1, #0
  67              		.loc 1 80 0
  68 0020 BDE87040 		pop	{r4, r5, r6, lr}
  69              		.loc 1 79 0
  70 0024 FFF7FEBF 		b	chSemInit
  71              		.cfi_endproc
  72              	.LFE7:
  73              		.size	chMBInit, .-chMBInit
  74 0028 AFF30080 		.section	.text.chMBReset,"ax",%progbits
  74      AFF30080 
  75              		.align	2
  76              		.p2align 4,,15
  77              		.global	chMBReset
  78              		.thumb
  79              		.thumb_func
  80              		.type	chMBReset, %function
  81              	chMBReset:
  82              	.LFB8:
  83              		.loc 1 91 0
  84              		.cfi_startproc
  85              		@ args = 0, pretend = 0, frame = 0
  86              		@ frame_needed = 0, uses_anonymous_args = 0
  87              	.LVL4:
  88 0000 10B5     		push	{r4, lr}
  89              	.LCFI1:
  90              		.cfi_def_cfa_offset 8
  91              	.LBB2:
  92              		.loc 1 95 0
  93 0002 2023     		movs	r3, #32
  94              	.LVL5:
  95              	.LBE2:
  96              		.loc 1 91 0
  97 0004 0446     		mov	r4, r0
  98              		.cfi_offset 14, -4
  99              		.cfi_offset 4, -8
 100              	.LBB3:
 101              		.loc 1 95 0
 102              	@ 95 "../chibios_2.6.3/os/kernel/src/chmboxes.c" 1
 103 0006 83F31188 		msr     BASEPRI, r3
 104              	@ 0 "" 2
 105              	.LVL6:
 106              		.thumb
 107              	.LBE3:
 108              		.loc 1 96 0
 109 000a 0368     		ldr	r3, [r0, #0]
ARM GAS  C:\DOCUME~1\z_80\LOCALS~1\Temp\cc9g9h1M.s 			page 3


 110              	.LVL7:
 111              		.loc 1 97 0
 112 000c 4268     		ldr	r2, [r0, #4]
 113              		.loc 1 96 0
 114 000e E360     		str	r3, [r4, #12]
 115              		.loc 1 97 0
 116 0010 D11A     		subs	r1, r2, r3
 117              		.loc 1 96 0
 118 0012 A360     		str	r3, [r4, #8]
 119              		.loc 1 97 0
 120 0014 1C30     		adds	r0, r0, #28
 121              	.LVL8:
 122 0016 8910     		asrs	r1, r1, #2
 123 0018 FFF7FEFF 		bl	chSemResetI
 124              		.loc 1 98 0
 125 001c 04F11000 		add	r0, r4, #16
 126 0020 0021     		movs	r1, #0
 127 0022 FFF7FEFF 		bl	chSemResetI
 128              		.loc 1 99 0
 129 0026 FFF7FEFF 		bl	chSchRescheduleS
 130              	.LBB4:
 131              		.loc 1 100 0
 132 002a 0023     		movs	r3, #0
 133              	.LVL9:
 134              	@ 100 "../chibios_2.6.3/os/kernel/src/chmboxes.c" 1
 135 002c 83F31188 		msr     BASEPRI, r3
 136              	@ 0 "" 2
 137              	.LVL10:
 138              		.thumb
 139              	.LBE4:
 140              		.loc 1 101 0
 141 0030 10BD     		pop	{r4, pc}
 142              		.cfi_endproc
 143              	.LFE8:
 144              		.size	chMBReset, .-chMBReset
 145 0032 00BFAFF3 		.section	.text.chMBPostS,"ax",%progbits
 145      0080AFF3 
 145      0080AFF3 
 145      0080
 146              		.align	2
 147              		.p2align 4,,15
 148              		.global	chMBPostS
 149              		.thumb
 150              		.thumb_func
 151              		.type	chMBPostS, %function
 152              	chMBPostS:
 153              	.LFB10:
 154              		.loc 1 150 0
 155              		.cfi_startproc
 156              		@ args = 0, pretend = 0, frame = 0
 157              		@ frame_needed = 0, uses_anonymous_args = 0
 158              	.LVL11:
 159 0000 70B5     		push	{r4, r5, r6, lr}
 160              	.LCFI2:
 161              		.cfi_def_cfa_offset 16
 162              		.loc 1 150 0
 163 0002 0446     		mov	r4, r0
ARM GAS  C:\DOCUME~1\z_80\LOCALS~1\Temp\cc9g9h1M.s 			page 4


 164              		.cfi_offset 14, -4
 165              		.cfi_offset 6, -8
 166              		.cfi_offset 5, -12
 167              		.cfi_offset 4, -16
 168 0004 0D46     		mov	r5, r1
 169              		.loc 1 156 0
 170 0006 1C30     		adds	r0, r0, #28
 171              	.LVL12:
 172 0008 1146     		mov	r1, r2
 173              	.LVL13:
 174 000a FFF7FEFF 		bl	chSemWaitTimeoutS
 175              	.LVL14:
 176              		.loc 1 157 0
 177 000e 0646     		mov	r6, r0
 178 0010 78B9     		cbnz	r0, .L4
 179              		.loc 1 158 0
 180 0012 A368     		ldr	r3, [r4, #8]
 181              		.loc 1 159 0
 182 0014 6268     		ldr	r2, [r4, #4]
 183              		.loc 1 158 0
 184 0016 43F8045B 		str	r5, [r3], #4
 185              		.loc 1 159 0
 186 001a 9342     		cmp	r3, r2
 187              		.loc 1 158 0
 188 001c A360     		str	r3, [r4, #8]
 189              		.loc 1 160 0
 190 001e 28BF     		it	cs
 191 0020 2368     		ldrcs	r3, [r4, #0]
 192              		.loc 1 161 0
 193 0022 04F11000 		add	r0, r4, #16
 194              	.LVL15:
 195              		.loc 1 160 0
 196 0026 28BF     		it	cs
 197 0028 A360     		strcs	r3, [r4, #8]
 198              		.loc 1 161 0
 199 002a FFF7FEFF 		bl	chSemSignalI
 200              		.loc 1 162 0
 201 002e FFF7FEFF 		bl	chSchRescheduleS
 202              	.L4:
 203              		.loc 1 165 0
 204 0032 3046     		mov	r0, r6
 205 0034 70BD     		pop	{r4, r5, r6, pc}
 206              		.cfi_endproc
 207              	.LFE10:
 208              		.size	chMBPostS, .-chMBPostS
 209 0036 00BFAFF3 		.section	.text.chMBPost,"ax",%progbits
 209      0080AFF3 
 209      0080
 210              		.align	2
 211              		.p2align 4,,15
 212              		.global	chMBPost
 213              		.thumb
 214              		.thumb_func
 215              		.type	chMBPost, %function
 216              	chMBPost:
 217              	.LFB9:
 218              		.loc 1 122 0
ARM GAS  C:\DOCUME~1\z_80\LOCALS~1\Temp\cc9g9h1M.s 			page 5


 219              		.cfi_startproc
 220              		@ args = 0, pretend = 0, frame = 0
 221              		@ frame_needed = 0, uses_anonymous_args = 0
 222              	.LVL16:
 223 0000 08B5     		push	{r3, lr}
 224              	.LCFI3:
 225              		.cfi_def_cfa_offset 8
 226              	.LBB5:
 227              		.loc 1 125 0
 228 0002 2023     		movs	r3, #32
 229              		.cfi_offset 14, -4
 230              		.cfi_offset 3, -8
 231              	.LVL17:
 232              	@ 125 "../chibios_2.6.3/os/kernel/src/chmboxes.c" 1
 233 0004 83F31188 		msr     BASEPRI, r3
 234              	@ 0 "" 2
 235              	.LVL18:
 236              		.thumb
 237              	.LBE5:
 238              		.loc 1 126 0
 239 0008 FFF7FEFF 		bl	chMBPostS
 240              	.LVL19:
 241              	.LBB6:
 242              		.loc 1 127 0
 243 000c 0023     		movs	r3, #0
 244              	.LVL20:
 245              	@ 127 "../chibios_2.6.3/os/kernel/src/chmboxes.c" 1
 246 000e 83F31188 		msr     BASEPRI, r3
 247              	@ 0 "" 2
 248              	.LVL21:
 249              		.thumb
 250              	.LBE6:
 251              		.loc 1 129 0
 252 0012 08BD     		pop	{r3, pc}
 253              		.cfi_endproc
 254              	.LFE9:
 255              		.size	chMBPost, .-chMBPost
 256 0014 AFF30080 		.section	.text.chMBPostI,"ax",%progbits
 256      AFF30080 
 256      AFF30080 
 257              		.align	2
 258              		.p2align 4,,15
 259              		.global	chMBPostI
 260              		.thumb
 261              		.thumb_func
 262              		.type	chMBPostI, %function
 263              	chMBPostI:
 264              	.LFB11:
 265              		.loc 1 181 0
 266              		.cfi_startproc
 267              		@ args = 0, pretend = 0, frame = 0
 268              		@ frame_needed = 0, uses_anonymous_args = 0
 269              	.LVL22:
 270              		.loc 1 186 0
 271 0000 436A     		ldr	r3, [r0, #36]
 272              		.loc 1 181 0
 273 0002 10B5     		push	{r4, lr}
ARM GAS  C:\DOCUME~1\z_80\LOCALS~1\Temp\cc9g9h1M.s 			page 6


 274              	.LCFI4:
 275              		.cfi_def_cfa_offset 8
 276              		.loc 1 186 0
 277 0004 002B     		cmp	r3, #0
 278 0006 10DD     		ble	.L11
 279              		.cfi_offset 14, -4
 280              		.cfi_offset 4, -8
 281              		.loc 1 189 0
 282 0008 8268     		ldr	r2, [r0, #8]
 283              		.loc 1 188 0
 284 000a 013B     		subs	r3, r3, #1
 285              		.loc 1 190 0
 286 000c 4468     		ldr	r4, [r0, #4]
 287              		.loc 1 188 0
 288 000e 4362     		str	r3, [r0, #36]
 289              		.loc 1 189 0
 290 0010 42F8041B 		str	r1, [r2], #4
 291              		.loc 1 190 0
 292 0014 A242     		cmp	r2, r4
 293              		.loc 1 191 0
 294 0016 28BF     		it	cs
 295 0018 0368     		ldrcs	r3, [r0, #0]
 296              		.loc 1 189 0
 297 001a 8260     		str	r2, [r0, #8]
 298              		.loc 1 191 0
 299 001c 28BF     		it	cs
 300 001e 8360     		strcs	r3, [r0, #8]
 301              		.loc 1 192 0
 302 0020 1030     		adds	r0, r0, #16
 303              	.LVL23:
 304 0022 FFF7FEFF 		bl	chSemSignalI
 305              	.LVL24:
 306              		.loc 1 193 0
 307 0026 0020     		movs	r0, #0
 308 0028 10BD     		pop	{r4, pc}
 309              	.LVL25:
 310              	.L11:
 311              		.loc 1 187 0
 312 002a 4FF0FF30 		mov	r0, #-1
 313              	.LVL26:
 314              		.loc 1 194 0
 315 002e 10BD     		pop	{r4, pc}
 316              		.cfi_endproc
 317              	.LFE11:
 318              		.size	chMBPostI, .-chMBPostI
 319              		.section	.text.chMBPostAheadS,"ax",%progbits
 320              		.align	2
 321              		.p2align 4,,15
 322              		.global	chMBPostAheadS
 323              		.thumb
 324              		.thumb_func
 325              		.type	chMBPostAheadS, %function
 326              	chMBPostAheadS:
 327              	.LFB13:
 328              		.loc 1 243 0
 329              		.cfi_startproc
 330              		@ args = 0, pretend = 0, frame = 0
ARM GAS  C:\DOCUME~1\z_80\LOCALS~1\Temp\cc9g9h1M.s 			page 7


 331              		@ frame_needed = 0, uses_anonymous_args = 0
 332              	.LVL27:
 333 0000 70B5     		push	{r4, r5, r6, lr}
 334              	.LCFI5:
 335              		.cfi_def_cfa_offset 16
 336              		.loc 1 243 0
 337 0002 0446     		mov	r4, r0
 338              		.cfi_offset 14, -4
 339              		.cfi_offset 6, -8
 340              		.cfi_offset 5, -12
 341              		.cfi_offset 4, -16
 342 0004 0D46     		mov	r5, r1
 343              		.loc 1 249 0
 344 0006 1C30     		adds	r0, r0, #28
 345              	.LVL28:
 346 0008 1146     		mov	r1, r2
 347              	.LVL29:
 348 000a FFF7FEFF 		bl	chSemWaitTimeoutS
 349              	.LVL30:
 350              		.loc 1 250 0
 351 000e 0646     		mov	r6, r0
 352 0010 60B9     		cbnz	r0, .L13
 353              		.loc 1 251 0
 354 0012 E368     		ldr	r3, [r4, #12]
 355 0014 2268     		ldr	r2, [r4, #0]
 356 0016 043B     		subs	r3, r3, #4
 357 0018 9342     		cmp	r3, r2
 358 001a E360     		str	r3, [r4, #12]
 359 001c 08D3     		bcc	.L15
 360              	.LVL31:
 361              	.L14:
 362              		.loc 1 254 0
 363 001e 04F11000 		add	r0, r4, #16
 364              		.loc 1 253 0
 365 0022 1D60     		str	r5, [r3, #0]
 366              		.loc 1 254 0
 367 0024 FFF7FEFF 		bl	chSemSignalI
 368              		.loc 1 255 0
 369 0028 FFF7FEFF 		bl	chSchRescheduleS
 370              	.L13:
 371              		.loc 1 258 0
 372 002c 3046     		mov	r0, r6
 373 002e 70BD     		pop	{r4, r5, r6, pc}
 374              	.L15:
 375              		.loc 1 252 0
 376 0030 6068     		ldr	r0, [r4, #4]
 377 0032 031F     		subs	r3, r0, #4
 378 0034 E360     		str	r3, [r4, #12]
 379 0036 F2E7     		b	.L14
 380              		.cfi_endproc
 381              	.LFE13:
 382              		.size	chMBPostAheadS, .-chMBPostAheadS
 383 0038 AFF30080 		.section	.text.chMBPostAhead,"ax",%progbits
 383      AFF30080 
 384              		.align	2
 385              		.p2align 4,,15
 386              		.global	chMBPostAhead
ARM GAS  C:\DOCUME~1\z_80\LOCALS~1\Temp\cc9g9h1M.s 			page 8


 387              		.thumb
 388              		.thumb_func
 389              		.type	chMBPostAhead, %function
 390              	chMBPostAhead:
 391              	.LFB12:
 392              		.loc 1 215 0
 393              		.cfi_startproc
 394              		@ args = 0, pretend = 0, frame = 0
 395              		@ frame_needed = 0, uses_anonymous_args = 0
 396              	.LVL32:
 397 0000 08B5     		push	{r3, lr}
 398              	.LCFI6:
 399              		.cfi_def_cfa_offset 8
 400              	.LBB7:
 401              		.loc 1 218 0
 402 0002 2023     		movs	r3, #32
 403              		.cfi_offset 14, -4
 404              		.cfi_offset 3, -8
 405              	.LVL33:
 406              	@ 218 "../chibios_2.6.3/os/kernel/src/chmboxes.c" 1
 407 0004 83F31188 		msr     BASEPRI, r3
 408              	@ 0 "" 2
 409              	.LVL34:
 410              		.thumb
 411              	.LBE7:
 412              		.loc 1 219 0
 413 0008 FFF7FEFF 		bl	chMBPostAheadS
 414              	.LVL35:
 415              	.LBB8:
 416              		.loc 1 220 0
 417 000c 0023     		movs	r3, #0
 418              	.LVL36:
 419              	@ 220 "../chibios_2.6.3/os/kernel/src/chmboxes.c" 1
 420 000e 83F31188 		msr     BASEPRI, r3
 421              	@ 0 "" 2
 422              	.LVL37:
 423              		.thumb
 424              	.LBE8:
 425              		.loc 1 222 0
 426 0012 08BD     		pop	{r3, pc}
 427              		.cfi_endproc
 428              	.LFE12:
 429              		.size	chMBPostAhead, .-chMBPostAhead
 430 0014 AFF30080 		.section	.text.chMBPostAheadI,"ax",%progbits
 430      AFF30080 
 430      AFF30080 
 431              		.align	2
 432              		.p2align 4,,15
 433              		.global	chMBPostAheadI
 434              		.thumb
 435              		.thumb_func
 436              		.type	chMBPostAheadI, %function
 437              	chMBPostAheadI:
 438              	.LFB14:
 439              		.loc 1 274 0
 440              		.cfi_startproc
 441              		@ args = 0, pretend = 0, frame = 0
ARM GAS  C:\DOCUME~1\z_80\LOCALS~1\Temp\cc9g9h1M.s 			page 9


 442              		@ frame_needed = 0, uses_anonymous_args = 0
 443              	.LVL38:
 444              		.loc 1 279 0
 445 0000 436A     		ldr	r3, [r0, #36]
 446              		.loc 1 274 0
 447 0002 10B5     		push	{r4, lr}
 448              	.LCFI7:
 449              		.cfi_def_cfa_offset 8
 450              		.loc 1 279 0
 451 0004 002B     		cmp	r3, #0
 452 0006 10DD     		ble	.L20
 453              		.cfi_offset 14, -4
 454              		.cfi_offset 4, -8
 455              		.loc 1 282 0
 456 0008 C268     		ldr	r2, [r0, #12]
 457 000a 0468     		ldr	r4, [r0, #0]
 458 000c 043A     		subs	r2, r2, #4
 459              		.loc 1 281 0
 460 000e 013B     		subs	r3, r3, #1
 461              		.loc 1 282 0
 462 0010 A242     		cmp	r2, r4
 463              		.loc 1 281 0
 464 0012 4362     		str	r3, [r0, #36]
 465              		.loc 1 282 0
 466 0014 C260     		str	r2, [r0, #12]
 467 0016 02D2     		bcs	.L19
 468              		.loc 1 283 0
 469 0018 4368     		ldr	r3, [r0, #4]
 470 001a 1A1F     		subs	r2, r3, #4
 471 001c C260     		str	r2, [r0, #12]
 472              	.L19:
 473              		.loc 1 285 0
 474 001e 1030     		adds	r0, r0, #16
 475              	.LVL39:
 476              		.loc 1 284 0
 477 0020 1160     		str	r1, [r2, #0]
 478              		.loc 1 285 0
 479 0022 FFF7FEFF 		bl	chSemSignalI
 480              	.LVL40:
 481              		.loc 1 286 0
 482 0026 0020     		movs	r0, #0
 483 0028 10BD     		pop	{r4, pc}
 484              	.LVL41:
 485              	.L20:
 486              		.loc 1 280 0
 487 002a 4FF0FF30 		mov	r0, #-1
 488              	.LVL42:
 489              		.loc 1 287 0
 490 002e 10BD     		pop	{r4, pc}
 491              		.cfi_endproc
 492              	.LFE14:
 493              		.size	chMBPostAheadI, .-chMBPostAheadI
 494              		.section	.text.chMBFetchS,"ax",%progbits
 495              		.align	2
 496              		.p2align 4,,15
 497              		.global	chMBFetchS
 498              		.thumb
ARM GAS  C:\DOCUME~1\z_80\LOCALS~1\Temp\cc9g9h1M.s 			page 10


 499              		.thumb_func
 500              		.type	chMBFetchS, %function
 501              	chMBFetchS:
 502              	.LFB16:
 503              		.loc 1 336 0
 504              		.cfi_startproc
 505              		@ args = 0, pretend = 0, frame = 0
 506              		@ frame_needed = 0, uses_anonymous_args = 0
 507              	.LVL43:
 508 0000 70B5     		push	{r4, r5, r6, lr}
 509              	.LCFI8:
 510              		.cfi_def_cfa_offset 16
 511              		.loc 1 336 0
 512 0002 0446     		mov	r4, r0
 513              		.cfi_offset 14, -4
 514              		.cfi_offset 6, -8
 515              		.cfi_offset 5, -12
 516              		.cfi_offset 4, -16
 517 0004 0D46     		mov	r5, r1
 518              		.loc 1 342 0
 519 0006 1030     		adds	r0, r0, #16
 520              	.LVL44:
 521 0008 1146     		mov	r1, r2
 522              	.LVL45:
 523 000a FFF7FEFF 		bl	chSemWaitTimeoutS
 524              	.LVL46:
 525              		.loc 1 343 0
 526 000e 0646     		mov	r6, r0
 527 0010 78B9     		cbnz	r0, .L22
 528              		.loc 1 344 0
 529 0012 E368     		ldr	r3, [r4, #12]
 530              		.loc 1 345 0
 531 0014 6268     		ldr	r2, [r4, #4]
 532              		.loc 1 344 0
 533 0016 53F8041B 		ldr	r1, [r3], #4
 534              		.loc 1 347 0
 535 001a 04F11C00 		add	r0, r4, #28
 536              	.LVL47:
 537              		.loc 1 345 0
 538 001e 9342     		cmp	r3, r2
 539              		.loc 1 344 0
 540 0020 2960     		str	r1, [r5, #0]
 541 0022 E360     		str	r3, [r4, #12]
 542              		.loc 1 346 0
 543 0024 24BF     		itt	cs
 544 0026 2368     		ldrcs	r3, [r4, #0]
 545 0028 E360     		strcs	r3, [r4, #12]
 546              		.loc 1 347 0
 547 002a FFF7FEFF 		bl	chSemSignalI
 548              		.loc 1 348 0
 549 002e FFF7FEFF 		bl	chSchRescheduleS
 550              	.L22:
 551              		.loc 1 351 0
 552 0032 3046     		mov	r0, r6
 553 0034 70BD     		pop	{r4, r5, r6, pc}
 554              		.cfi_endproc
 555              	.LFE16:
ARM GAS  C:\DOCUME~1\z_80\LOCALS~1\Temp\cc9g9h1M.s 			page 11


 556              		.size	chMBFetchS, .-chMBFetchS
 557 0036 00BFAFF3 		.section	.text.chMBFetch,"ax",%progbits
 557      0080AFF3 
 557      0080
 558              		.align	2
 559              		.p2align 4,,15
 560              		.global	chMBFetch
 561              		.thumb
 562              		.thumb_func
 563              		.type	chMBFetch, %function
 564              	chMBFetch:
 565              	.LFB15:
 566              		.loc 1 308 0
 567              		.cfi_startproc
 568              		@ args = 0, pretend = 0, frame = 0
 569              		@ frame_needed = 0, uses_anonymous_args = 0
 570              	.LVL48:
 571 0000 08B5     		push	{r3, lr}
 572              	.LCFI9:
 573              		.cfi_def_cfa_offset 8
 574              	.LBB9:
 575              		.loc 1 311 0
 576 0002 2023     		movs	r3, #32
 577              		.cfi_offset 14, -4
 578              		.cfi_offset 3, -8
 579              	.LVL49:
 580              	@ 311 "../chibios_2.6.3/os/kernel/src/chmboxes.c" 1
 581 0004 83F31188 		msr     BASEPRI, r3
 582              	@ 0 "" 2
 583              	.LVL50:
 584              		.thumb
 585              	.LBE9:
 586              		.loc 1 312 0
 587 0008 FFF7FEFF 		bl	chMBFetchS
 588              	.LVL51:
 589              	.LBB10:
 590              		.loc 1 313 0
 591 000c 0023     		movs	r3, #0
 592              	.LVL52:
 593              	@ 313 "../chibios_2.6.3/os/kernel/src/chmboxes.c" 1
 594 000e 83F31188 		msr     BASEPRI, r3
 595              	@ 0 "" 2
 596              	.LVL53:
 597              		.thumb
 598              	.LBE10:
 599              		.loc 1 315 0
 600 0012 08BD     		pop	{r3, pc}
 601              		.cfi_endproc
 602              	.LFE15:
 603              		.size	chMBFetch, .-chMBFetch
 604 0014 AFF30080 		.section	.text.chMBFetchI,"ax",%progbits
 604      AFF30080 
 604      AFF30080 
 605              		.align	2
 606              		.p2align 4,,15
 607              		.global	chMBFetchI
 608              		.thumb
ARM GAS  C:\DOCUME~1\z_80\LOCALS~1\Temp\cc9g9h1M.s 			page 12


 609              		.thumb_func
 610              		.type	chMBFetchI, %function
 611              	chMBFetchI:
 612              	.LFB17:
 613              		.loc 1 367 0
 614              		.cfi_startproc
 615              		@ args = 0, pretend = 0, frame = 0
 616              		@ frame_needed = 0, uses_anonymous_args = 0
 617              	.LVL54:
 618              		.loc 1 372 0
 619 0000 8369     		ldr	r3, [r0, #24]
 620              		.loc 1 367 0
 621 0002 10B5     		push	{r4, lr}
 622              	.LCFI10:
 623              		.cfi_def_cfa_offset 8
 624              		.loc 1 372 0
 625 0004 002B     		cmp	r3, #0
 626 0006 11DD     		ble	.L28
 627              		.cfi_offset 14, -4
 628              		.cfi_offset 4, -8
 629              		.loc 1 375 0
 630 0008 C268     		ldr	r2, [r0, #12]
 631              		.loc 1 374 0
 632 000a 5C1E     		subs	r4, r3, #1
 633 000c 8461     		str	r4, [r0, #24]
 634              		.loc 1 376 0
 635 000e 4368     		ldr	r3, [r0, #4]
 636              		.loc 1 375 0
 637 0010 52F8044B 		ldr	r4, [r2], #4
 638              		.loc 1 376 0
 639 0014 9A42     		cmp	r2, r3
 640              		.loc 1 377 0
 641 0016 28BF     		it	cs
 642 0018 0368     		ldrcs	r3, [r0, #0]
 643              		.loc 1 375 0
 644 001a 0C60     		str	r4, [r1, #0]
 645 001c C260     		str	r2, [r0, #12]
 646              		.loc 1 377 0
 647 001e 28BF     		it	cs
 648 0020 C360     		strcs	r3, [r0, #12]
 649              		.loc 1 378 0
 650 0022 1C30     		adds	r0, r0, #28
 651              	.LVL55:
 652 0024 FFF7FEFF 		bl	chSemSignalI
 653              	.LVL56:
 654              		.loc 1 379 0
 655 0028 0020     		movs	r0, #0
 656 002a 10BD     		pop	{r4, pc}
 657              	.LVL57:
 658              	.L28:
 659              		.loc 1 373 0
 660 002c 4FF0FF30 		mov	r0, #-1
 661              	.LVL58:
 662              		.loc 1 380 0
 663 0030 10BD     		pop	{r4, pc}
 664              		.cfi_endproc
 665              	.LFE17:
ARM GAS  C:\DOCUME~1\z_80\LOCALS~1\Temp\cc9g9h1M.s 			page 13


 666              		.size	chMBFetchI, .-chMBFetchI
 667 0032 00BFAFF3 		.text
 667      0080AFF3 
 667      0080AFF3 
 667      0080
 668              	.Letext0: