ARM GAS  C:\DOCUME~1\z_80\LOCALS~1\Temp\ccXj207y.s 			page 1


   1              		.syntax unified
   2              		.cpu cortex-m3
   3              		.fpu softvfp
   4              		.eabi_attribute 20, 1
   5              		.eabi_attribute 21, 1
   6              		.eabi_attribute 23, 3
   7              		.eabi_attribute 24, 1
   8              		.eabi_attribute 25, 1
   9              		.eabi_attribute 26, 1
  10              		.eabi_attribute 30, 2
  11              		.eabi_attribute 18, 4
  12              		.thumb
  13              		.file	"chmempools.c"
  20 0000 51020000 		.text
  20      02005C01 
  20      00000201 
  20      FB0E0D00 
  20      01010101 
  21              	.Ltext0:
  22              		.cfi_sections	.debug_frame
  23              		.section	.text.chPoolInit,"ax",%progbits
  24              		.align	2
  25              		.p2align 4,,15
  26              		.global	chPoolInit
  27              		.thumb
  28              		.thumb_func
  29              		.type	chPoolInit, %function
  30              	chPoolInit:
  31              	.LFB7:
  32              		.file 1 "../chibios_2.6.3/os/kernel/src/chmempools.c"
  33              		.loc 1 62 0
  34              		.cfi_startproc
  35              		@ args = 0, pretend = 0, frame = 0
  36              		@ frame_needed = 0, uses_anonymous_args = 0
  37              		@ link register save eliminated.
  38              	.LVL0:
  39              		.loc 1 66 0
  40 0000 0023     		movs	r3, #0
  41 0002 0360     		str	r3, [r0, #0]
  42              		.loc 1 67 0
  43 0004 4160     		str	r1, [r0, #4]
  44              		.loc 1 68 0
  45 0006 8260     		str	r2, [r0, #8]
  46              		.loc 1 69 0
  47 0008 7047     		bx	lr
  48              		.cfi_endproc
  49              	.LFE7:
  50              		.size	chPoolInit, .-chPoolInit
  51 000a 00BFAFF3 		.section	.text.chPoolLoadArray,"ax",%progbits
  51      0080
  52              		.align	2
ARM GAS  C:\DOCUME~1\z_80\LOCALS~1\Temp\ccXj207y.s 			page 2


  53              		.p2align 4,,15
  54              		.global	chPoolLoadArray
  55              		.thumb
  56              		.thumb_func
  57              		.type	chPoolLoadArray, %function
  58              	chPoolLoadArray:
  59              	.LFB8:
  60              		.loc 1 84 0
  61              		.cfi_startproc
  62              		@ args = 0, pretend = 0, frame = 0
  63              		@ frame_needed = 0, uses_anonymous_args = 0
  64              		@ link register save eliminated.
  65              	.LVL1:
  66 0000 70B4     		push	{r4, r5, r6}
  67              	.LCFI0:
  68              		.cfi_def_cfa_offset 12
  69              		.loc 1 88 0
  70 0002 002A     		cmp	r2, #0
  71 0004 35D0     		beq	.L2
  72              		.cfi_offset 6, -4
  73              		.cfi_offset 5, -8
  74              		.cfi_offset 4, -12
  75 0006 013A     		subs	r2, r2, #1
  76              	.LVL2:
  77 0008 02F00105 		and	r5, r2, #1
  78              	.LVL3:
  79              	.LBB16:
  80              	.LBB34:
  81              		.loc 1 173 0
  82 000c 2023     		movs	r3, #32
  83              	.LVL4:
  84              	@ 173 "../chibios_2.6.3/os/kernel/src/chmempools.c" 1
  85 000e 83F31188 		msr     BASEPRI, r3
  86              	@ 0 "" 2
  87              	.LVL5:
  88              		.thumb
  89              	.LBE34:
  90              	.LBB25:
  91              	.LBB29:
  92              		.loc 1 155 0
  93 0012 0468     		ldr	r4, [r0, #0]
  94              	.LBE29:
  95              	.LBE25:
  96              	.LBB24:
  97              		.loc 1 175 0
  98 0014 0023     		movs	r3, #0
  99              	.LVL6:
 100              	.LBE24:
 101              	.LBB23:
 102              	.LBB30:
 103              		.loc 1 155 0
 104 0016 0C60     		str	r4, [r1, #0]
 105              		.loc 1 156 0
 106 0018 0160     		str	r1, [r0, #0]
 107              	.LBE30:
 108              	.LBE23:
 109              	.LBB22:
ARM GAS  C:\DOCUME~1\z_80\LOCALS~1\Temp\ccXj207y.s 			page 3


 110              		.loc 1 175 0
 111              	@ 175 "../chibios_2.6.3/os/kernel/src/chmempools.c" 1
 112 001a 83F31188 		msr     BASEPRI, r3
 113              	@ 0 "" 2
 114              	.LVL7:
 115              		.thumb
 116              	.LBE22:
 117              	.LBE16:
 118              		.loc 1 90 0
 119 001e 4368     		ldr	r3, [r0, #4]
 120              	.LVL8:
 121 0020 C918     		adds	r1, r1, r3
 122              	.LVL9:
 123              		.loc 1 88 0
 124 0022 32B3     		cbz	r2, .L2
 125              	.LVL10:
 126 0024 65B1     		cbz	r5, .L5
 127              	.LVL11:
 128              	.LBB45:
 129              	.LBB35:
 130              		.loc 1 173 0
 131 0026 2023     		movs	r3, #32
 132              	@ 173 "../chibios_2.6.3/os/kernel/src/chmempools.c" 1
 133 0028 83F31188 		msr     BASEPRI, r3
 134              	@ 0 "" 2
 135              	.LVL12:
 136              		.thumb
 137              	.LBE35:
 138              	.LBB36:
 139              	.LBB28:
 140              		.loc 1 155 0
 141 002c 0468     		ldr	r4, [r0, #0]
 142              	.LBE28:
 143              	.LBE36:
 144              	.LBB37:
 145              		.loc 1 175 0
 146 002e 0023     		movs	r3, #0
 147              	.LVL13:
 148              	.LBE37:
 149              	.LBB38:
 150              	.LBB31:
 151              		.loc 1 155 0
 152 0030 0C60     		str	r4, [r1, #0]
 153              		.loc 1 156 0
 154 0032 0160     		str	r1, [r0, #0]
 155              	.LBE31:
 156              	.LBE38:
 157              	.LBB39:
 158              		.loc 1 175 0
 159              	@ 175 "../chibios_2.6.3/os/kernel/src/chmempools.c" 1
 160 0034 83F31188 		msr     BASEPRI, r3
 161              	@ 0 "" 2
 162              	.LVL14:
 163              		.thumb
 164              	.LBE39:
 165              	.LBE45:
 166              		.loc 1 90 0
ARM GAS  C:\DOCUME~1\z_80\LOCALS~1\Temp\ccXj207y.s 			page 4


 167 0038 4368     		ldr	r3, [r0, #4]
 168              	.LVL15:
 169              		.loc 1 88 0
 170 003a 013A     		subs	r2, r2, #1
 171              		.loc 1 90 0
 172 003c 1944     		add	r1, r1, r3
 173              		.loc 1 88 0
 174 003e 18D0     		beq	.L2
 175              	.LVL16:
 176              	.L5:
 177              	.LBB46:
 178              	.LBB21:
 179              		.loc 1 173 0
 180 0040 2023     		movs	r3, #32
 181              	.LVL17:
 182              	@ 173 "../chibios_2.6.3/os/kernel/src/chmempools.c" 1
 183 0042 83F31188 		msr     BASEPRI, r3
 184              	@ 0 "" 2
 185              	.LVL18:
 186              		.thumb
 187              	.LBE21:
 188              	.LBB20:
 189              	.LBB27:
 190              		.loc 1 155 0
 191 0046 0468     		ldr	r4, [r0, #0]
 192              	.LBE27:
 193              	.LBE20:
 194              	.LBB19:
 195              		.loc 1 175 0
 196 0048 0023     		movs	r3, #0
 197              	.LVL19:
 198              	.LBE19:
 199              	.LBB18:
 200              	.LBB32:
 201              		.loc 1 155 0
 202 004a 0C60     		str	r4, [r1, #0]
 203              		.loc 1 156 0
 204 004c 0160     		str	r1, [r0, #0]
 205              	.LBE32:
 206              	.LBE18:
 207              	.LBB17:
 208              		.loc 1 175 0
 209              	@ 175 "../chibios_2.6.3/os/kernel/src/chmempools.c" 1
 210 004e 83F31188 		msr     BASEPRI, r3
 211              	@ 0 "" 2
 212              	.LVL20:
 213              		.thumb
 214              	.LBE17:
 215              	.LBE46:
 216              		.loc 1 90 0
 217 0052 4568     		ldr	r5, [r0, #4]
 218              		.loc 1 91 0
 219 0054 013A     		subs	r2, r2, #1
 220              		.loc 1 90 0
 221 0056 4C19     		adds	r4, r1, r5
 222              	.LBB47:
 223              	.LBB40:
ARM GAS  C:\DOCUME~1\z_80\LOCALS~1\Temp\ccXj207y.s 			page 5


 224              		.loc 1 173 0
 225 0058 2023     		movs	r3, #32
 226              	.LVL21:
 227              	@ 173 "../chibios_2.6.3/os/kernel/src/chmempools.c" 1
 228 005a 83F31188 		msr     BASEPRI, r3
 229              	@ 0 "" 2
 230              	.LVL22:
 231              		.thumb
 232              	.LBE40:
 233              	.LBB41:
 234              	.LBB26:
 235              		.loc 1 155 0
 236 005e 0668     		ldr	r6, [r0, #0]
 237              	.LBE26:
 238              	.LBE41:
 239              	.LBB42:
 240              		.loc 1 175 0
 241 0060 0023     		movs	r3, #0
 242              	.LVL23:
 243              	.LBE42:
 244              	.LBB43:
 245              	.LBB33:
 246              		.loc 1 155 0
 247 0062 4E51     		str	r6, [r1, r5]
 248              		.loc 1 156 0
 249 0064 0460     		str	r4, [r0, #0]
 250              	.LBE33:
 251              	.LBE43:
 252              	.LBB44:
 253              		.loc 1 175 0
 254              	@ 175 "../chibios_2.6.3/os/kernel/src/chmempools.c" 1
 255 0066 83F31188 		msr     BASEPRI, r3
 256              	@ 0 "" 2
 257              	.LVL24:
 258              		.thumb
 259              	.LBE44:
 260              	.LBE47:
 261              		.loc 1 90 0
 262 006a 4168     		ldr	r1, [r0, #4]
 263              		.loc 1 88 0
 264 006c 013A     		subs	r2, r2, #1
 265              		.loc 1 90 0
 266 006e 2144     		add	r1, r4, r1
 267              		.loc 1 88 0
 268 0070 E6D1     		bne	.L5
 269              	.LVL25:
 270              	.L2:
 271              		.loc 1 93 0
 272 0072 70BC     		pop	{r4, r5, r6}
 273 0074 7047     		bx	lr
 274              		.cfi_endproc
 275              	.LFE8:
 276              		.size	chPoolLoadArray, .-chPoolLoadArray
 277 0076 00BFAFF3 		.section	.text.chPoolAllocI,"ax",%progbits
 277      0080AFF3 
 277      0080
 278              		.align	2
ARM GAS  C:\DOCUME~1\z_80\LOCALS~1\Temp\ccXj207y.s 			page 6


 279              		.p2align 4,,15
 280              		.global	chPoolAllocI
 281              		.thumb
 282              		.thumb_func
 283              		.type	chPoolAllocI, %function
 284              	chPoolAllocI:
 285              	.LFB9:
 286              		.loc 1 105 0
 287              		.cfi_startproc
 288              		@ args = 0, pretend = 0, frame = 0
 289              		@ frame_needed = 0, uses_anonymous_args = 0
 290              	.LVL26:
 291 0000 0246     		mov	r2, r0
 292              		.loc 1 111 0
 293 0002 0068     		ldr	r0, [r0, #0]
 294              	.LVL27:
 295              		.loc 1 105 0
 296 0004 08B5     		push	{r3, lr}
 297              	.LCFI1:
 298              		.cfi_def_cfa_offset 8
 299              		.loc 1 111 0
 300 0006 10B1     		cbz	r0, .L14
 301              		.cfi_offset 14, -4
 302              		.cfi_offset 3, -8
 303              		.loc 1 112 0
 304 0008 0368     		ldr	r3, [r0, #0]
 305 000a 1360     		str	r3, [r2, #0]
 306 000c 08BD     		pop	{r3, pc}
 307              	.L14:
 308              		.loc 1 113 0
 309 000e 9368     		ldr	r3, [r2, #8]
 310 0010 0BB1     		cbz	r3, .L15
 311              		.loc 1 114 0
 312 0012 5068     		ldr	r0, [r2, #4]
 313 0014 9847     		blx	r3
 314              	.LVL28:
 315              	.L15:
 316              		.loc 1 116 0
 317 0016 08BD     		pop	{r3, pc}
 318              		.cfi_endproc
 319              	.LFE9:
 320              		.size	chPoolAllocI, .-chPoolAllocI
 321 0018 AFF30080 		.section	.text.chPoolAlloc,"ax",%progbits
 321      AFF30080 
 322              		.align	2
 323              		.p2align 4,,15
 324              		.global	chPoolAlloc
 325              		.thumb
 326              		.thumb_func
 327              		.type	chPoolAlloc, %function
 328              	chPoolAlloc:
 329              	.LFB10:
 330              		.loc 1 128 0
 331              		.cfi_startproc
 332              		@ args = 0, pretend = 0, frame = 0
 333              		@ frame_needed = 0, uses_anonymous_args = 0
 334              	.LVL29:
ARM GAS  C:\DOCUME~1\z_80\LOCALS~1\Temp\ccXj207y.s 			page 7


 335 0000 08B5     		push	{r3, lr}
 336              	.LCFI2:
 337              		.cfi_def_cfa_offset 8
 338              		.loc 1 128 0
 339 0002 0246     		mov	r2, r0
 340              	.LBB48:
 341              		.loc 1 131 0
 342 0004 2023     		movs	r3, #32
 343              		.cfi_offset 14, -4
 344              		.cfi_offset 3, -8
 345              	.LVL30:
 346              	@ 131 "../chibios_2.6.3/os/kernel/src/chmempools.c" 1
 347 0006 83F31188 		msr     BASEPRI, r3
 348              	@ 0 "" 2
 349              	.LVL31:
 350              		.thumb
 351              	.LBE48:
 352              	.LBB49:
 353              	.LBB50:
 354              		.loc 1 111 0
 355 000a 0068     		ldr	r0, [r0, #0]
 356              	.LVL32:
 357 000c 28B1     		cbz	r0, .L17
 358              		.loc 1 112 0
 359 000e 0368     		ldr	r3, [r0, #0]
 360              	.LVL33:
 361 0010 1360     		str	r3, [r2, #0]
 362              	.LVL34:
 363              	.L18:
 364              	.LBE50:
 365              	.LBE49:
 366              	.LBB52:
 367              		.loc 1 133 0
 368 0012 0023     		movs	r3, #0
 369              	.LVL35:
 370              	@ 133 "../chibios_2.6.3/os/kernel/src/chmempools.c" 1
 371 0014 83F31188 		msr     BASEPRI, r3
 372              	@ 0 "" 2
 373              	.LVL36:
 374              		.thumb
 375              	.LBE52:
 376              		.loc 1 135 0
 377 0018 08BD     		pop	{r3, pc}
 378              	.LVL37:
 379              	.L17:
 380              	.LBB53:
 381              	.LBB51:
 382              		.loc 1 113 0
 383 001a 9368     		ldr	r3, [r2, #8]
 384              	.LVL38:
 385 001c 002B     		cmp	r3, #0
 386 001e F8D0     		beq	.L18
 387              		.loc 1 114 0
 388 0020 5068     		ldr	r0, [r2, #4]
 389 0022 9847     		blx	r3
 390              	.LVL39:
 391              	.LBE51:
ARM GAS  C:\DOCUME~1\z_80\LOCALS~1\Temp\ccXj207y.s 			page 8


 392              	.LBE53:
 393              	.LBB54:
 394              		.loc 1 133 0
 395 0024 0023     		movs	r3, #0
 396              	@ 133 "../chibios_2.6.3/os/kernel/src/chmempools.c" 1
 397 0026 83F31188 		msr     BASEPRI, r3
 398              	@ 0 "" 2
 399              	.LVL40:
 400              		.thumb
 401              	.LBE54:
 402              		.loc 1 135 0
 403 002a 08BD     		pop	{r3, pc}
 404              		.cfi_endproc
 405              	.LFE10:
 406              		.size	chPoolAlloc, .-chPoolAlloc
 407 002c AFF30080 		.section	.text.chPoolFreeI,"ax",%progbits
 408              		.align	2
 409              		.p2align 4,,15
 410              		.global	chPoolFreeI
 411              		.thumb
 412              		.thumb_func
 413              		.type	chPoolFreeI, %function
 414              	chPoolFreeI:
 415              	.LFB11:
 416              		.loc 1 149 0
 417              		.cfi_startproc
 418              		@ args = 0, pretend = 0, frame = 0
 419              		@ frame_needed = 0, uses_anonymous_args = 0
 420              		@ link register save eliminated.
 421              	.LVL41:
 422              		.loc 1 155 0
 423 0000 0368     		ldr	r3, [r0, #0]
 424              	.LVL42:
 425 0002 0B60     		str	r3, [r1, #0]
 426              		.loc 1 156 0
 427 0004 0160     		str	r1, [r0, #0]
 428              		.loc 1 157 0
 429 0006 7047     		bx	lr
 430              		.cfi_endproc
 431              	.LFE11:
 432              		.size	chPoolFreeI, .-chPoolFreeI
 433 0008 AFF30080 		.section	.text.chPoolFree,"ax",%progbits
 433      AFF30080 
 434              		.align	2
 435              		.p2align 4,,15
 436              		.global	chPoolFree
 437              		.thumb
 438              		.thumb_func
 439              		.type	chPoolFree, %function
 440              	chPoolFree:
 441              	.LFB12:
 442              		.loc 1 171 0
 443              		.cfi_startproc
 444              		@ args = 0, pretend = 0, frame = 0
 445              		@ frame_needed = 0, uses_anonymous_args = 0
 446              		@ link register save eliminated.
 447              	.LVL43:
ARM GAS  C:\DOCUME~1\z_80\LOCALS~1\Temp\ccXj207y.s 			page 9


 448              	.LBB55:
 449              		.loc 1 173 0
 450 0000 2023     		movs	r3, #32
 451              	.LVL44:
 452              	@ 173 "../chibios_2.6.3/os/kernel/src/chmempools.c" 1
 453 0002 83F31188 		msr     BASEPRI, r3
 454              	@ 0 "" 2
 455              	.LVL45:
 456              		.thumb
 457              	.LBE55:
 458              	.LBB56:
 459              	.LBB57:
 460              		.loc 1 155 0
 461 0006 0268     		ldr	r2, [r0, #0]
 462              	.LBE57:
 463              	.LBE56:
 464              	.LBB59:
 465              		.loc 1 175 0
 466 0008 0023     		movs	r3, #0
 467              	.LVL46:
 468              	.LBE59:
 469              	.LBB60:
 470              	.LBB58:
 471              		.loc 1 155 0
 472 000a 0A60     		str	r2, [r1, #0]
 473              		.loc 1 156 0
 474 000c 0160     		str	r1, [r0, #0]
 475              	.LBE58:
 476              	.LBE60:
 477              	.LBB61:
 478              		.loc 1 175 0
 479              	@ 175 "../chibios_2.6.3/os/kernel/src/chmempools.c" 1
 480 000e 83F31188 		msr     BASEPRI, r3
 481              	@ 0 "" 2
 482              	.LVL47:
 483              		.thumb
 484              	.LBE61:
 485              		.loc 1 176 0
 486 0012 7047     		bx	lr
 487              		.cfi_endproc
 488              	.LFE12:
 489              		.size	chPoolFree, .-chPoolFree
 490 0014 AFF30080 		.text
 490      AFF30080 
 490      AFF30080 
 491              	.Letext0: