ARM GAS  C:\DOCUME~1\z_80\LOCALS~1\Temp\ccXwWDUa.s 			page 1


   1              		.syntax unified
   2              		.cpu cortex-m3
   3              		.fpu softvfp
   4              		.eabi_attribute 20, 1
   5              		.eabi_attribute 21, 1
   6              		.eabi_attribute 23, 3
   7              		.eabi_attribute 24, 1
   8              		.eabi_attribute 25, 1
   9              		.eabi_attribute 26, 1
  10              		.eabi_attribute 30, 2
  11              		.eabi_attribute 18, 4
  12              		.thumb
  13              		.file	"chmsg.c"
  20 0000 DD010000 		.text
  20      02005C01 
  20      00000201 
  20      FB0E0D00 
  20      01010101 
  21              	.Ltext0:
  22              		.cfi_sections	.debug_frame
  23              		.section	.text.chMsgSend,"ax",%progbits
  24              		.align	2
  25              		.p2align 4,,15
  26              		.global	chMsgSend
  27              		.thumb
  28              		.thumb_func
  29              		.type	chMsgSend, %function
  30              	chMsgSend:
  31              	.LFB7:
  32              		.file 1 "../chibios_2.6.3/os/kernel/src/chmsg.c"
  33              		.loc 1 75 0
  34              		.cfi_startproc
  35              		@ args = 0, pretend = 0, frame = 0
  36              		@ frame_needed = 0, uses_anonymous_args = 0
  37              	.LVL0:
  38 0000 70B5     		push	{r4, r5, r6, lr}
  39              	.LCFI0:
  40              		.cfi_def_cfa_offset 16
  41              		.loc 1 76 0
  42 0002 114A     		ldr	r2, .L5
  43              	.LBB10:
  44              		.loc 1 80 0
  45 0004 2023     		movs	r3, #32
  46              	.LVL1:
  47              	.LBE10:
  48              		.loc 1 76 0
  49 0006 9469     		ldr	r4, [r2, #24]
  50              		.cfi_offset 14, -4
  51              		.cfi_offset 6, -8
  52              		.cfi_offset 5, -12
  53              		.cfi_offset 4, -16
ARM GAS  C:\DOCUME~1\z_80\LOCALS~1\Temp\ccXwWDUa.s 			page 2


  54              	.LVL2:
  55              	.LBB11:
  56              		.loc 1 80 0
  57              	@ 80 "../chibios_2.6.3/os/kernel/src/chmsg.c" 1
  58 0008 83F31188 		msr     BASEPRI, r3
  59              	@ 0 "" 2
  60              	.LVL3:
  61              		.thumb
  62              	.LBE11:
  63              		.loc 1 84 0
  64 000c 067F     		ldrb	r6, [r0, #28]	@ zero_extendqisi2
  65              	.LBB12:
  66              	.LBB14:
  67              		.file 2 "../chibios_2.6.3/os/kernel/include/chinline.h"
  68              		.loc 2 55 0
  69 000e 036B     		ldr	r3, [r0, #48]
  70              	.LVL4:
  71              	.LBE14:
  72              	.LBE12:
  73              		.loc 1 82 0
  74 0010 00F12C05 		add	r5, r0, #44
  75              		.loc 1 84 0
  76 0014 0C2E     		cmp	r6, #12
  77              	.LBB16:
  78              	.LBB13:
  79              		.loc 2 54 0
  80 0016 2560     		str	r5, [r4, #0]
  81              	.LBE13:
  82              	.LBE16:
  83              		.loc 1 81 0
  84 0018 6163     		str	r1, [r4, #52]
  85              		.loc 1 82 0
  86 001a 6562     		str	r5, [r4, #36]
  87              	.LVL5:
  88              	.LBB17:
  89              	.LBB15:
  90              		.loc 2 55 0
  91 001c 6360     		str	r3, [r4, #4]
  92              		.loc 2 56 0
  93 001e 0463     		str	r4, [r0, #48]
  94 0020 1C60     		str	r4, [r3, #0]
  95              	.LBE15:
  96              	.LBE17:
  97              		.loc 1 84 0
  98 0022 07D0     		beq	.L4
  99              		.loc 1 86 0
 100 0024 0A20     		movs	r0, #10
 101              	.LVL6:
 102 0026 FFF7FEFF 		bl	chSchGoSleepS
 103              	.LVL7:
 104              		.loc 1 87 0
 105 002a 606A     		ldr	r0, [r4, #36]
 106              	.LVL8:
 107              	.LBB18:
 108              		.loc 1 88 0
 109 002c 0023     		movs	r3, #0
 110              	.LVL9:
ARM GAS  C:\DOCUME~1\z_80\LOCALS~1\Temp\ccXwWDUa.s 			page 3


 111              	@ 88 "../chibios_2.6.3/os/kernel/src/chmsg.c" 1
 112 002e 83F31188 		msr     BASEPRI, r3
 113              	@ 0 "" 2
 114              	.LVL10:
 115              		.thumb
 116              	.LBE18:
 117              		.loc 1 90 0
 118 0032 70BD     		pop	{r4, r5, r6, pc}
 119              	.LVL11:
 120              	.L4:
 121              		.loc 1 85 0
 122 0034 FFF7FEFF 		bl	chSchReadyI
 123              	.LVL12:
 124              		.loc 1 86 0
 125 0038 0A20     		movs	r0, #10
 126 003a FFF7FEFF 		bl	chSchGoSleepS
 127              		.loc 1 87 0
 128 003e 606A     		ldr	r0, [r4, #36]
 129              	.LVL13:
 130              	.LBB19:
 131              		.loc 1 88 0
 132 0040 0023     		movs	r3, #0
 133              	@ 88 "../chibios_2.6.3/os/kernel/src/chmsg.c" 1
 134 0042 83F31188 		msr     BASEPRI, r3
 135              	@ 0 "" 2
 136              	.LVL14:
 137              		.thumb
 138              	.LBE19:
 139              		.loc 1 90 0
 140 0046 70BD     		pop	{r4, r5, r6, pc}
 141              	.L6:
 142              		.align	2
 143              	.L5:
 144 0048 00000000 		.word	rlist
 145              		.cfi_endproc
 146              	.LFE7:
 147              		.size	chMsgSend, .-chMsgSend
 148 004c AFF30080 		.section	.text.chMsgWait,"ax",%progbits
 149              		.align	2
 150              		.p2align 4,,15
 151              		.global	chMsgWait
 152              		.thumb
 153              		.thumb_func
 154              		.type	chMsgWait, %function
 155              	chMsgWait:
 156              	.LFB8:
 157              		.loc 1 106 0
 158              		.cfi_startproc
 159              		@ args = 0, pretend = 0, frame = 0
 160              		@ frame_needed = 0, uses_anonymous_args = 0
 161 0000 10B5     		push	{r4, lr}
 162              	.LCFI1:
 163              		.cfi_def_cfa_offset 8
 164              	.LBB20:
 165              		.loc 1 109 0
 166 0002 2023     		movs	r3, #32
 167              	.LVL15:
ARM GAS  C:\DOCUME~1\z_80\LOCALS~1\Temp\ccXwWDUa.s 			page 4


 168              	@ 109 "../chibios_2.6.3/os/kernel/src/chmsg.c" 1
 169 0004 83F31188 		msr     BASEPRI, r3
 170              	@ 0 "" 2
 171              	.LVL16:
 172              		.thumb
 173              	.LBE20:
 174              		.loc 1 110 0
 175 0008 0B4C     		ldr	r4, .L10
 176              		.cfi_offset 14, -4
 177              		.cfi_offset 4, -8
 178 000a A269     		ldr	r2, [r4, #24]
 179 000c 1346     		mov	r3, r2
 180              	.LVL17:
 181 000e 53F82C0F 		ldr	r0, [r3, #44]!
 182 0012 9842     		cmp	r0, r3
 183 0014 08D0     		beq	.L9
 184              	.L8:
 185              	.LVL18:
 186              	.LBB21:
 187              	.LBB22:
 188              		.loc 2 62 0
 189 0016 0168     		ldr	r1, [r0, #0]
 190 0018 4B60     		str	r3, [r1, #4]
 191              	.LBE22:
 192              	.LBE21:
 193              		.loc 1 113 0
 194 001a 0B23     		movs	r3, #11
 195 001c 0377     		strb	r3, [r0, #28]
 196              	.LBB24:
 197              	.LBB23:
 198              		.loc 2 62 0
 199 001e D162     		str	r1, [r2, #44]
 200              	.LBE23:
 201              	.LBE24:
 202              	.LBB25:
 203              		.loc 1 114 0
 204 0020 0023     		movs	r3, #0
 205              	.LVL19:
 206              	@ 114 "../chibios_2.6.3/os/kernel/src/chmsg.c" 1
 207 0022 83F31188 		msr     BASEPRI, r3
 208              	@ 0 "" 2
 209              	.LVL20:
 210              		.thumb
 211              	.LBE25:
 212              		.loc 1 116 0
 213 0026 10BD     		pop	{r4, pc}
 214              	.LVL21:
 215              	.L9:
 216              		.loc 1 111 0
 217 0028 0C20     		movs	r0, #12
 218 002a FFF7FEFF 		bl	chSchGoSleepS
 219 002e A269     		ldr	r2, [r4, #24]
 220 0030 1346     		mov	r3, r2
 221 0032 53F82C0F 		ldr	r0, [r3, #44]!
 222 0036 EEE7     		b	.L8
 223              	.L11:
 224              		.align	2
ARM GAS  C:\DOCUME~1\z_80\LOCALS~1\Temp\ccXwWDUa.s 			page 5


 225              	.L10:
 226 0038 00000000 		.word	rlist
 227              		.cfi_endproc
 228              	.LFE8:
 229              		.size	chMsgWait, .-chMsgWait
 230 003c AFF30080 		.section	.text.chMsgRelease,"ax",%progbits
 231              		.align	2
 232              		.p2align 4,,15
 233              		.global	chMsgRelease
 234              		.thumb
 235              		.thumb_func
 236              		.type	chMsgRelease, %function
 237              	chMsgRelease:
 238              	.LFB9:
 239              		.loc 1 128 0
 240              		.cfi_startproc
 241              		@ args = 0, pretend = 0, frame = 0
 242              		@ frame_needed = 0, uses_anonymous_args = 0
 243              	.LVL22:
 244 0000 08B5     		push	{r3, lr}
 245              	.LCFI2:
 246              		.cfi_def_cfa_offset 8
 247              	.LBB26:
 248              		.loc 1 130 0
 249 0002 2023     		movs	r3, #32
 250              		.cfi_offset 14, -4
 251              		.cfi_offset 3, -8
 252              	.LVL23:
 253              	@ 130 "../chibios_2.6.3/os/kernel/src/chmsg.c" 1
 254 0004 83F31188 		msr     BASEPRI, r3
 255              	@ 0 "" 2
 256              	.LVL24:
 257              		.thumb
 258              	.LBE26:
 259              		.loc 1 133 0
 260 0008 FFF7FEFF 		bl	chSchWakeupS
 261              	.LVL25:
 262              	.LBB27:
 263              		.loc 1 134 0
 264 000c 0023     		movs	r3, #0
 265              	.LVL26:
 266              	@ 134 "../chibios_2.6.3/os/kernel/src/chmsg.c" 1
 267 000e 83F31188 		msr     BASEPRI, r3
 268              	@ 0 "" 2
 269              	.LVL27:
 270              		.thumb
 271              	.LBE27:
 272              		.loc 1 135 0
 273 0012 08BD     		pop	{r3, pc}
 274              		.cfi_endproc
 275              	.LFE9:
 276              		.size	chMsgRelease, .-chMsgRelease
 277 0014 AFF30080 		.text
 277      AFF30080 
 277      AFF30080 
 278              	.Letext0: