ARM GAS  C:\DOCUME~1\z_80\LOCALS~1\Temp\cc1tcHiZ.s 			page 1


   1              		.syntax unified
   2              		.cpu cortex-m3
   3              		.fpu softvfp
   4              		.eabi_attribute 20, 1
   5              		.eabi_attribute 21, 1
   6              		.eabi_attribute 23, 3
   7              		.eabi_attribute 24, 1
   8              		.eabi_attribute 25, 1
   9              		.eabi_attribute 26, 1
  10              		.eabi_attribute 30, 2
  11              		.eabi_attribute 18, 4
  12              		.thumb
  13              		.file	"chmtx.c"
  20 0000 65030000 		.text
  20      02005C01 
  20      00000201 
  20      FB0E0D00 
  20      01010101 
  21              	.Ltext0:
  22              		.cfi_sections	.debug_frame
  23              		.section	.text.chMtxInit,"ax",%progbits
  24              		.align	2
  25              		.p2align 4,,15
  26              		.global	chMtxInit
  27              		.thumb
  28              		.thumb_func
  29              		.type	chMtxInit, %function
  30              	chMtxInit:
  31              	.LFB7:
  32              		.file 1 "../chibios_2.6.3/os/kernel/src/chmtx.c"
  33              		.loc 1 86 0
  34              		.cfi_startproc
  35              		@ args = 0, pretend = 0, frame = 0
  36              		@ frame_needed = 0, uses_anonymous_args = 0
  37              		@ link register save eliminated.
  38              	.LVL0:
  39              		.loc 1 91 0
  40 0000 0023     		movs	r3, #0
  41              		.loc 1 90 0
  42 0002 4060     		str	r0, [r0, #4]
  43 0004 0060     		str	r0, [r0, #0]
  44              		.loc 1 91 0
  45 0006 8360     		str	r3, [r0, #8]
  46              		.loc 1 92 0
  47 0008 7047     		bx	lr
  48              		.cfi_endproc
  49              	.LFE7:
  50              		.size	chMtxInit, .-chMtxInit
  51 000a 00BFAFF3 		.section	.text.chMtxLockS,"ax",%progbits
  51      0080
  52              		.align	2
ARM GAS  C:\DOCUME~1\z_80\LOCALS~1\Temp\cc1tcHiZ.s 			page 2


  53              		.p2align 4,,15
  54              		.global	chMtxLockS
  55              		.thumb
  56              		.thumb_func
  57              		.type	chMtxLockS, %function
  58              	chMtxLockS:
  59              	.LFB9:
  60              		.loc 1 121 0
  61              		.cfi_startproc
  62              		@ args = 0, pretend = 0, frame = 0
  63              		@ frame_needed = 0, uses_anonymous_args = 0
  64              	.LVL1:
  65              		.loc 1 122 0
  66 0000 2F4A     		ldr	r2, .L24
  67              		.loc 1 128 0
  68 0002 8368     		ldr	r3, [r0, #8]
  69              		.loc 1 121 0
  70 0004 2DE9F041 		push	{r4, r5, r6, r7, r8, lr}
  71              	.LCFI0:
  72              		.cfi_def_cfa_offset 24
  73              		.loc 1 121 0
  74 0008 0546     		mov	r5, r0
  75              		.cfi_offset 14, -4
  76              		.cfi_offset 8, -8
  77              		.cfi_offset 7, -12
  78              		.cfi_offset 6, -16
  79              		.cfi_offset 5, -20
  80              		.cfi_offset 4, -24
  81              		.loc 1 122 0
  82 000a 9469     		ldr	r4, [r2, #24]
  83              	.LVL2:
  84              		.loc 1 128 0
  85 000c 002B     		cmp	r3, #0
  86 000e 51D0     		beq	.L3
  87              	.LVL3:
  88              	.LBB33:
  89              		.loc 1 135 0 discriminator 1
  90 0010 A168     		ldr	r1, [r4, #8]
  91 0012 9868     		ldr	r0, [r3, #8]
  92              	.LVL4:
  93 0014 8142     		cmp	r1, r0
  94 0016 06D9     		bls	.L4
  95              	.LVL5:
  96              	.L18:
  97              		.loc 1 139 0
  98 0018 1A7F     		ldrb	r2, [r3, #28]	@ zero_extendqisi2
  99              		.loc 1 137 0
 100 001a 9960     		str	r1, [r3, #8]
 101              		.loc 1 139 0
 102 001c 042A     		cmp	r2, #4
 103 001e 31D0     		beq	.L6
 104 0020 052A     		cmp	r2, #5
 105 0022 1CD0     		beq	.L7
 106 0024 92B1     		cbz	r2, .L5
 107              	.LVL6:
 108              	.L4:
 109              	.LBB35:
ARM GAS  C:\DOCUME~1\z_80\LOCALS~1\Temp\cc1tcHiZ.s 			page 3


 110              	.LBB36:
 111              		.file 2 "../chibios_2.6.3/os/kernel/include/chinline.h"
 112              		.loc 2 43 0
 113 0026 2B46     		mov	r3, r5
 114              	.LVL7:
 115              	.L14:
 116              		.loc 2 45 0
 117 0028 1B68     		ldr	r3, [r3, #0]
 118              	.LVL8:
 119              		.loc 2 46 0
 120 002a 9D42     		cmp	r5, r3
 121 002c 03D0     		beq	.L13
 122 002e 9868     		ldr	r0, [r3, #8]
 123 0030 A268     		ldr	r2, [r4, #8]
 124 0032 9042     		cmp	r0, r2
 125 0034 F8D2     		bcs	.L14
 126              	.L13:
 127              		.loc 2 48 0
 128 0036 5968     		ldr	r1, [r3, #4]
 129              	.LBE36:
 130              	.LBE35:
 131              		.loc 1 175 0
 132 0038 0420     		movs	r0, #4
 133              	.LBB34:
 134              	.LBB37:
 135              		.loc 2 47 0
 136 003a 2360     		str	r3, [r4, #0]
 137              		.loc 2 48 0
 138 003c 6160     		str	r1, [r4, #4]
 139              		.loc 2 49 0
 140 003e 0C60     		str	r4, [r1, #0]
 141 0040 5C60     		str	r4, [r3, #4]
 142              	.LBE37:
 143              	.LBE34:
 144              		.loc 1 174 0
 145 0042 6562     		str	r5, [r4, #36]
 146              	.LBE33:
 147              		.loc 1 187 0
 148 0044 BDE8F041 		pop	{r4, r5, r6, r7, r8, lr}
 149              	.LBB64:
 150              		.loc 1 175 0
 151 0048 FFF7FEBF 		b	chSchGoSleepS
 152              	.LVL9:
 153              	.L5:
 154              	.LBB38:
 155              	.LBB39:
 156              		.loc 2 75 0
 157 004c 5A68     		ldr	r2, [r3, #4]
 158 004e 1968     		ldr	r1, [r3, #0]
 159              	.LBE39:
 160              	.LBE38:
 161              		.loc 1 167 0
 162 0050 1846     		mov	r0, r3
 163              	.LBB41:
 164              	.LBB40:
 165              		.loc 2 75 0
 166 0052 1160     		str	r1, [r2, #0]
ARM GAS  C:\DOCUME~1\z_80\LOCALS~1\Temp\cc1tcHiZ.s 			page 4


 167              		.loc 2 76 0
 168 0054 1B68     		ldr	r3, [r3, #0]
 169              	.LVL10:
 170 0056 5A60     		str	r2, [r3, #4]
 171              	.LBE40:
 172              	.LBE41:
 173              		.loc 1 167 0
 174 0058 FFF7FEFF 		bl	chSchReadyI
 175              	.LVL11:
 176              		.loc 1 168 0
 177 005c E3E7     		b	.L4
 178              	.LVL12:
 179              	.L7:
 180              	.LBB42:
 181              	.LBB44:
 182              		.loc 2 75 0
 183 005e 5868     		ldr	r0, [r3, #4]
 184 0060 1F68     		ldr	r7, [r3, #0]
 185              	.LBE44:
 186              	.LBE42:
 187              	.LBB46:
 188              	.LBB48:
 189              		.loc 2 43 0
 190 0062 5E6A     		ldr	r6, [r3, #36]
 191              	.LBE48:
 192              	.LBE46:
 193              	.LBB50:
 194              	.LBB43:
 195              		.loc 2 75 0
 196 0064 0760     		str	r7, [r0, #0]
 197              		.loc 2 76 0
 198 0066 1F68     		ldr	r7, [r3, #0]
 199              	.LBE43:
 200              	.LBE50:
 201              	.LBB51:
 202              	.LBB47:
 203              		.loc 2 43 0
 204 0068 3246     		mov	r2, r6
 205              	.LBE47:
 206              	.LBE51:
 207              	.LBB52:
 208              	.LBB45:
 209              		.loc 2 76 0
 210 006a 7860     		str	r0, [r7, #4]
 211              	.LVL13:
 212              	.L12:
 213              	.LBE45:
 214              	.LBE52:
 215              	.LBB53:
 216              	.LBB49:
 217              		.loc 2 45 0
 218 006c 1268     		ldr	r2, [r2, #0]
 219              	.LVL14:
 220              		.loc 2 46 0
 221 006e 9642     		cmp	r6, r2
 222 0070 02D0     		beq	.L11
 223 0072 9068     		ldr	r0, [r2, #8]
ARM GAS  C:\DOCUME~1\z_80\LOCALS~1\Temp\cc1tcHiZ.s 			page 5


 224 0074 8842     		cmp	r0, r1
 225 0076 F9D2     		bcs	.L12
 226              	.L11:
 227              		.loc 2 48 0
 228 0078 5168     		ldr	r1, [r2, #4]
 229              		.loc 2 47 0
 230 007a 1A60     		str	r2, [r3, #0]
 231              		.loc 2 48 0
 232 007c 5960     		str	r1, [r3, #4]
 233              		.loc 2 49 0
 234 007e 0B60     		str	r3, [r1, #0]
 235 0080 5360     		str	r3, [r2, #4]
 236              	.LBE49:
 237              	.LBE53:
 238              		.loc 1 159 0
 239 0082 D0E7     		b	.L4
 240              	.LVL15:
 241              	.L6:
 242              	.LBB54:
 243              	.LBB56:
 244              		.loc 2 75 0
 245 0084 5868     		ldr	r0, [r3, #4]
 246 0086 1F68     		ldr	r7, [r3, #0]
 247              	.LBE56:
 248              	.LBE54:
 249              		.loc 1 142 0
 250 0088 5E6A     		ldr	r6, [r3, #36]
 251              	.LVL16:
 252              	.LBB58:
 253              	.LBB55:
 254              		.loc 2 75 0
 255 008a 0760     		str	r7, [r0, #0]
 256              		.loc 2 76 0
 257 008c 1F68     		ldr	r7, [r3, #0]
 258              	.LBE55:
 259              	.LBE58:
 260              	.LBB59:
 261              	.LBB60:
 262              		.loc 2 43 0
 263 008e 3246     		mov	r2, r6
 264              	.LBE60:
 265              	.LBE59:
 266              	.LBB62:
 267              	.LBB57:
 268              		.loc 2 76 0
 269 0090 7860     		str	r0, [r7, #4]
 270              	.LVL17:
 271              	.L9:
 272              	.LBE57:
 273              	.LBE62:
 274              	.LBB63:
 275              	.LBB61:
 276              		.loc 2 45 0
 277 0092 1268     		ldr	r2, [r2, #0]
 278              	.LVL18:
 279              		.loc 2 46 0
 280 0094 9642     		cmp	r6, r2
ARM GAS  C:\DOCUME~1\z_80\LOCALS~1\Temp\cc1tcHiZ.s 			page 6


 281 0096 02D0     		beq	.L8
 282 0098 9068     		ldr	r0, [r2, #8]
 283 009a 8842     		cmp	r0, r1
 284 009c F9D2     		bcs	.L9
 285              	.L8:
 286              		.loc 2 48 0
 287 009e 5168     		ldr	r1, [r2, #4]
 288              		.loc 2 47 0
 289 00a0 1A60     		str	r2, [r3, #0]
 290              		.loc 2 48 0
 291 00a2 5960     		str	r1, [r3, #4]
 292              		.loc 2 49 0
 293 00a4 0B60     		str	r3, [r1, #0]
 294 00a6 5360     		str	r3, [r2, #4]
 295              	.LBE61:
 296              	.LBE63:
 297              		.loc 1 143 0
 298 00a8 B368     		ldr	r3, [r6, #8]
 299              	.LVL19:
 300              		.loc 1 135 0
 301 00aa A168     		ldr	r1, [r4, #8]
 302 00ac 9A68     		ldr	r2, [r3, #8]
 303              	.LVL20:
 304 00ae 8A42     		cmp	r2, r1
 305 00b0 B2D3     		bcc	.L18
 306 00b2 B8E7     		b	.L4
 307              	.LVL21:
 308              	.L3:
 309              	.LBE64:
 310              		.loc 1 184 0
 311 00b4 E36B     		ldr	r3, [r4, #60]
 312              		.loc 1 183 0
 313 00b6 8460     		str	r4, [r0, #8]
 314              		.loc 1 184 0
 315 00b8 C360     		str	r3, [r0, #12]
 316              		.loc 1 185 0
 317 00ba E063     		str	r0, [r4, #60]
 318              		.loc 1 187 0
 319 00bc BDE8F081 		pop	{r4, r5, r6, r7, r8, pc}
 320              	.L25:
 321              		.align	2
 322              	.L24:
 323 00c0 00000000 		.word	rlist
 324              		.cfi_endproc
 325              	.LFE9:
 326              		.size	chMtxLockS, .-chMtxLockS
 327 00c4 AFF30080 		.section	.text.chMtxLock,"ax",%progbits
 327      AFF30080 
 327      AFF30080 
 328              		.align	2
 329              		.p2align 4,,15
 330              		.global	chMtxLock
 331              		.thumb
 332              		.thumb_func
 333              		.type	chMtxLock, %function
 334              	chMtxLock:
 335              	.LFB8:
ARM GAS  C:\DOCUME~1\z_80\LOCALS~1\Temp\cc1tcHiZ.s 			page 7


 336              		.loc 1 103 0
 337              		.cfi_startproc
 338              		@ args = 0, pretend = 0, frame = 0
 339              		@ frame_needed = 0, uses_anonymous_args = 0
 340              	.LVL22:
 341 0000 08B5     		push	{r3, lr}
 342              	.LCFI1:
 343              		.cfi_def_cfa_offset 8
 344              	.LBB65:
 345              		.loc 1 105 0
 346 0002 2023     		movs	r3, #32
 347              		.cfi_offset 14, -4
 348              		.cfi_offset 3, -8
 349              	.LVL23:
 350              	@ 105 "../chibios_2.6.3/os/kernel/src/chmtx.c" 1
 351 0004 83F31188 		msr     BASEPRI, r3
 352              	@ 0 "" 2
 353              	.LVL24:
 354              		.thumb
 355              	.LBE65:
 356              		.loc 1 107 0
 357 0008 FFF7FEFF 		bl	chMtxLockS
 358              	.LVL25:
 359              	.LBB66:
 360              		.loc 1 109 0
 361 000c 0023     		movs	r3, #0
 362              	.LVL26:
 363              	@ 109 "../chibios_2.6.3/os/kernel/src/chmtx.c" 1
 364 000e 83F31188 		msr     BASEPRI, r3
 365              	@ 0 "" 2
 366              	.LVL27:
 367              		.thumb
 368              	.LBE66:
 369              		.loc 1 110 0
 370 0012 08BD     		pop	{r3, pc}
 371              		.cfi_endproc
 372              	.LFE8:
 373              		.size	chMtxLock, .-chMtxLock
 374 0014 AFF30080 		.section	.text.chMtxTryLock,"ax",%progbits
 374      AFF30080 
 374      AFF30080 
 375              		.align	2
 376              		.p2align 4,,15
 377              		.global	chMtxTryLock
 378              		.thumb
 379              		.thumb_func
 380              		.type	chMtxTryLock, %function
 381              	chMtxTryLock:
 382              	.LFB10:
 383              		.loc 1 206 0
 384              		.cfi_startproc
 385              		@ args = 0, pretend = 0, frame = 0
 386              		@ frame_needed = 0, uses_anonymous_args = 0
 387              		@ link register save eliminated.
 388              	.LVL28:
 389              		.loc 1 206 0
 390 0000 0246     		mov	r2, r0
ARM GAS  C:\DOCUME~1\z_80\LOCALS~1\Temp\cc1tcHiZ.s 			page 8


 391              	.LBB67:
 392              		.loc 1 209 0
 393 0002 2023     		movs	r3, #32
 394              	.LVL29:
 395              	@ 209 "../chibios_2.6.3/os/kernel/src/chmtx.c" 1
 396 0004 83F31188 		msr     BASEPRI, r3
 397              	@ 0 "" 2
 398              	.LVL30:
 399              		.thumb
 400              	.LBE67:
 401              	.LBB68:
 402              	.LBB69:
 403              		.loc 1 239 0
 404 0008 8368     		ldr	r3, [r0, #8]
 405              	.LVL31:
 406 000a 23B1     		cbz	r3, .L30
 407              		.loc 1 240 0
 408 000c 0020     		movs	r0, #0
 409              	.LVL32:
 410              	.LBE69:
 411              	.LBE68:
 412              	.LBB71:
 413              		.loc 1 213 0
 414 000e 0023     		movs	r3, #0
 415              	.LVL33:
 416              	@ 213 "../chibios_2.6.3/os/kernel/src/chmtx.c" 1
 417 0010 83F31188 		msr     BASEPRI, r3
 418              	@ 0 "" 2
 419              	.LVL34:
 420              		.thumb
 421              	.LBE71:
 422              		.loc 1 215 0
 423 0014 7047     		bx	lr
 424              	.LVL35:
 425              	.L30:
 426              	.LBB72:
 427              	.LBB70:
 428              		.loc 1 241 0
 429 0016 054B     		ldr	r3, .L31
 430              		.loc 1 244 0
 431 0018 0120     		movs	r0, #1
 432              		.loc 1 241 0
 433 001a 9B69     		ldr	r3, [r3, #24]
 434              		.loc 1 242 0
 435 001c D96B     		ldr	r1, [r3, #60]
 436              		.loc 1 241 0
 437 001e 9360     		str	r3, [r2, #8]
 438              		.loc 1 242 0
 439 0020 D160     		str	r1, [r2, #12]
 440              		.loc 1 243 0
 441 0022 DA63     		str	r2, [r3, #60]
 442              	.LBE70:
 443              	.LBE72:
 444              	.LBB73:
 445              		.loc 1 213 0
 446 0024 0023     		movs	r3, #0
 447              	@ 213 "../chibios_2.6.3/os/kernel/src/chmtx.c" 1
ARM GAS  C:\DOCUME~1\z_80\LOCALS~1\Temp\cc1tcHiZ.s 			page 9


 448 0026 83F31188 		msr     BASEPRI, r3
 449              	@ 0 "" 2
 450              	.LVL36:
 451              		.thumb
 452              	.LBE73:
 453              		.loc 1 215 0
 454 002a 7047     		bx	lr
 455              	.L32:
 456              		.align	2
 457              	.L31:
 458 002c 00000000 		.word	rlist
 459              		.cfi_endproc
 460              	.LFE10:
 461              		.size	chMtxTryLock, .-chMtxTryLock
 462              		.section	.text.chMtxTryLockS,"ax",%progbits
 463              		.align	2
 464              		.p2align 4,,15
 465              		.global	chMtxTryLockS
 466              		.thumb
 467              		.thumb_func
 468              		.type	chMtxTryLockS, %function
 469              	chMtxTryLockS:
 470              	.LFB11:
 471              		.loc 1 234 0
 472              		.cfi_startproc
 473              		@ args = 0, pretend = 0, frame = 0
 474              		@ frame_needed = 0, uses_anonymous_args = 0
 475              		@ link register save eliminated.
 476              	.LVL37:
 477              		.loc 1 239 0
 478 0000 8268     		ldr	r2, [r0, #8]
 479              		.loc 1 234 0
 480 0002 0346     		mov	r3, r0
 481              		.loc 1 239 0
 482 0004 0AB1     		cbz	r2, .L36
 483              		.loc 1 240 0
 484 0006 0020     		movs	r0, #0
 485              	.LVL38:
 486              		.loc 1 245 0
 487 0008 7047     		bx	lr
 488              	.L36:
 489              		.loc 1 241 0
 490 000a 044A     		ldr	r2, .L37
 491              		.loc 1 244 0
 492 000c 0120     		movs	r0, #1
 493              		.loc 1 241 0
 494 000e 9269     		ldr	r2, [r2, #24]
 495              		.loc 1 242 0
 496 0010 D16B     		ldr	r1, [r2, #60]
 497              		.loc 1 241 0
 498 0012 9A60     		str	r2, [r3, #8]
 499              		.loc 1 242 0
 500 0014 D960     		str	r1, [r3, #12]
 501              		.loc 1 243 0
 502 0016 D363     		str	r3, [r2, #60]
 503              		.loc 1 244 0
 504 0018 7047     		bx	lr
ARM GAS  C:\DOCUME~1\z_80\LOCALS~1\Temp\cc1tcHiZ.s 			page 10


 505              	.L38:
 506 001a 00BF     		.align	2
 507              	.L37:
 508 001c 00000000 		.word	rlist
 509              		.cfi_endproc
 510              	.LFE11:
 511              		.size	chMtxTryLockS, .-chMtxTryLockS
 512              		.section	.text.chMtxUnlock,"ax",%progbits
 513              		.align	2
 514              		.p2align 4,,15
 515              		.global	chMtxUnlock
 516              		.thumb
 517              		.thumb_func
 518              		.type	chMtxUnlock, %function
 519              	chMtxUnlock:
 520              	.LFB12:
 521              		.loc 1 257 0
 522              		.cfi_startproc
 523              		@ args = 0, pretend = 0, frame = 0
 524              		@ frame_needed = 0, uses_anonymous_args = 0
 525              		.loc 1 258 0
 526 0000 174A     		ldr	r2, .L47
 527              		.loc 1 257 0
 528 0002 F8B5     		push	{r3, r4, r5, r6, r7, lr}
 529              	.LCFI2:
 530              		.cfi_def_cfa_offset 24
 531              		.loc 1 258 0
 532 0004 9269     		ldr	r2, [r2, #24]
 533              	.LVL39:
 534              	.LBB74:
 535              		.loc 1 261 0
 536 0006 2023     		movs	r3, #32
 537              		.cfi_offset 14, -4
 538              		.cfi_offset 7, -8
 539              		.cfi_offset 6, -12
 540              		.cfi_offset 5, -16
 541              		.cfi_offset 4, -20
 542              		.cfi_offset 3, -24
 543              	.LVL40:
 544              	@ 261 "../chibios_2.6.3/os/kernel/src/chmtx.c" 1
 545 0008 83F31188 		msr     BASEPRI, r3
 546              	@ 0 "" 2
 547              	.LVL41:
 548              		.thumb
 549              	.LBE74:
 550              		.loc 1 270 0
 551 000c D46B     		ldr	r4, [r2, #60]
 552              	.LVL42:
 553              		.loc 1 273 0
 554 000e 2368     		ldr	r3, [r4, #0]
 555              	.LVL43:
 556              		.loc 1 271 0
 557 0010 E168     		ldr	r1, [r4, #12]
 558              		.loc 1 273 0
 559 0012 A342     		cmp	r3, r4
 560              		.loc 1 271 0
 561 0014 D163     		str	r1, [r2, #60]
ARM GAS  C:\DOCUME~1\z_80\LOCALS~1\Temp\cc1tcHiZ.s 			page 11


 562              		.loc 1 273 0
 563 0016 1CD0     		beq	.L40
 564              	.LBB75:
 565              		.loc 1 278 0
 566 0018 176C     		ldr	r7, [r2, #64]
 567              	.LVL44:
 568              		.loc 1 280 0
 569 001a 49B1     		cbz	r1, .L41
 570              	.LVL45:
 571              	.L45:
 572              		.loc 1 284 0
 573 001c 0868     		ldr	r0, [r1, #0]
 574 001e 8842     		cmp	r0, r1
 575 0020 03D0     		beq	.L42
 576              		.loc 1 284 0 is_stmt 0 discriminator 1
 577 0022 8068     		ldr	r0, [r0, #8]
 578 0024 8742     		cmp	r7, r0
 579 0026 38BF     		it	cc
 580 0028 0746     		movcc	r7, r0
 581              	.LVL46:
 582              	.L42:
 583              		.loc 1 286 0 is_stmt 1
 584 002a C968     		ldr	r1, [r1, #12]
 585              	.LVL47:
 586              		.loc 1 280 0
 587 002c 0029     		cmp	r1, #0
 588 002e F5D1     		bne	.L45
 589              	.L41:
 590              	.LBB76:
 591              	.LBB78:
 592              		.loc 2 62 0
 593 0030 1D68     		ldr	r5, [r3, #0]
 594              	.LBE78:
 595              	.LBE76:
 596              		.loc 1 295 0
 597 0032 DE6B     		ldr	r6, [r3, #60]
 598              		.loc 1 290 0
 599 0034 9760     		str	r7, [r2, #8]
 600              	.LVL48:
 601              		.loc 1 297 0
 602 0036 1846     		mov	r0, r3
 603              	.LBB80:
 604              	.LBB77:
 605              		.loc 2 62 0
 606 0038 2560     		str	r5, [r4, #0]
 607              	.LBE77:
 608              	.LBE80:
 609              		.loc 1 297 0
 610 003a 0021     		movs	r1, #0
 611              	.LVL49:
 612              	.LBB81:
 613              	.LBB79:
 614              		.loc 2 62 0
 615 003c 6C60     		str	r4, [r5, #4]
 616              	.LBE79:
 617              	.LBE81:
 618              		.loc 1 294 0
ARM GAS  C:\DOCUME~1\z_80\LOCALS~1\Temp\cc1tcHiZ.s 			page 12


 619 003e A360     		str	r3, [r4, #8]
 620              		.loc 1 295 0
 621 0040 E660     		str	r6, [r4, #12]
 622              		.loc 1 296 0
 623 0042 DC63     		str	r4, [r3, #60]
 624              		.loc 1 297 0
 625 0044 FFF7FEFF 		bl	chSchWakeupS
 626              	.LVL50:
 627              	.LBE75:
 628              	.LBB82:
 629              		.loc 1 301 0
 630 0048 0023     		movs	r3, #0
 631              	.LVL51:
 632              	@ 301 "../chibios_2.6.3/os/kernel/src/chmtx.c" 1
 633 004a 83F31188 		msr     BASEPRI, r3
 634              	@ 0 "" 2
 635              	.LVL52:
 636              		.thumb
 637              	.LBE82:
 638              		.loc 1 303 0
 639 004e 2046     		mov	r0, r4
 640 0050 F8BD     		pop	{r3, r4, r5, r6, r7, pc}
 641              	.LVL53:
 642              	.L40:
 643              		.loc 1 300 0
 644 0052 0023     		movs	r3, #0
 645 0054 A360     		str	r3, [r4, #8]
 646              	.LBB83:
 647              		.loc 1 301 0
 648 0056 0023     		movs	r3, #0
 649              	@ 301 "../chibios_2.6.3/os/kernel/src/chmtx.c" 1
 650 0058 83F31188 		msr     BASEPRI, r3
 651              	@ 0 "" 2
 652              	.LVL54:
 653              		.thumb
 654              	.LBE83:
 655              		.loc 1 303 0
 656 005c 2046     		mov	r0, r4
 657 005e F8BD     		pop	{r3, r4, r5, r6, r7, pc}
 658              	.L48:
 659              		.align	2
 660              	.L47:
 661 0060 00000000 		.word	rlist
 662              		.cfi_endproc
 663              	.LFE12:
 664              		.size	chMtxUnlock, .-chMtxUnlock
 665 0064 AFF30080 		.section	.text.chMtxUnlockS,"ax",%progbits
 665      AFF30080 
 665      AFF30080 
 666              		.align	2
 667              		.p2align 4,,15
 668              		.global	chMtxUnlockS
 669              		.thumb
 670              		.thumb_func
 671              		.type	chMtxUnlockS, %function
 672              	chMtxUnlockS:
 673              	.LFB13:
ARM GAS  C:\DOCUME~1\z_80\LOCALS~1\Temp\cc1tcHiZ.s 			page 13


 674              		.loc 1 317 0
 675              		.cfi_startproc
 676              		@ args = 0, pretend = 0, frame = 0
 677              		@ frame_needed = 0, uses_anonymous_args = 0
 678              		.loc 1 318 0
 679 0000 124B     		ldr	r3, .L57
 680              		.loc 1 317 0
 681 0002 70B5     		push	{r4, r5, r6, lr}
 682              	.LCFI3:
 683              		.cfi_def_cfa_offset 16
 684              		.loc 1 318 0
 685 0004 9969     		ldr	r1, [r3, #24]
 686              	.LVL55:
 687              		.loc 1 331 0
 688 0006 CC6B     		ldr	r4, [r1, #60]
 689              		.cfi_offset 14, -4
 690              		.cfi_offset 6, -8
 691              		.cfi_offset 5, -12
 692              		.cfi_offset 4, -16
 693              	.LVL56:
 694              		.loc 1 334 0
 695 0008 2368     		ldr	r3, [r4, #0]
 696              	.LVL57:
 697              		.loc 1 332 0
 698 000a E268     		ldr	r2, [r4, #12]
 699              		.loc 1 334 0
 700 000c A342     		cmp	r3, r4
 701              		.loc 1 332 0
 702 000e CA63     		str	r2, [r1, #60]
 703              		.loc 1 334 0
 704 0010 18D0     		beq	.L50
 705              	.LBB84:
 706              		.loc 1 339 0
 707 0012 0E6C     		ldr	r6, [r1, #64]
 708              	.LVL58:
 709              		.loc 1 341 0
 710 0014 4AB1     		cbz	r2, .L51
 711              	.LVL59:
 712              	.L55:
 713              		.loc 1 345 0
 714 0016 1068     		ldr	r0, [r2, #0]
 715 0018 9042     		cmp	r0, r2
 716 001a 03D0     		beq	.L52
 717              		.loc 1 345 0 is_stmt 0 discriminator 1
 718 001c 8068     		ldr	r0, [r0, #8]
 719 001e 8642     		cmp	r6, r0
 720 0020 38BF     		it	cc
 721 0022 0646     		movcc	r6, r0
 722              	.LVL60:
 723              	.L52:
 724              		.loc 1 347 0 is_stmt 1
 725 0024 D268     		ldr	r2, [r2, #12]
 726              	.LVL61:
 727              		.loc 1 341 0
 728 0026 002A     		cmp	r2, #0
 729 0028 F5D1     		bne	.L55
 730              	.L51:
ARM GAS  C:\DOCUME~1\z_80\LOCALS~1\Temp\cc1tcHiZ.s 			page 14


 731              	.LBB85:
 732              	.LBB86:
 733              		.loc 2 62 0
 734 002a 1A68     		ldr	r2, [r3, #0]
 735              	.LVL62:
 736              	.LBE86:
 737              	.LBE85:
 738              		.loc 1 354 0
 739 002c DD6B     		ldr	r5, [r3, #60]
 740              		.loc 1 349 0
 741 002e 8E60     		str	r6, [r1, #8]
 742              	.LVL63:
 743              		.loc 1 356 0
 744 0030 1846     		mov	r0, r3
 745              	.LBB88:
 746              	.LBB87:
 747              		.loc 2 62 0
 748 0032 2260     		str	r2, [r4, #0]
 749 0034 5460     		str	r4, [r2, #4]
 750              	.LBE87:
 751              	.LBE88:
 752              		.loc 1 353 0
 753 0036 A360     		str	r3, [r4, #8]
 754              		.loc 1 354 0
 755 0038 E560     		str	r5, [r4, #12]
 756              		.loc 1 355 0
 757 003a DC63     		str	r4, [r3, #60]
 758              		.loc 1 356 0
 759 003c FFF7FEFF 		bl	chSchReadyI
 760              	.LVL64:
 761              	.LBE84:
 762              		.loc 1 361 0
 763 0040 2046     		mov	r0, r4
 764 0042 70BD     		pop	{r4, r5, r6, pc}
 765              	.LVL65:
 766              	.L50:
 767              		.loc 1 359 0
 768 0044 0021     		movs	r1, #0
 769              	.LVL66:
 770 0046 A160     		str	r1, [r4, #8]
 771              		.loc 1 361 0
 772 0048 2046     		mov	r0, r4
 773 004a 70BD     		pop	{r4, r5, r6, pc}
 774              	.L58:
 775              		.align	2
 776              	.L57:
 777 004c 00000000 		.word	rlist
 778              		.cfi_endproc
 779              	.LFE13:
 780              		.size	chMtxUnlockS, .-chMtxUnlockS
 781              		.section	.text.chMtxUnlockAll,"ax",%progbits
 782              		.align	2
 783              		.p2align 4,,15
 784              		.global	chMtxUnlockAll
 785              		.thumb
 786              		.thumb_func
 787              		.type	chMtxUnlockAll, %function
ARM GAS  C:\DOCUME~1\z_80\LOCALS~1\Temp\cc1tcHiZ.s 			page 15


 788              	chMtxUnlockAll:
 789              	.LFB14:
 790              		.loc 1 374 0
 791              		.cfi_startproc
 792              		@ args = 0, pretend = 0, frame = 0
 793              		@ frame_needed = 0, uses_anonymous_args = 0
 794              		.loc 1 375 0
 795 0000 134A     		ldr	r2, .L67
 796              		.loc 1 374 0
 797 0002 70B5     		push	{r4, r5, r6, lr}
 798              	.LCFI4:
 799              		.cfi_def_cfa_offset 16
 800              	.LBB89:
 801              		.loc 1 377 0
 802 0004 2023     		movs	r3, #32
 803              	.LVL67:
 804              	.LBE89:
 805              		.loc 1 375 0
 806 0006 9469     		ldr	r4, [r2, #24]
 807              		.cfi_offset 14, -4
 808              		.cfi_offset 6, -8
 809              		.cfi_offset 5, -12
 810              		.cfi_offset 4, -16
 811              	.LVL68:
 812              	.LBB90:
 813              		.loc 1 377 0
 814              	@ 377 "../chibios_2.6.3/os/kernel/src/chmtx.c" 1
 815 0008 83F31188 		msr     BASEPRI, r3
 816              	@ 0 "" 2
 817              	.LVL69:
 818              		.thumb
 819              	.LBE90:
 820              		.loc 1 378 0
 821 000c E36B     		ldr	r3, [r4, #60]
 822              	.LVL70:
 823 000e B3B1     		cbz	r3, .L60
 824              	.LBB91:
 825              		.loc 1 390 0
 826 0010 0025     		movs	r5, #0
 827              	.LVL71:
 828              	.L64:
 829              		.loc 1 382 0
 830 0012 1A68     		ldr	r2, [r3, #0]
 831              		.loc 1 381 0
 832 0014 D968     		ldr	r1, [r3, #12]
 833              		.loc 1 382 0
 834 0016 9A42     		cmp	r2, r3
 835              	.LBB93:
 836              		.loc 1 387 0
 837 0018 1046     		mov	r0, r2
 838              	.LBE93:
 839              		.loc 1 381 0
 840 001a E163     		str	r1, [r4, #60]
 841              		.loc 1 382 0
 842 001c 13D0     		beq	.L61
 843              	.LVL72:
 844              	.LBB92:
ARM GAS  C:\DOCUME~1\z_80\LOCALS~1\Temp\cc1tcHiZ.s 			page 16


 845              	.LBB94:
 846              	.LBB95:
 847              		.loc 2 62 0
 848 001e 1168     		ldr	r1, [r2, #0]
 849              	.LBE95:
 850              	.LBE94:
 851              		.loc 1 385 0
 852 0020 D66B     		ldr	r6, [r2, #60]
 853              	.LBB97:
 854              	.LBB96:
 855              		.loc 2 62 0
 856 0022 1960     		str	r1, [r3, #0]
 857 0024 4B60     		str	r3, [r1, #4]
 858              	.LBE96:
 859              	.LBE97:
 860              		.loc 1 384 0
 861 0026 9A60     		str	r2, [r3, #8]
 862              		.loc 1 385 0
 863 0028 DE60     		str	r6, [r3, #12]
 864              		.loc 1 386 0
 865 002a D363     		str	r3, [r2, #60]
 866              		.loc 1 387 0
 867 002c FFF7FEFF 		bl	chSchReadyI
 868              	.LVL73:
 869 0030 E36B     		ldr	r3, [r4, #60]
 870              	.LBE92:
 871              	.LBE91:
 872              		.loc 1 391 0
 873 0032 002B     		cmp	r3, #0
 874 0034 EDD1     		bne	.L64
 875              	.L66:
 876              		.loc 1 392 0
 877 0036 236C     		ldr	r3, [r4, #64]
 878 0038 A360     		str	r3, [r4, #8]
 879              		.loc 1 393 0
 880 003a FFF7FEFF 		bl	chSchRescheduleS
 881              	.L60:
 882              	.LBB98:
 883              		.loc 1 395 0
 884 003e 0023     		movs	r3, #0
 885              	.LVL74:
 886              	@ 395 "../chibios_2.6.3/os/kernel/src/chmtx.c" 1
 887 0040 83F31188 		msr     BASEPRI, r3
 888              	@ 0 "" 2
 889              	.LVL75:
 890              		.thumb
 891              	.LBE98:
 892              		.loc 1 396 0
 893 0044 70BD     		pop	{r4, r5, r6, pc}
 894              	.LVL76:
 895              	.L61:
 896              	.LBB99:
 897              		.loc 1 390 0
 898 0046 9D60     		str	r5, [r3, #8]
 899 0048 0B46     		mov	r3, r1
 900              	.LVL77:
 901              	.LBE99:
ARM GAS  C:\DOCUME~1\z_80\LOCALS~1\Temp\cc1tcHiZ.s 			page 17


 902              		.loc 1 391 0
 903 004a 002B     		cmp	r3, #0
 904 004c E1D1     		bne	.L64
 905 004e F2E7     		b	.L66
 906              	.L68:
 907              		.align	2
 908              	.L67:
 909 0050 00000000 		.word	rlist
 910              		.cfi_endproc
 911              	.LFE14:
 912              		.size	chMtxUnlockAll, .-chMtxUnlockAll
 913 0054 AFF30080 		.text
 913      AFF30080 
 913      AFF30080 
 914              	.Letext0: