ARM GAS  C:\DOCUME~1\z_80\LOCALS~1\Temp\ccJNPaGF.s 			page 1


   1              		.syntax unified
   2              		.cpu cortex-m3
   3              		.fpu softvfp
   4              		.eabi_attribute 20, 1
   5              		.eabi_attribute 21, 1
   6              		.eabi_attribute 23, 3
   7              		.eabi_attribute 24, 1
   8              		.eabi_attribute 25, 1
   9              		.eabi_attribute 26, 1
  10              		.eabi_attribute 30, 2
  11              		.eabi_attribute 18, 4
  12              		.thumb
  13              		.file	"chschd.c"
  20 0000 49030000 		.text
  20      02007201 
  20      00000201 
  20      FB0E0D00 
  20      01010101 
  21              	.Ltext0:
  22              		.cfi_sections	.debug_frame
  23              		.section	.text.wakeup,"ax",%progbits
  24              		.align	2
  25              		.p2align 4,,15
  26              		.thumb
  27              		.thumb_func
  28              		.type	wakeup, %function
  29              	wakeup:
  30              	.LFB10:
  31              		.file 1 "../chibios_2.6.3/os/kernel/src/chschd.c"
  32              		.loc 1 136 0
  33              		.cfi_startproc
  34              		@ args = 0, pretend = 0, frame = 0
  35              		@ frame_needed = 0, uses_anonymous_args = 0
  36              		@ link register save eliminated.
  37              	.LVL0:
  38              	.LBB22:
  39              		.loc 1 139 0
  40 0000 2023     		movs	r3, #32
  41              	.LVL1:
  42              	@ 139 "../chibios_2.6.3/os/kernel/src/chschd.c" 1
  43 0002 83F31188 		msr     BASEPRI, r3
  44              	@ 0 "" 2
  45              	.LVL2:
  46              		.thumb
  47              	.LBE22:
  48              		.loc 1 140 0
  49 0006 037F     		ldrb	r3, [r0, #28]	@ zero_extendqisi2
  50              	.LVL3:
  51 0008 0D2B     		cmp	r3, #13
  52 000a 11D8     		bhi	.L2
  53 000c DFE803F0 		tbb	[pc, r3]
ARM GAS  C:\DOCUME~1\z_80\LOCALS~1\Temp\ccJNPaGF.s 			page 2


  54              	.L6:
  55 0010 24       		.byte	(.L3-.L6)/2
  56 0011 10       		.byte	(.L2-.L6)/2
  57 0012 10       		.byte	(.L2-.L6)/2
  58 0013 07       		.byte	(.L4-.L6)/2
  59 0014 10       		.byte	(.L2-.L6)/2
  60 0015 0B       		.byte	(.L5-.L6)/2
  61 0016 10       		.byte	(.L2-.L6)/2
  62 0017 10       		.byte	(.L2-.L6)/2
  63 0018 10       		.byte	(.L2-.L6)/2
  64 0019 10       		.byte	(.L2-.L6)/2
  65 001a 10       		.byte	(.L2-.L6)/2
  66 001b 10       		.byte	(.L2-.L6)/2
  67 001c 10       		.byte	(.L2-.L6)/2
  68 001d 0B       		.byte	(.L5-.L6)/2
  69              		.align	1
  70              	.L4:
  71              		.loc 1 150 0
  72 001e 416A     		ldr	r1, [r0, #36]
  73 0020 8B68     		ldr	r3, [r1, #8]
  74 0022 5A1C     		adds	r2, r3, #1
  75 0024 8A60     		str	r2, [r1, #8]
  76              	.L5:
  77              	.LVL4:
  78              	.LBB23:
  79              	.LBB24:
  80              		.file 2 "../chibios_2.6.3/os/kernel/include/chinline.h"
  81              		.loc 2 75 0
  82 0026 4168     		ldr	r1, [r0, #4]
  83 0028 0368     		ldr	r3, [r0, #0]
  84 002a 0B60     		str	r3, [r1, #0]
  85              		.loc 2 76 0
  86 002c 0268     		ldr	r2, [r0, #0]
  87 002e 5160     		str	r1, [r2, #4]
  88              	.LVL5:
  89              	.L2:
  90              	.LBE24:
  91              	.LBE23:
  92              		.loc 1 163 0
  93 0030 4FF0FF32 		mov	r2, #-1
  94 0034 4262     		str	r2, [r0, #36]
  95              	.LVL6:
  96              	.LBB25:
  97              	.LBB26:
  98              		.loc 1 93 0
  99 0036 0A4B     		ldr	r3, .L11
 100              		.loc 1 92 0
 101 0038 0022     		movs	r2, #0
 102              		.loc 1 93 0
 103 003a 8168     		ldr	r1, [r0, #8]
 104              		.loc 1 92 0
 105 003c 0277     		strb	r2, [r0, #28]
 106              	.LVL7:
 107              	.L8:
 108              		.loc 1 95 0
 109 003e 1B68     		ldr	r3, [r3, #0]
 110              	.LVL8:
ARM GAS  C:\DOCUME~1\z_80\LOCALS~1\Temp\ccJNPaGF.s 			page 3


 111              		.loc 1 96 0
 112 0040 9A68     		ldr	r2, [r3, #8]
 113 0042 9142     		cmp	r1, r2
 114 0044 FBD9     		bls	.L8
 115              		.loc 1 99 0
 116 0046 5968     		ldr	r1, [r3, #4]
 117              		.loc 1 98 0
 118 0048 0360     		str	r3, [r0, #0]
 119              		.loc 1 99 0
 120 004a 4160     		str	r1, [r0, #4]
 121              		.loc 1 100 0
 122 004c 0860     		str	r0, [r1, #0]
 123 004e 5860     		str	r0, [r3, #4]
 124              	.LBE26:
 125              	.LBE25:
 126              	.LBB27:
 127              		.loc 1 165 0
 128 0050 0023     		movs	r3, #0
 129              	.LVL9:
 130              	@ 165 "../chibios_2.6.3/os/kernel/src/chschd.c" 1
 131 0052 83F31188 		msr     BASEPRI, r3
 132              	@ 0 "" 2
 133              	.LVL10:
 134              		.thumb
 135 0056 7047     		bx	lr
 136              	.LVL11:
 137              	.L3:
 138              	.LBE27:
 139              	.LBB28:
 140              		.loc 1 144 0
 141 0058 0023     		movs	r3, #0
 142              	.LVL12:
 143              	@ 144 "../chibios_2.6.3/os/kernel/src/chschd.c" 1
 144 005a 83F31188 		msr     BASEPRI, r3
 145              	@ 0 "" 2
 146              	.LVL13:
 147              		.thumb
 148              	.LBE28:
 149              		.loc 1 145 0
 150 005e 7047     		bx	lr
 151              	.L12:
 152              		.align	2
 153              	.L11:
 154 0060 00000000 		.word	.LANCHOR0
 155              		.cfi_endproc
 156              	.LFE10:
 157              		.size	wakeup, .-wakeup
 158 0064 AFF30080 		.section	.text._scheduler_init,"ax",%progbits
 158      AFF30080 
 158      AFF30080 
 159              		.align	2
 160              		.p2align 4,,15
 161              		.global	_scheduler_init
 162              		.thumb
 163              		.thumb_func
 164              		.type	_scheduler_init, %function
 165              	_scheduler_init:
ARM GAS  C:\DOCUME~1\z_80\LOCALS~1\Temp\ccJNPaGF.s 			page 4


 166              	.LFB7:
 167              		.loc 1 55 0
 168              		.cfi_startproc
 169              		@ args = 0, pretend = 0, frame = 0
 170              		@ frame_needed = 0, uses_anonymous_args = 0
 171              		@ link register save eliminated.
 172              		.loc 1 57 0
 173 0000 034B     		ldr	r3, .L14
 174              		.loc 1 58 0
 175 0002 0022     		movs	r2, #0
 176              		.loc 1 57 0
 177 0004 5B60     		str	r3, [r3, #4]
 178 0006 1B60     		str	r3, [r3, #0]
 179              		.loc 1 58 0
 180 0008 9A60     		str	r2, [r3, #8]
 181              		.loc 1 60 0
 182 000a 5B61     		str	r3, [r3, #20]
 183 000c 1B61     		str	r3, [r3, #16]
 184              		.loc 1 62 0
 185 000e 7047     		bx	lr
 186              	.L15:
 187              		.align	2
 188              	.L14:
 189 0010 00000000 		.word	.LANCHOR0
 190              		.cfi_endproc
 191              	.LFE7:
 192              		.size	_scheduler_init, .-_scheduler_init
 193 0014 AFF30080 		.section	.text.chSchReadyI,"ax",%progbits
 193      AFF30080 
 193      AFF30080 
 194              		.align	2
 195              		.p2align 4,,15
 196              		.global	chSchReadyI
 197              		.thumb
 198              		.thumb_func
 199              		.type	chSchReadyI, %function
 200              	chSchReadyI:
 201              	.LFB8:
 202              		.loc 1 81 0
 203              		.cfi_startproc
 204              		@ args = 0, pretend = 0, frame = 0
 205              		@ frame_needed = 0, uses_anonymous_args = 0
 206              		@ link register save eliminated.
 207              	.LVL14:
 208              		.loc 1 92 0
 209 0000 0022     		movs	r2, #0
 210              		.loc 1 93 0
 211 0002 064B     		ldr	r3, .L19
 212              	.LVL15:
 213 0004 8168     		ldr	r1, [r0, #8]
 214              		.loc 1 92 0
 215 0006 0277     		strb	r2, [r0, #28]
 216              	.LVL16:
 217              	.L17:
 218              		.loc 1 95 0 discriminator 1
 219 0008 1B68     		ldr	r3, [r3, #0]
 220              	.LVL17:
ARM GAS  C:\DOCUME~1\z_80\LOCALS~1\Temp\ccJNPaGF.s 			page 5


 221              		.loc 1 96 0 discriminator 1
 222 000a 9A68     		ldr	r2, [r3, #8]
 223 000c 8A42     		cmp	r2, r1
 224 000e FBD2     		bcs	.L17
 225              		.loc 1 99 0
 226 0010 5968     		ldr	r1, [r3, #4]
 227              		.loc 1 98 0
 228 0012 0360     		str	r3, [r0, #0]
 229              		.loc 1 99 0
 230 0014 4160     		str	r1, [r0, #4]
 231              		.loc 1 100 0
 232 0016 0860     		str	r0, [r1, #0]
 233 0018 5860     		str	r0, [r3, #4]
 234              		.loc 1 102 0
 235 001a 7047     		bx	lr
 236              	.L20:
 237              		.align	2
 238              	.L19:
 239 001c 00000000 		.word	.LANCHOR0
 240              		.cfi_endproc
 241              	.LFE8:
 242              		.size	chSchReadyI, .-chSchReadyI
 243              		.section	.text.chSchGoSleepS,"ax",%progbits
 244              		.align	2
 245              		.p2align 4,,15
 246              		.global	chSchGoSleepS
 247              		.thumb
 248              		.thumb_func
 249              		.type	chSchGoSleepS, %function
 250              	chSchGoSleepS:
 251              	.LFB9:
 252              		.loc 1 115 0
 253              		.cfi_startproc
 254              		@ args = 0, pretend = 0, frame = 0
 255              		@ frame_needed = 0, uses_anonymous_args = 0
 256              		@ link register save eliminated.
 257              	.LVL18:
 258              		.loc 1 120 0
 259 0000 084B     		ldr	r3, .L22
 260              		.loc 1 115 0
 261 0002 10B4     		push	{r4}
 262              	.LCFI0:
 263              		.cfi_def_cfa_offset 4
 264              		.loc 1 120 0
 265 0004 9969     		ldr	r1, [r3, #24]
 266              	.LVL19:
 267              		.loc 1 124 0
 268 0006 1424     		movs	r4, #20
 269              		.cfi_offset 4, -4
 270              		.loc 1 120 0
 271 0008 0877     		strb	r0, [r1, #28]
 272              		.loc 1 124 0
 273 000a CC77     		strb	r4, [r1, #31]
 274              	.LVL20:
 275              	.LBB29:
 276              	.LBB31:
 277              		.loc 2 60 0
ARM GAS  C:\DOCUME~1\z_80\LOCALS~1\Temp\ccJNPaGF.s 			page 6


 278 000c 1A68     		ldr	r2, [r3, #0]
 279              	.LVL21:
 280              	.LBE31:
 281              	.LBE29:
 282              		.loc 1 127 0
 283 000e 0120     		movs	r0, #1
 284              	.LVL22:
 285              	.LBB33:
 286              	.LBB30:
 287              		.loc 2 62 0
 288 0010 1468     		ldr	r4, [r2, #0]
 289              	.LBE30:
 290              	.LBE33:
 291              		.loc 1 127 0
 292 0012 1077     		strb	r0, [r2, #28]
 293              		.loc 1 128 0
 294 0014 1046     		mov	r0, r2
 295              	.LBB34:
 296              	.LBB32:
 297              		.loc 2 62 0
 298 0016 6360     		str	r3, [r4, #4]
 299 0018 1C60     		str	r4, [r3, #0]
 300              	.LBE32:
 301              	.LBE34:
 302              		.loc 1 126 0
 303 001a 9A61     		str	r2, [r3, #24]
 304              		.loc 1 129 0
 305 001c 10BC     		pop	{r4}
 306              		.loc 1 128 0
 307 001e FFF7FEBF 		b	_port_switch
 308              	.LVL23:
 309              	.L23:
 310 0022 00BF     		.align	2
 311              	.L22:
 312 0024 00000000 		.word	.LANCHOR0
 313              		.cfi_endproc
 314              	.LFE9:
 315              		.size	chSchGoSleepS, .-chSchGoSleepS
 316 0028 AFF30080 		.section	.text.chSchGoSleepTimeoutS,"ax",%progbits
 316      AFF30080 
 317              		.align	2
 318              		.p2align 4,,15
 319              		.global	chSchGoSleepTimeoutS
 320              		.thumb
 321              		.thumb_func
 322              		.type	chSchGoSleepTimeoutS, %function
 323              	chSchGoSleepTimeoutS:
 324              	.LFB11:
 325              		.loc 1 189 0
 326              		.cfi_startproc
 327              		@ args = 0, pretend = 0, frame = 24
 328              		@ frame_needed = 0, uses_anonymous_args = 0
 329              	.LVL24:
 330 0000 30B5     		push	{r4, r5, lr}
 331              	.LCFI1:
 332              		.cfi_def_cfa_offset 12
 333              		.loc 1 193 0
ARM GAS  C:\DOCUME~1\z_80\LOCALS~1\Temp\ccJNPaGF.s 			page 7


 334 0002 B1F1FF3F 		cmp	r1, #-1
 335              		.loc 1 189 0
 336 0006 87B0     		sub	sp, sp, #28
 337              	.LCFI2:
 338              		.cfi_def_cfa_offset 40
 339              		.loc 1 189 0
 340 0008 0546     		mov	r5, r0
 341              		.cfi_offset 14, -4
 342              		.cfi_offset 5, -8
 343              		.cfi_offset 4, -12
 344              		.loc 1 193 0
 345 000a 11D0     		beq	.L25
 346              	.LBB35:
 347              		.loc 1 196 0
 348 000c 0A4C     		ldr	r4, .L27
 349 000e 0B4A     		ldr	r2, .L27+4
 350 0010 A369     		ldr	r3, [r4, #24]
 351 0012 01A8     		add	r0, sp, #4
 352              	.LVL25:
 353 0014 FFF7FEFF 		bl	chVTSetI
 354              	.LVL26:
 355              		.loc 1 197 0
 356 0018 2846     		mov	r0, r5
 357 001a FFF7FEFF 		bl	chSchGoSleepS
 358              		.loc 1 198 0
 359 001e 049B     		ldr	r3, [sp, #16]
 360 0020 13B1     		cbz	r3, .L26
 361              		.loc 1 199 0
 362 0022 01A8     		add	r0, sp, #4
 363 0024 FFF7FEFF 		bl	chVTResetI
 364              	.L26:
 365              	.LBE35:
 366              		.loc 1 203 0
 367 0028 A069     		ldr	r0, [r4, #24]
 368              		.loc 1 204 0
 369 002a 406A     		ldr	r0, [r0, #36]
 370 002c 07B0     		add	sp, sp, #28
 371 002e 30BD     		pop	{r4, r5, pc}
 372              	.LVL27:
 373              	.L25:
 374              		.loc 1 202 0
 375 0030 FFF7FEFF 		bl	chSchGoSleepS
 376              	.LVL28:
 377 0034 004C     		ldr	r4, .L27
 378 0036 F7E7     		b	.L26
 379              	.L28:
 380              		.align	2
 381              	.L27:
 382 0038 00000000 		.word	.LANCHOR0
 383 003c 00000000 		.word	wakeup
 384              		.cfi_endproc
 385              	.LFE11:
 386              		.size	chSchGoSleepTimeoutS, .-chSchGoSleepTimeoutS
 387              		.section	.text.chSchWakeupS,"ax",%progbits
 388              		.align	2
 389              		.p2align 4,,15
 390              		.global	chSchWakeupS
ARM GAS  C:\DOCUME~1\z_80\LOCALS~1\Temp\ccJNPaGF.s 			page 8


 391              		.thumb
 392              		.thumb_func
 393              		.type	chSchWakeupS, %function
 394              	chSchWakeupS:
 395              	.LFB12:
 396              		.loc 1 225 0
 397              		.cfi_startproc
 398              		@ args = 0, pretend = 0, frame = 0
 399              		@ frame_needed = 0, uses_anonymous_args = 0
 400              		@ link register save eliminated.
 401              	.LVL29:
 402 0000 30B4     		push	{r4, r5}
 403              	.LCFI3:
 404              		.cfi_def_cfa_offset 8
 405              		.loc 1 234 0
 406 0002 144C     		ldr	r4, .L36
 407              		.cfi_offset 5, -4
 408              		.cfi_offset 4, -8
 409              		.loc 1 225 0
 410 0004 0346     		mov	r3, r0
 411              		.loc 1 234 0
 412 0006 A269     		ldr	r2, [r4, #24]
 413 0008 8568     		ldr	r5, [r0, #8]
 414 000a 9068     		ldr	r0, [r2, #8]
 415              	.LVL30:
 416              		.loc 1 229 0
 417 000c 5962     		str	r1, [r3, #36]
 418              		.loc 1 234 0
 419 000e 8542     		cmp	r5, r0
 420 0010 0CD8     		bhi	.L30
 421              	.LVL31:
 422              	.LBB36:
 423              	.LBB37:
 424              		.loc 1 92 0
 425 0012 0022     		movs	r2, #0
 426 0014 1A77     		strb	r2, [r3, #28]
 427              	.LVL32:
 428              	.L31:
 429              		.loc 1 95 0
 430 0016 2468     		ldr	r4, [r4, #0]
 431              	.LVL33:
 432              		.loc 1 96 0
 433 0018 A068     		ldr	r0, [r4, #8]
 434 001a 8542     		cmp	r5, r0
 435 001c FBD9     		bls	.L31
 436              		.loc 1 99 0
 437 001e 6168     		ldr	r1, [r4, #4]
 438              	.LVL34:
 439              		.loc 1 98 0
 440 0020 1C60     		str	r4, [r3, #0]
 441              		.loc 1 99 0
 442 0022 5960     		str	r1, [r3, #4]
 443              		.loc 1 100 0
 444 0024 0B60     		str	r3, [r1, #0]
 445 0026 6360     		str	r3, [r4, #4]
 446              	.LBE37:
 447              	.LBE36:
ARM GAS  C:\DOCUME~1\z_80\LOCALS~1\Temp\ccJNPaGF.s 			page 9


 448              		.loc 1 242 0
 449 0028 30BC     		pop	{r4, r5}
 450 002a 7047     		bx	lr
 451              	.LVL35:
 452              	.L30:
 453              	.LBB38:
 454              	.LBB40:
 455              	.LBB41:
 456              		.loc 1 92 0
 457 002c 0025     		movs	r5, #0
 458 002e 1577     		strb	r5, [r2, #28]
 459              		.loc 1 93 0
 460 0030 2146     		mov	r1, r4
 461              	.LVL36:
 462              	.L33:
 463              		.loc 1 95 0
 464 0032 0968     		ldr	r1, [r1, #0]
 465              	.LVL37:
 466              		.loc 1 96 0
 467 0034 8D68     		ldr	r5, [r1, #8]
 468 0036 A842     		cmp	r0, r5
 469 0038 FBD9     		bls	.L33
 470              		.loc 1 99 0
 471 003a 4868     		ldr	r0, [r1, #4]
 472              		.loc 1 98 0
 473 003c 1160     		str	r1, [r2, #0]
 474              		.loc 1 99 0
 475 003e 5060     		str	r0, [r2, #4]
 476              		.loc 1 100 0
 477 0040 0260     		str	r2, [r0, #0]
 478              	.LBE41:
 479              	.LBE40:
 480              		.loc 1 239 0
 481 0042 0120     		movs	r0, #1
 482              	.LBB39:
 483              	.LBB42:
 484              		.loc 1 100 0
 485 0044 4A60     		str	r2, [r1, #4]
 486              	.LBE42:
 487              	.LBE39:
 488              		.loc 1 239 0
 489 0046 1877     		strb	r0, [r3, #28]
 490              		.loc 1 240 0
 491 0048 1146     		mov	r1, r2
 492              	.LVL38:
 493 004a 1846     		mov	r0, r3
 494              		.loc 1 238 0
 495 004c A361     		str	r3, [r4, #24]
 496              	.LBE38:
 497              		.loc 1 242 0
 498 004e 30BC     		pop	{r4, r5}
 499              	.LBB43:
 500              		.loc 1 240 0
 501 0050 FFF7FEBF 		b	_port_switch
 502              	.LVL39:
 503              	.L37:
 504              		.align	2
ARM GAS  C:\DOCUME~1\z_80\LOCALS~1\Temp\ccJNPaGF.s 			page 10


 505              	.L36:
 506 0054 00000000 		.word	.LANCHOR0
 507              	.LBE43:
 508              		.cfi_endproc
 509              	.LFE12:
 510              		.size	chSchWakeupS, .-chSchWakeupS
 511 0058 AFF30080 		.section	.text.chSchDoRescheduleBehind,"ax",%progbits
 511      AFF30080 
 512              		.align	2
 513              		.p2align 4,,15
 514              		.global	chSchDoRescheduleBehind
 515              		.thumb
 516              		.thumb_func
 517              		.type	chSchDoRescheduleBehind, %function
 518              	chSchDoRescheduleBehind:
 519              	.LFB14:
 520              		.loc 1 304 0
 521              		.cfi_startproc
 522              		@ args = 0, pretend = 0, frame = 0
 523              		@ frame_needed = 0, uses_anonymous_args = 0
 524              		@ link register save eliminated.
 525              		.loc 1 307 0
 526 0000 0D4A     		ldr	r2, .L41
 527              		.loc 1 304 0
 528 0002 70B4     		push	{r4, r5, r6}
 529              	.LCFI4:
 530              		.cfi_def_cfa_offset 12
 531              	.LBB44:
 532              	.LBB46:
 533              		.loc 2 60 0
 534 0004 1068     		ldr	r0, [r2, #0]
 535              	.LBE46:
 536              	.LBE44:
 537              		.loc 1 307 0
 538 0006 9169     		ldr	r1, [r2, #24]
 539              	.LVL40:
 540              	.LBB48:
 541              	.LBB45:
 542              		.loc 2 62 0
 543 0008 0568     		ldr	r5, [r0, #0]
 544              		.cfi_offset 6, -4
 545              		.cfi_offset 5, -8
 546              		.cfi_offset 4, -12
 547 000a 1346     		mov	r3, r2
 548 000c 6A60     		str	r2, [r5, #4]
 549              	.LBE45:
 550              	.LBE48:
 551              	.LBB49:
 552              	.LBB51:
 553              		.loc 1 92 0
 554 000e 8C68     		ldr	r4, [r1, #8]
 555              	.LBE51:
 556              	.LBE49:
 557              	.LBB53:
 558              	.LBB47:
 559              		.loc 2 62 0
 560 0010 1560     		str	r5, [r2, #0]
ARM GAS  C:\DOCUME~1\z_80\LOCALS~1\Temp\ccJNPaGF.s 			page 11


 561              	.LBE47:
 562              	.LBE53:
 563              		.loc 1 309 0
 564 0012 9061     		str	r0, [r2, #24]
 565              		.loc 1 312 0
 566 0014 1422     		movs	r2, #20
 567              		.loc 1 310 0
 568 0016 0126     		movs	r6, #1
 569              		.loc 1 312 0
 570 0018 CA77     		strb	r2, [r1, #31]
 571              	.LVL41:
 572              	.LBB54:
 573              	.LBB50:
 574              		.loc 1 92 0
 575 001a 0022     		movs	r2, #0
 576              	.LBE50:
 577              	.LBE54:
 578              		.loc 1 310 0
 579 001c 0677     		strb	r6, [r0, #28]
 580              	.LBB55:
 581              	.LBB52:
 582              		.loc 1 92 0
 583 001e 0A77     		strb	r2, [r1, #28]
 584              	.LVL42:
 585              	.L39:
 586              		.loc 1 95 0
 587 0020 1B68     		ldr	r3, [r3, #0]
 588              	.LVL43:
 589              		.loc 1 96 0
 590 0022 9A68     		ldr	r2, [r3, #8]
 591 0024 A242     		cmp	r2, r4
 592 0026 FBD2     		bcs	.L39
 593              		.loc 1 99 0
 594 0028 5A68     		ldr	r2, [r3, #4]
 595              		.loc 1 98 0
 596 002a 0B60     		str	r3, [r1, #0]
 597              		.loc 1 99 0
 598 002c 4A60     		str	r2, [r1, #4]
 599              		.loc 1 100 0
 600 002e 1160     		str	r1, [r2, #0]
 601 0030 5960     		str	r1, [r3, #4]
 602              	.LBE52:
 603              	.LBE55:
 604              		.loc 1 316 0
 605 0032 70BC     		pop	{r4, r5, r6}
 606              		.loc 1 315 0
 607 0034 FFF7FEBF 		b	_port_switch
 608              	.LVL44:
 609              	.L42:
 610              		.align	2
 611              	.L41:
 612 0038 00000000 		.word	.LANCHOR0
 613              		.cfi_endproc
 614              	.LFE14:
 615              		.size	chSchDoRescheduleBehind, .-chSchDoRescheduleBehind
 616 003c AFF30080 		.section	.text.chSchDoRescheduleAhead,"ax",%progbits
 617              		.align	2
ARM GAS  C:\DOCUME~1\z_80\LOCALS~1\Temp\ccJNPaGF.s 			page 12


 618              		.p2align 4,,15
 619              		.global	chSchDoRescheduleAhead
 620              		.thumb
 621              		.thumb_func
 622              		.type	chSchDoRescheduleAhead, %function
 623              	chSchDoRescheduleAhead:
 624              	.LFB15:
 625              		.loc 1 329 0
 626              		.cfi_startproc
 627              		@ args = 0, pretend = 0, frame = 0
 628              		@ frame_needed = 0, uses_anonymous_args = 0
 629              		@ link register save eliminated.
 630              		.loc 1 332 0
 631 0000 0C4A     		ldr	r2, .L46
 632              		.loc 1 329 0
 633 0002 70B4     		push	{r4, r5, r6}
 634              	.LCFI5:
 635              		.cfi_def_cfa_offset 12
 636              	.LBB56:
 637              	.LBB58:
 638              		.loc 2 60 0
 639 0004 1068     		ldr	r0, [r2, #0]
 640              	.LBE58:
 641              	.LBE56:
 642              		.loc 1 332 0
 643 0006 9169     		ldr	r1, [r2, #24]
 644              	.LVL45:
 645              	.LBB60:
 646              	.LBB57:
 647              		.loc 2 62 0
 648 0008 0568     		ldr	r5, [r0, #0]
 649              		.cfi_offset 6, -4
 650              		.cfi_offset 5, -8
 651              		.cfi_offset 4, -12
 652 000a 1346     		mov	r3, r2
 653 000c 6A60     		str	r2, [r5, #4]
 654              	.LBE57:
 655              	.LBE60:
 656              		.loc 1 337 0
 657 000e 8C68     		ldr	r4, [r1, #8]
 658              		.loc 1 335 0
 659 0010 0126     		movs	r6, #1
 660              	.LBB61:
 661              	.LBB59:
 662              		.loc 2 62 0
 663 0012 1560     		str	r5, [r2, #0]
 664              	.LBE59:
 665              	.LBE61:
 666              		.loc 1 334 0
 667 0014 9061     		str	r0, [r2, #24]
 668              		.loc 1 337 0
 669 0016 0022     		movs	r2, #0
 670              		.loc 1 335 0
 671 0018 0677     		strb	r6, [r0, #28]
 672              		.loc 1 337 0
 673 001a 0A77     		strb	r2, [r1, #28]
 674              	.LVL46:
ARM GAS  C:\DOCUME~1\z_80\LOCALS~1\Temp\ccJNPaGF.s 			page 13


 675              	.L44:
 676              		.loc 1 340 0 discriminator 1
 677 001c 1B68     		ldr	r3, [r3, #0]
 678              	.LVL47:
 679              		.loc 1 341 0 discriminator 1
 680 001e 9A68     		ldr	r2, [r3, #8]
 681 0020 9442     		cmp	r4, r2
 682 0022 FBD3     		bcc	.L44
 683              		.loc 1 344 0
 684 0024 5A68     		ldr	r2, [r3, #4]
 685              		.loc 1 343 0
 686 0026 0B60     		str	r3, [r1, #0]
 687              		.loc 1 344 0
 688 0028 4A60     		str	r2, [r1, #4]
 689              		.loc 1 345 0
 690 002a 1160     		str	r1, [r2, #0]
 691 002c 5960     		str	r1, [r3, #4]
 692              		.loc 1 348 0
 693 002e 70BC     		pop	{r4, r5, r6}
 694              		.loc 1 347 0
 695 0030 FFF7FEBF 		b	_port_switch
 696              	.LVL48:
 697              	.L47:
 698              		.align	2
 699              	.L46:
 700 0034 00000000 		.word	.LANCHOR0
 701              		.cfi_endproc
 702              	.LFE15:
 703              		.size	chSchDoRescheduleAhead, .-chSchDoRescheduleAhead
 704 0038 AFF30080 		.section	.text.chSchRescheduleS,"ax",%progbits
 704      AFF30080 
 705              		.align	2
 706              		.p2align 4,,15
 707              		.global	chSchRescheduleS
 708              		.thumb
 709              		.thumb_func
 710              		.type	chSchRescheduleS, %function
 711              	chSchRescheduleS:
 712              	.LFB13:
 713              		.loc 1 253 0
 714              		.cfi_startproc
 715              		@ args = 0, pretend = 0, frame = 0
 716              		@ frame_needed = 0, uses_anonymous_args = 0
 717              		@ link register save eliminated.
 718              		.loc 1 257 0
 719 0000 044A     		ldr	r2, .L51
 720 0002 9069     		ldr	r0, [r2, #24]
 721 0004 1168     		ldr	r1, [r2, #0]
 722 0006 8368     		ldr	r3, [r0, #8]
 723 0008 8A68     		ldr	r2, [r1, #8]
 724 000a 9A42     		cmp	r2, r3
 725 000c 00D8     		bhi	.L50
 726 000e 7047     		bx	lr
 727              	.L50:
 728              		.loc 1 259 0
 729              		.loc 1 258 0
 730 0010 FFF7FEBF 		b	chSchDoRescheduleAhead
ARM GAS  C:\DOCUME~1\z_80\LOCALS~1\Temp\ccJNPaGF.s 			page 14


 731              	.L52:
 732              		.align	2
 733              	.L51:
 734 0014 00000000 		.word	.LANCHOR0
 735              		.cfi_endproc
 736              	.LFE13:
 737              		.size	chSchRescheduleS, .-chSchRescheduleS
 738 0018 AFF30080 		.section	.text.chSchDoReschedule,"ax",%progbits
 738      AFF30080 
 739              		.align	2
 740              		.p2align 4,,15
 741              		.global	chSchDoReschedule
 742              		.thumb
 743              		.thumb_func
 744              		.type	chSchDoReschedule, %function
 745              	chSchDoReschedule:
 746              	.LFB16:
 747              		.loc 1 362 0
 748              		.cfi_startproc
 749              		@ args = 0, pretend = 0, frame = 0
 750              		@ frame_needed = 0, uses_anonymous_args = 0
 751              		@ link register save eliminated.
 752              		.loc 1 367 0
 753 0000 0349     		ldr	r1, .L56
 754 0002 8869     		ldr	r0, [r1, #24]
 755 0004 C37F     		ldrb	r3, [r0, #31]	@ zero_extendqisi2
 756 0006 0BB1     		cbz	r3, .L55
 757              		.loc 1 382 0
 758              		.loc 1 375 0
 759 0008 FFF7FEBF 		b	chSchDoRescheduleAhead
 760              	.L55:
 761              		.loc 1 382 0
 762              		.loc 1 370 0
 763 000c FFF7FEBF 		b	chSchDoRescheduleBehind
 764              	.L57:
 765              		.align	2
 766              	.L56:
 767 0010 00000000 		.word	.LANCHOR0
 768              		.cfi_endproc
 769              	.LFE16:
 770              		.size	chSchDoReschedule, .-chSchDoReschedule
 771              		.global	rlist
 772 0014 AFF30080 		.section	.bss.rlist,"aw",%nobits
 772      AFF30080 
 772      AFF30080 
 773              		.align	2
 774              		.set	.LANCHOR0,. + 0
 775              		.type	rlist, %object
 776              		.size	rlist, 28
 777              	rlist:
 778 0000 00000000 		.space	28
 778      00000000 
 778      00000000 
 778      00000000 
 778      00000000 
 779              		.text
 780              	.Letext0:
ARM GAS  C:\DOCUME~1\z_80\LOCALS~1\Temp\ccJNPaGF.s 			page 15

