ARM GAS  C:\DOCUME~1\z_80\LOCALS~1\Temp\ccVQVDUa.s 			page 1


   1              		.syntax unified
   2              		.cpu cortex-m3
   3              		.fpu softvfp
   4              		.eabi_attribute 20, 1
   5              		.eabi_attribute 21, 1
   6              		.eabi_attribute 23, 3
   7              		.eabi_attribute 24, 1
   8              		.eabi_attribute 25, 1
   9              		.eabi_attribute 26, 1
  10              		.eabi_attribute 30, 2
  11              		.eabi_attribute 18, 4
  12              		.thumb
  13              		.file	"chsem.c"
  20 0000 B5030000 		.text
  20      02006701 
  20      00000201 
  20      FB0E0D00 
  20      01010101 
  21              	.Ltext0:
  22              		.cfi_sections	.debug_frame
  23              		.section	.text.chSemInit,"ax",%progbits
  24              		.align	2
  25              		.p2align 4,,15
  26              		.global	chSemInit
  27              		.thumb
  28              		.thumb_func
  29              		.type	chSemInit, %function
  30              	chSemInit:
  31              	.LFB7:
  32              		.file 1 "../chibios_2.6.3/os/kernel/src/chsem.c"
  33              		.loc 1 86 0
  34              		.cfi_startproc
  35              		@ args = 0, pretend = 0, frame = 0
  36              		@ frame_needed = 0, uses_anonymous_args = 0
  37              		@ link register save eliminated.
  38              	.LVL0:
  39              		.loc 1 90 0
  40 0000 4060     		str	r0, [r0, #4]
  41 0002 0060     		str	r0, [r0, #0]
  42              		.loc 1 91 0
  43 0004 8160     		str	r1, [r0, #8]
  44              		.loc 1 92 0
  45 0006 7047     		bx	lr
  46              		.cfi_endproc
  47              	.LFE7:
  48              		.size	chSemInit, .-chSemInit
  49 0008 AFF30080 		.section	.text.chSemResetI,"ax",%progbits
  49      AFF30080 
  50              		.align	2
  51              		.p2align 4,,15
  52              		.global	chSemResetI
ARM GAS  C:\DOCUME~1\z_80\LOCALS~1\Temp\ccVQVDUa.s 			page 2


  53              		.thumb
  54              		.thumb_func
  55              		.type	chSemResetI, %function
  56              	chSemResetI:
  57              	.LFB9:
  58              		.loc 1 136 0
  59              		.cfi_startproc
  60              		@ args = 0, pretend = 0, frame = 0
  61              		@ frame_needed = 0, uses_anonymous_args = 0
  62              	.LVL1:
  63 0000 F8B5     		push	{r3, r4, r5, r6, r7, lr}
  64              	.LCFI0:
  65              		.cfi_def_cfa_offset 24
  66              		.loc 1 146 0
  67 0002 8568     		ldr	r5, [r0, #8]
  68              		.cfi_offset 14, -4
  69              		.cfi_offset 7, -8
  70              		.cfi_offset 6, -12
  71              		.cfi_offset 5, -16
  72              		.cfi_offset 4, -20
  73              		.cfi_offset 3, -24
  74              	.LVL2:
  75              		.loc 1 136 0
  76 0004 0446     		mov	r4, r0
  77              		.loc 1 148 0
  78 0006 0135     		adds	r5, r5, #1
  79 0008 002D     		cmp	r5, #0
  80              		.loc 1 147 0
  81 000a 8160     		str	r1, [r0, #8]
  82              	.LVL3:
  83              		.loc 1 148 0
  84 000c 29DC     		bgt	.L2
  85              	.LBB24:
  86              	.LBB29:
  87              		.file 2 "../chibios_2.6.3/os/kernel/include/chinline.h"
  88              		.loc 2 67 0
  89 000e 4068     		ldr	r0, [r0, #4]
  90              	.LVL4:
  91              	.LBE29:
  92              	.LBE24:
  93              		.loc 1 149 0
  94 0010 6FF00107 		mvn	r7, #1
  95              	.LBB34:
  96              	.LBB28:
  97              		.loc 2 69 0
  98 0014 4368     		ldr	r3, [r0, #4]
  99              	.LBE28:
 100              	.LBE34:
 101              		.loc 1 148 0
 102 0016 6E1C     		adds	r6, r5, #1
 103              	.LBB35:
 104              	.LBB30:
 105              		.loc 2 69 0
 106 0018 6360     		str	r3, [r4, #4]
 107 001a 1C60     		str	r4, [r3, #0]
 108              	.LBE30:
 109              	.LBE35:
ARM GAS  C:\DOCUME~1\z_80\LOCALS~1\Temp\ccVQVDUa.s 			page 3


 110              		.loc 1 149 0
 111 001c FFF7FEFF 		bl	chSchReadyI
 112              	.LVL5:
 113 0020 05F00103 		and	r3, r5, #1
 114              	.LVL6:
 115 0024 4762     		str	r7, [r0, #36]
 116              	.LVL7:
 117              		.loc 1 148 0
 118 0026 EDB1     		cbz	r5, .L13
 119 0028 4BB1     		cbz	r3, .L5
 120              	.LBB36:
 121              	.LBB27:
 122              		.loc 2 67 0
 123 002a 6068     		ldr	r0, [r4, #4]
 124              	.LBE27:
 125              	.LBE36:
 126              		.loc 1 148 0
 127 002c 0136     		adds	r6, r6, #1
 128              	.LBB37:
 129              	.LBB31:
 130              		.loc 2 69 0
 131 002e 4368     		ldr	r3, [r0, #4]
 132 0030 6360     		str	r3, [r4, #4]
 133 0032 1C60     		str	r4, [r3, #0]
 134              	.LBE31:
 135              	.LBE37:
 136              		.loc 1 149 0
 137 0034 FFF7FEFF 		bl	chSchReadyI
 138              		.loc 1 148 0
 139 0038 012E     		cmp	r6, #1
 140              		.loc 1 149 0
 141 003a 4762     		str	r7, [r0, #36]
 142              		.loc 1 148 0
 143 003c 13D0     		beq	.L14
 144              	.L5:
 145              	.LBB38:
 146              	.LBB26:
 147              		.loc 2 67 0
 148 003e 6068     		ldr	r0, [r4, #4]
 149              	.LBE26:
 150              	.LBE38:
 151              		.loc 1 148 0
 152 0040 751C     		adds	r5, r6, #1
 153              	.LBB39:
 154              	.LBB32:
 155              		.loc 2 69 0
 156 0042 4268     		ldr	r2, [r0, #4]
 157              	.LBE32:
 158              	.LBE39:
 159              		.loc 1 148 0
 160 0044 0236     		adds	r6, r6, #2
 161              	.LBB40:
 162              	.LBB25:
 163              		.loc 2 69 0
 164 0046 6260     		str	r2, [r4, #4]
 165 0048 1460     		str	r4, [r2, #0]
 166              	.LBE25:
ARM GAS  C:\DOCUME~1\z_80\LOCALS~1\Temp\ccVQVDUa.s 			page 4


 167              	.LBE40:
 168              		.loc 1 149 0
 169 004a FFF7FEFF 		bl	chSchReadyI
 170 004e 4762     		str	r7, [r0, #36]
 171              	.LBB41:
 172              	.LBB33:
 173              		.loc 2 67 0
 174 0050 6068     		ldr	r0, [r4, #4]
 175              		.loc 2 69 0
 176 0052 4168     		ldr	r1, [r0, #4]
 177 0054 6160     		str	r1, [r4, #4]
 178 0056 0C60     		str	r4, [r1, #0]
 179              	.LBE33:
 180              	.LBE41:
 181              		.loc 1 149 0
 182 0058 FFF7FEFF 		bl	chSchReadyI
 183 005c 4762     		str	r7, [r0, #36]
 184              		.loc 1 148 0
 185 005e 002D     		cmp	r5, #0
 186 0060 EDD1     		bne	.L5
 187              	.LVL8:
 188              	.L2:
 189 0062 F8BD     		pop	{r3, r4, r5, r6, r7, pc}
 190              	.LVL9:
 191              	.L13:
 192 0064 F8BD     		pop	{r3, r4, r5, r6, r7, pc}
 193              	.L14:
 194 0066 F8BD     		pop	{r3, r4, r5, r6, r7, pc}
 195              		.cfi_endproc
 196              	.LFE9:
 197              		.size	chSemResetI, .-chSemResetI
 198 0068 AFF30080 		.section	.text.chSemReset,"ax",%progbits
 198      AFF30080 
 199              		.align	2
 200              		.p2align 4,,15
 201              		.global	chSemReset
 202              		.thumb
 203              		.thumb_func
 204              		.type	chSemReset, %function
 205              	chSemReset:
 206              	.LFB8:
 207              		.loc 1 109 0
 208              		.cfi_startproc
 209              		@ args = 0, pretend = 0, frame = 0
 210              		@ frame_needed = 0, uses_anonymous_args = 0
 211              	.LVL10:
 212 0000 08B5     		push	{r3, lr}
 213              	.LCFI1:
 214              		.cfi_def_cfa_offset 8
 215              	.LBB42:
 216              		.loc 1 111 0
 217 0002 2023     		movs	r3, #32
 218              		.cfi_offset 14, -4
 219              		.cfi_offset 3, -8
 220              	.LVL11:
 221              	@ 111 "../chibios_2.6.3/os/kernel/src/chsem.c" 1
 222 0004 83F31188 		msr     BASEPRI, r3
ARM GAS  C:\DOCUME~1\z_80\LOCALS~1\Temp\ccVQVDUa.s 			page 5


 223              	@ 0 "" 2
 224              	.LVL12:
 225              		.thumb
 226              	.LBE42:
 227              		.loc 1 112 0
 228 0008 FFF7FEFF 		bl	chSemResetI
 229              	.LVL13:
 230              		.loc 1 113 0
 231 000c FFF7FEFF 		bl	chSchRescheduleS
 232              	.LBB43:
 233              		.loc 1 114 0
 234 0010 0023     		movs	r3, #0
 235              	.LVL14:
 236              	@ 114 "../chibios_2.6.3/os/kernel/src/chsem.c" 1
 237 0012 83F31188 		msr     BASEPRI, r3
 238              	@ 0 "" 2
 239              	.LVL15:
 240              		.thumb
 241              	.LBE43:
 242              		.loc 1 115 0
 243 0016 08BD     		pop	{r3, pc}
 244              		.cfi_endproc
 245              	.LFE8:
 246              		.size	chSemReset, .-chSemReset
 247 0018 AFF30080 		.section	.text.chSemWaitS,"ax",%progbits
 247      AFF30080 
 248              		.align	2
 249              		.p2align 4,,15
 250              		.global	chSemWaitS
 251              		.thumb
 252              		.thumb_func
 253              		.type	chSemWaitS, %function
 254              	chSemWaitS:
 255              	.LFB11:
 256              		.loc 1 185 0
 257              		.cfi_startproc
 258              		@ args = 0, pretend = 0, frame = 0
 259              		@ frame_needed = 0, uses_anonymous_args = 0
 260              	.LVL16:
 261              		.loc 1 194 0
 262 0000 8168     		ldr	r1, [r0, #8]
 263              		.loc 1 185 0
 264 0002 10B5     		push	{r4, lr}
 265              	.LCFI2:
 266              		.cfi_def_cfa_offset 8
 267              		.loc 1 194 0
 268 0004 4A1E     		subs	r2, r1, #1
 269 0006 002A     		cmp	r2, #0
 270              		.loc 1 185 0
 271 0008 0346     		mov	r3, r0
 272              		.loc 1 194 0
 273 000a 8260     		str	r2, [r0, #8]
 274 000c 01DB     		blt	.L19
 275              		.cfi_offset 14, -4
 276              		.cfi_offset 4, -8
 277              		.loc 1 200 0
 278 000e 0020     		movs	r0, #0
ARM GAS  C:\DOCUME~1\z_80\LOCALS~1\Temp\ccVQVDUa.s 			page 6


 279              	.LVL17:
 280              		.loc 1 201 0
 281 0010 10BD     		pop	{r4, pc}
 282              	.L19:
 283              		.loc 1 195 0
 284 0012 074C     		ldr	r4, .L20
 285              		.loc 1 197 0
 286 0014 0320     		movs	r0, #3
 287              		.loc 1 195 0
 288 0016 A269     		ldr	r2, [r4, #24]
 289 0018 5362     		str	r3, [r2, #36]
 290              	.LVL18:
 291              	.LBB44:
 292              	.LBB45:
 293              		.loc 2 55 0
 294 001a 5968     		ldr	r1, [r3, #4]
 295              		.loc 2 54 0
 296 001c 1360     		str	r3, [r2, #0]
 297              		.loc 2 55 0
 298 001e 5160     		str	r1, [r2, #4]
 299              		.loc 2 56 0
 300 0020 5A60     		str	r2, [r3, #4]
 301 0022 0A60     		str	r2, [r1, #0]
 302              	.LBE45:
 303              	.LBE44:
 304              		.loc 1 197 0
 305 0024 FFF7FEFF 		bl	chSchGoSleepS
 306              	.LVL19:
 307              		.loc 1 198 0
 308 0028 A369     		ldr	r3, [r4, #24]
 309 002a 586A     		ldr	r0, [r3, #36]
 310 002c 10BD     		pop	{r4, pc}
 311              	.L21:
 312 002e 00BF     		.align	2
 313              	.L20:
 314 0030 00000000 		.word	rlist
 315              		.cfi_endproc
 316              	.LFE11:
 317              		.size	chSemWaitS, .-chSemWaitS
 318 0034 AFF30080 		.section	.text.chSemWait,"ax",%progbits
 318      AFF30080 
 318      AFF30080 
 319              		.align	2
 320              		.p2align 4,,15
 321              		.global	chSemWait
 322              		.thumb
 323              		.thumb_func
 324              		.type	chSemWait, %function
 325              	chSemWait:
 326              	.LFB10:
 327              		.loc 1 164 0
 328              		.cfi_startproc
 329              		@ args = 0, pretend = 0, frame = 0
 330              		@ frame_needed = 0, uses_anonymous_args = 0
 331              	.LVL20:
 332 0000 08B5     		push	{r3, lr}
 333              	.LCFI3:
ARM GAS  C:\DOCUME~1\z_80\LOCALS~1\Temp\ccVQVDUa.s 			page 7


 334              		.cfi_def_cfa_offset 8
 335              	.LBB46:
 336              		.loc 1 167 0
 337 0002 2023     		movs	r3, #32
 338              		.cfi_offset 14, -4
 339              		.cfi_offset 3, -8
 340              	.LVL21:
 341              	@ 167 "../chibios_2.6.3/os/kernel/src/chsem.c" 1
 342 0004 83F31188 		msr     BASEPRI, r3
 343              	@ 0 "" 2
 344              	.LVL22:
 345              		.thumb
 346              	.LBE46:
 347              		.loc 1 168 0
 348 0008 FFF7FEFF 		bl	chSemWaitS
 349              	.LVL23:
 350              	.LBB47:
 351              		.loc 1 169 0
 352 000c 0023     		movs	r3, #0
 353              	.LVL24:
 354              	@ 169 "../chibios_2.6.3/os/kernel/src/chsem.c" 1
 355 000e 83F31188 		msr     BASEPRI, r3
 356              	@ 0 "" 2
 357              	.LVL25:
 358              		.thumb
 359              	.LBE47:
 360              		.loc 1 171 0
 361 0012 08BD     		pop	{r3, pc}
 362              		.cfi_endproc
 363              	.LFE10:
 364              		.size	chSemWait, .-chSemWait
 365 0014 AFF30080 		.section	.text.chSemWaitTimeoutS,"ax",%progbits
 365      AFF30080 
 365      AFF30080 
 366              		.align	2
 367              		.p2align 4,,15
 368              		.global	chSemWaitTimeoutS
 369              		.thumb
 370              		.thumb_func
 371              		.type	chSemWaitTimeoutS, %function
 372              	chSemWaitTimeoutS:
 373              	.LFB13:
 374              		.loc 1 250 0
 375              		.cfi_startproc
 376              		@ args = 0, pretend = 0, frame = 0
 377              		@ frame_needed = 0, uses_anonymous_args = 0
 378              		@ link register save eliminated.
 379              	.LVL26:
 380 0000 0346     		mov	r3, r0
 381              		.loc 1 259 0
 382 0002 8068     		ldr	r0, [r0, #8]
 383              	.LVL27:
 384              		.loc 1 250 0
 385 0004 10B4     		push	{r4}
 386              	.LCFI4:
 387              		.cfi_def_cfa_offset 4
 388              		.loc 1 259 0
ARM GAS  C:\DOCUME~1\z_80\LOCALS~1\Temp\ccVQVDUa.s 			page 8


 389 0006 421E     		subs	r2, r0, #1
 390 0008 002A     		cmp	r2, #0
 391 000a 9A60     		str	r2, [r3, #8]
 392 000c 02DB     		blt	.L27
 393              		.cfi_offset 4, -4
 394              		.loc 1 268 0
 395 000e 0020     		movs	r0, #0
 396              	.L24:
 397              		.loc 1 269 0
 398 0010 10BC     		pop	{r4}
 399 0012 7047     		bx	lr
 400              	.L27:
 401              		.loc 1 260 0
 402 0014 59B1     		cbz	r1, .L28
 403              		.loc 1 264 0
 404 0016 084C     		ldr	r4, .L29
 405              		.loc 1 266 0
 406 0018 0320     		movs	r0, #3
 407              		.loc 1 264 0
 408 001a A269     		ldr	r2, [r4, #24]
 409 001c 5362     		str	r3, [r2, #36]
 410              	.LVL28:
 411              	.LBB48:
 412              	.LBB49:
 413              		.loc 2 55 0
 414 001e 5C68     		ldr	r4, [r3, #4]
 415              	.LVL29:
 416              		.loc 2 54 0
 417 0020 1360     		str	r3, [r2, #0]
 418              		.loc 2 55 0
 419 0022 5460     		str	r4, [r2, #4]
 420              		.loc 2 56 0
 421 0024 5A60     		str	r2, [r3, #4]
 422 0026 2260     		str	r2, [r4, #0]
 423              	.LBE49:
 424              	.LBE48:
 425              		.loc 1 269 0
 426 0028 10BC     		pop	{r4}
 427              		.loc 1 266 0
 428 002a FFF7FEBF 		b	chSchGoSleepTimeoutS
 429              	.LVL30:
 430              	.L28:
 431              		.loc 1 261 0
 432 002e 9860     		str	r0, [r3, #8]
 433              		.loc 1 262 0
 434 0030 4FF0FF30 		mov	r0, #-1
 435 0034 ECE7     		b	.L24
 436              	.L30:
 437 0036 00BF     		.align	2
 438              	.L29:
 439 0038 00000000 		.word	rlist
 440              		.cfi_endproc
 441              	.LFE13:
 442              		.size	chSemWaitTimeoutS, .-chSemWaitTimeoutS
 443 003c AFF30080 		.section	.text.chSemWaitTimeout,"ax",%progbits
 444              		.align	2
 445              		.p2align 4,,15
ARM GAS  C:\DOCUME~1\z_80\LOCALS~1\Temp\ccVQVDUa.s 			page 9


 446              		.global	chSemWaitTimeout
 447              		.thumb
 448              		.thumb_func
 449              		.type	chSemWaitTimeout, %function
 450              	chSemWaitTimeout:
 451              	.LFB12:
 452              		.loc 1 222 0
 453              		.cfi_startproc
 454              		@ args = 0, pretend = 0, frame = 0
 455              		@ frame_needed = 0, uses_anonymous_args = 0
 456              	.LVL31:
 457 0000 08B5     		push	{r3, lr}
 458              	.LCFI5:
 459              		.cfi_def_cfa_offset 8
 460              	.LBB50:
 461              		.loc 1 225 0
 462 0002 2023     		movs	r3, #32
 463              		.cfi_offset 14, -4
 464              		.cfi_offset 3, -8
 465              	.LVL32:
 466              	@ 225 "../chibios_2.6.3/os/kernel/src/chsem.c" 1
 467 0004 83F31188 		msr     BASEPRI, r3
 468              	@ 0 "" 2
 469              	.LVL33:
 470              		.thumb
 471              	.LBE50:
 472              		.loc 1 226 0
 473 0008 FFF7FEFF 		bl	chSemWaitTimeoutS
 474              	.LVL34:
 475              	.LBB51:
 476              		.loc 1 227 0
 477 000c 0023     		movs	r3, #0
 478              	.LVL35:
 479              	@ 227 "../chibios_2.6.3/os/kernel/src/chsem.c" 1
 480 000e 83F31188 		msr     BASEPRI, r3
 481              	@ 0 "" 2
 482              	.LVL36:
 483              		.thumb
 484              	.LBE51:
 485              		.loc 1 229 0
 486 0012 08BD     		pop	{r3, pc}
 487              		.cfi_endproc
 488              	.LFE12:
 489              		.size	chSemWaitTimeout, .-chSemWaitTimeout
 490 0014 AFF30080 		.section	.text.chSemSignal,"ax",%progbits
 490      AFF30080 
 490      AFF30080 
 491              		.align	2
 492              		.p2align 4,,15
 493              		.global	chSemSignal
 494              		.thumb
 495              		.thumb_func
 496              		.type	chSemSignal, %function
 497              	chSemSignal:
 498              	.LFB14:
 499              		.loc 1 278 0
 500              		.cfi_startproc
ARM GAS  C:\DOCUME~1\z_80\LOCALS~1\Temp\ccVQVDUa.s 			page 10


 501              		@ args = 0, pretend = 0, frame = 0
 502              		@ frame_needed = 0, uses_anonymous_args = 0
 503              	.LVL37:
 504 0000 08B5     		push	{r3, lr}
 505              	.LCFI6:
 506              		.cfi_def_cfa_offset 8
 507              		.loc 1 278 0
 508 0002 0246     		mov	r2, r0
 509              	.LBB52:
 510              		.loc 1 286 0
 511 0004 2023     		movs	r3, #32
 512              		.cfi_offset 14, -4
 513              		.cfi_offset 3, -8
 514              	.LVL38:
 515              	@ 286 "../chibios_2.6.3/os/kernel/src/chsem.c" 1
 516 0006 83F31188 		msr     BASEPRI, r3
 517              	@ 0 "" 2
 518              	.LVL39:
 519              		.thumb
 520              	.LBE52:
 521              		.loc 1 287 0
 522 000a 8168     		ldr	r1, [r0, #8]
 523 000c 4B1C     		adds	r3, r1, #1
 524              	.LVL40:
 525 000e 002B     		cmp	r3, #0
 526 0010 8360     		str	r3, [r0, #8]
 527 0012 03DD     		ble	.L34
 528              	.LBB53:
 529              		.loc 1 289 0
 530 0014 0023     		movs	r3, #0
 531              	.LVL41:
 532              	@ 289 "../chibios_2.6.3/os/kernel/src/chsem.c" 1
 533 0016 83F31188 		msr     BASEPRI, r3
 534              	@ 0 "" 2
 535              	.LVL42:
 536              		.thumb
 537              	.LBE53:
 538              		.loc 1 290 0
 539 001a 08BD     		pop	{r3, pc}
 540              	.LVL43:
 541              	.L34:
 542              	.LBB54:
 543              	.LBB55:
 544              		.loc 2 60 0
 545 001c 0068     		ldr	r0, [r0, #0]
 546              	.LVL44:
 547              	.LBE55:
 548              	.LBE54:
 549              		.loc 1 288 0
 550 001e 0021     		movs	r1, #0
 551              	.LBB57:
 552              	.LBB56:
 553              		.loc 2 62 0
 554 0020 0368     		ldr	r3, [r0, #0]
 555 0022 1360     		str	r3, [r2, #0]
 556 0024 5A60     		str	r2, [r3, #4]
 557              	.LBE56:
ARM GAS  C:\DOCUME~1\z_80\LOCALS~1\Temp\ccVQVDUa.s 			page 11


 558              	.LBE57:
 559              		.loc 1 288 0
 560 0026 FFF7FEFF 		bl	chSchWakeupS
 561              	.LVL45:
 562              	.LBB58:
 563              		.loc 1 289 0
 564 002a 0023     		movs	r3, #0
 565              	@ 289 "../chibios_2.6.3/os/kernel/src/chsem.c" 1
 566 002c 83F31188 		msr     BASEPRI, r3
 567              	@ 0 "" 2
 568              	.LVL46:
 569              		.thumb
 570              	.LBE58:
 571              		.loc 1 290 0
 572 0030 08BD     		pop	{r3, pc}
 573              		.cfi_endproc
 574              	.LFE14:
 575              		.size	chSemSignal, .-chSemSignal
 576 0032 00BFAFF3 		.section	.text.chSemSignalI,"ax",%progbits
 576      0080AFF3 
 576      0080AFF3 
 576      0080
 577              		.align	2
 578              		.p2align 4,,15
 579              		.global	chSemSignalI
 580              		.thumb
 581              		.thumb_func
 582              		.type	chSemSignalI, %function
 583              	chSemSignalI:
 584              	.LFB15:
 585              		.loc 1 303 0
 586              		.cfi_startproc
 587              		@ args = 0, pretend = 0, frame = 0
 588              		@ frame_needed = 0, uses_anonymous_args = 0
 589              		@ link register save eliminated.
 590              	.LVL47:
 591              		.loc 1 303 0
 592 0000 0346     		mov	r3, r0
 593              		.loc 1 312 0
 594 0002 8068     		ldr	r0, [r0, #8]
 595              	.LVL48:
 596 0004 421C     		adds	r2, r0, #1
 597 0006 002A     		cmp	r2, #0
 598 0008 9A60     		str	r2, [r3, #8]
 599 000a 00DD     		ble	.L37
 600 000c 7047     		bx	lr
 601              	.L37:
 602              	.LVL49:
 603              	.LBB59:
 604              	.LBB61:
 605              	.LBB62:
 606              		.loc 2 60 0
 607 000e 1A68     		ldr	r2, [r3, #0]
 608              	.LVL50:
 609              		.loc 2 62 0
 610 0010 1168     		ldr	r1, [r2, #0]
 611              	.LBE62:
ARM GAS  C:\DOCUME~1\z_80\LOCALS~1\Temp\ccVQVDUa.s 			page 12


 612              	.LBE61:
 613              		.loc 1 317 0
 614 0012 1046     		mov	r0, r2
 615              	.LBB60:
 616              	.LBB63:
 617              		.loc 2 62 0
 618 0014 1960     		str	r1, [r3, #0]
 619 0016 4B60     		str	r3, [r1, #4]
 620              	.LBE63:
 621              	.LBE60:
 622              		.loc 1 316 0
 623 0018 0023     		movs	r3, #0
 624              	.LVL51:
 625 001a 5362     		str	r3, [r2, #36]
 626              	.LBE59:
 627              		.loc 1 319 0
 628              	.LBB64:
 629              		.loc 1 317 0
 630 001c FFF7FEBF 		b	chSchReadyI
 631              	.LBE64:
 632              		.cfi_endproc
 633              	.LFE15:
 634              		.size	chSemSignalI, .-chSemSignalI
 635              		.section	.text.chSemAddCounterI,"ax",%progbits
 636              		.align	2
 637              		.p2align 4,,15
 638              		.global	chSemAddCounterI
 639              		.thumb
 640              		.thumb_func
 641              		.type	chSemAddCounterI, %function
 642              	chSemAddCounterI:
 643              	.LFB16:
 644              		.loc 1 334 0
 645              		.cfi_startproc
 646              		@ args = 0, pretend = 0, frame = 0
 647              		@ frame_needed = 0, uses_anonymous_args = 0
 648              	.LVL52:
 649 0000 F8B5     		push	{r3, r4, r5, r6, r7, lr}
 650              	.LCFI7:
 651              		.cfi_def_cfa_offset 24
 652              		.loc 1 343 0
 653 0002 0D1E     		subs	r5, r1, #0
 654              		.cfi_offset 14, -4
 655              		.cfi_offset 7, -8
 656              		.cfi_offset 6, -12
 657              		.cfi_offset 5, -16
 658              		.cfi_offset 4, -20
 659              		.cfi_offset 3, -24
 660              		.loc 1 334 0
 661 0004 0446     		mov	r4, r0
 662              		.loc 1 343 0
 663 0006 36DD     		ble	.L38
 664              		.loc 1 344 0
 665 0008 8168     		ldr	r1, [r0, #8]
 666              	.LVL53:
 667              		.loc 1 345 0
 668 000a 0026     		movs	r6, #0
ARM GAS  C:\DOCUME~1\z_80\LOCALS~1\Temp\ccVQVDUa.s 			page 13


 669              		.loc 1 344 0
 670 000c 4B1C     		adds	r3, r1, #1
 671 000e 6F1E     		subs	r7, r5, #1
 672 0010 B342     		cmp	r3, r6
 673 0012 8360     		str	r3, [r0, #8]
 674 0014 07F00107 		and	r7, r7, #1
 675 0018 2EDD     		ble	.L54
 676              	.LVL54:
 677              	.L44:
 678              		.loc 1 343 0
 679 001a 013D     		subs	r5, r5, #1
 680 001c 2BD0     		beq	.L38
 681 001e 77B1     		cbz	r7, .L42
 682              		.loc 1 344 0
 683 0020 A168     		ldr	r1, [r4, #8]
 684 0022 4B1C     		adds	r3, r1, #1
 685 0024 002B     		cmp	r3, #0
 686 0026 A360     		str	r3, [r4, #8]
 687 0028 2EDD     		ble	.L55
 688              	.L46:
 689              		.loc 1 343 0
 690 002a 013D     		subs	r5, r5, #1
 691 002c 07D1     		bne	.L42
 692 002e 33E0     		b	.L59
 693              	.L40:
 694              		.loc 1 344 0
 695 0030 A068     		ldr	r0, [r4, #8]
 696 0032 411C     		adds	r1, r0, #1
 697 0034 0029     		cmp	r1, #0
 698 0036 A160     		str	r1, [r4, #8]
 699 0038 13DD     		ble	.L57
 700              	.L49:
 701              		.loc 1 343 0
 702 003a 013D     		subs	r5, r5, #1
 703 003c 1AD0     		beq	.L58
 704              	.L42:
 705              		.loc 1 344 0
 706 003e A268     		ldr	r2, [r4, #8]
 707              		.loc 1 346 0
 708 0040 013D     		subs	r5, r5, #1
 709              		.loc 1 344 0
 710 0042 501C     		adds	r0, r2, #1
 711 0044 0028     		cmp	r0, #0
 712 0046 A060     		str	r0, [r4, #8]
 713 0048 F2DC     		bgt	.L40
 714              	.LVL55:
 715              	.LBB65:
 716              	.LBB67:
 717              		.loc 2 60 0
 718 004a 2068     		ldr	r0, [r4, #0]
 719              	.LVL56:
 720              		.loc 2 62 0
 721 004c 0368     		ldr	r3, [r0, #0]
 722 004e 2360     		str	r3, [r4, #0]
 723 0050 5C60     		str	r4, [r3, #4]
 724              	.LBE67:
 725              	.LBE65:
ARM GAS  C:\DOCUME~1\z_80\LOCALS~1\Temp\ccVQVDUa.s 			page 14


 726              		.loc 1 345 0
 727 0052 FFF7FEFF 		bl	chSchReadyI
 728              	.LVL57:
 729 0056 4662     		str	r6, [r0, #36]
 730              		.loc 1 344 0
 731 0058 A068     		ldr	r0, [r4, #8]
 732 005a 411C     		adds	r1, r0, #1
 733 005c 0029     		cmp	r1, #0
 734 005e A160     		str	r1, [r4, #8]
 735 0060 EBDC     		bgt	.L49
 736              	.LVL58:
 737              	.L57:
 738              	.LBB70:
 739              	.LBB68:
 740              		.loc 2 60 0
 741 0062 2068     		ldr	r0, [r4, #0]
 742              		.loc 2 62 0
 743 0064 0368     		ldr	r3, [r0, #0]
 744 0066 2360     		str	r3, [r4, #0]
 745 0068 5C60     		str	r4, [r3, #4]
 746              	.LBE68:
 747              	.LBE70:
 748              		.loc 1 345 0
 749 006a FFF7FEFF 		bl	chSchReadyI
 750              		.loc 1 343 0
 751 006e 013D     		subs	r5, r5, #1
 752              		.loc 1 345 0
 753 0070 4662     		str	r6, [r0, #36]
 754              		.loc 1 343 0
 755 0072 E4D1     		bne	.L42
 756              	.LVL59:
 757              	.L58:
 758 0074 F8BD     		pop	{r3, r4, r5, r6, r7, pc}
 759              	.L38:
 760 0076 F8BD     		pop	{r3, r4, r5, r6, r7, pc}
 761              	.LVL60:
 762              	.L54:
 763              	.LBB71:
 764              	.LBB66:
 765              		.loc 2 60 0
 766 0078 0068     		ldr	r0, [r0, #0]
 767              		.loc 2 62 0
 768 007a 0268     		ldr	r2, [r0, #0]
 769 007c 2260     		str	r2, [r4, #0]
 770 007e 5460     		str	r4, [r2, #4]
 771              	.LBE66:
 772              	.LBE71:
 773              		.loc 1 345 0
 774 0080 FFF7FEFF 		bl	chSchReadyI
 775 0084 4662     		str	r6, [r0, #36]
 776 0086 C8E7     		b	.L44
 777              	.LVL61:
 778              	.L55:
 779              	.LBB72:
 780              	.LBB69:
 781              		.loc 2 60 0
 782 0088 2068     		ldr	r0, [r4, #0]
ARM GAS  C:\DOCUME~1\z_80\LOCALS~1\Temp\ccVQVDUa.s 			page 15


 783              		.loc 2 62 0
 784 008a 0268     		ldr	r2, [r0, #0]
 785 008c 2260     		str	r2, [r4, #0]
 786 008e 5460     		str	r4, [r2, #4]
 787              	.LBE69:
 788              	.LBE72:
 789              		.loc 1 345 0
 790 0090 FFF7FEFF 		bl	chSchReadyI
 791 0094 4662     		str	r6, [r0, #36]
 792 0096 C8E7     		b	.L46
 793              	.LVL62:
 794              	.L59:
 795 0098 F8BD     		pop	{r3, r4, r5, r6, r7, pc}
 796              		.cfi_endproc
 797              	.LFE16:
 798              		.size	chSemAddCounterI, .-chSemAddCounterI
 799 009a 00BFAFF3 		.section	.text.chSemSignalWait,"ax",%progbits
 799      0080
 800              		.align	2
 801              		.p2align 4,,15
 802              		.global	chSemSignalWait
 803              		.thumb
 804              		.thumb_func
 805              		.type	chSemSignalWait, %function
 806              	chSemSignalWait:
 807              	.LFB17:
 808              		.loc 1 366 0
 809              		.cfi_startproc
 810              		@ args = 0, pretend = 0, frame = 8
 811              		@ frame_needed = 0, uses_anonymous_args = 0
 812              	.LVL63:
 813 0000 10B5     		push	{r4, lr}
 814              	.LCFI8:
 815              		.cfi_def_cfa_offset 8
 816 0002 0246     		mov	r2, r0
 817 0004 82B0     		sub	sp, sp, #8
 818              	.LCFI9:
 819              		.cfi_def_cfa_offset 16
 820              	.LBB73:
 821              		.loc 1 379 0
 822 0006 2023     		movs	r3, #32
 823              	.LVL64:
 824              	@ 379 "../chibios_2.6.3/os/kernel/src/chsem.c" 1
 825 0008 83F31188 		msr     BASEPRI, r3
 826              	@ 0 "" 2
 827              	.LVL65:
 828              		.thumb
 829              	.LBE73:
 830              		.loc 1 380 0
 831 000c 8368     		ldr	r3, [r0, #8]
 832              	.LVL66:
 833 000e 0133     		adds	r3, r3, #1
 834 0010 002B     		cmp	r3, #0
 835 0012 8360     		str	r3, [r0, #8]
 836 0014 19DD     		ble	.L64
 837              		.cfi_offset 14, -4
 838              		.cfi_offset 4, -8
ARM GAS  C:\DOCUME~1\z_80\LOCALS~1\Temp\ccVQVDUa.s 			page 16


 839              	.LVL67:
 840              	.L61:
 841              		.loc 1 382 0
 842 0016 8A68     		ldr	r2, [r1, #8]
 843 0018 501E     		subs	r0, r2, #1
 844 001a 0028     		cmp	r0, #0
 845 001c 8860     		str	r0, [r1, #8]
 846 001e 07DB     		blt	.L65
 847              		.loc 1 390 0
 848 0020 FFF7FEFF 		bl	chSchRescheduleS
 849              	.LVL68:
 850              		.loc 1 391 0
 851 0024 0020     		movs	r0, #0
 852              	.LVL69:
 853              	.L63:
 854              	.LBB74:
 855              		.loc 1 393 0
 856 0026 0023     		movs	r3, #0
 857              	.LVL70:
 858              	@ 393 "../chibios_2.6.3/os/kernel/src/chsem.c" 1
 859 0028 83F31188 		msr     BASEPRI, r3
 860              	@ 0 "" 2
 861              	.LVL71:
 862              		.thumb
 863              	.LBE74:
 864              		.loc 1 395 0
 865 002c 02B0     		add	sp, sp, #8
 866 002e 10BD     		pop	{r4, pc}
 867              	.LVL72:
 868              	.L65:
 869              	.LBB75:
 870              		.loc 1 383 0
 871 0030 0B4C     		ldr	r4, .L66
 872              	.LBB76:
 873              	.LBB77:
 874              		.loc 2 55 0
 875 0032 4B68     		ldr	r3, [r1, #4]
 876              	.LBE77:
 877              	.LBE76:
 878              		.loc 1 383 0
 879 0034 A469     		ldr	r4, [r4, #24]
 880              	.LVL73:
 881              		.loc 1 386 0
 882 0036 0320     		movs	r0, #3
 883              	.LBB79:
 884              	.LBB78:
 885              		.loc 2 54 0
 886 0038 2160     		str	r1, [r4, #0]
 887              		.loc 2 55 0
 888 003a 6360     		str	r3, [r4, #4]
 889              		.loc 2 56 0
 890 003c 4C60     		str	r4, [r1, #4]
 891 003e 1C60     		str	r4, [r3, #0]
 892              	.LBE78:
 893              	.LBE79:
 894              		.loc 1 385 0
 895 0040 6162     		str	r1, [r4, #36]
ARM GAS  C:\DOCUME~1\z_80\LOCALS~1\Temp\ccVQVDUa.s 			page 17


 896              		.loc 1 386 0
 897 0042 FFF7FEFF 		bl	chSchGoSleepS
 898              	.LVL74:
 899              		.loc 1 387 0
 900 0046 606A     		ldr	r0, [r4, #36]
 901              	.LVL75:
 902 0048 EDE7     		b	.L63
 903              	.LVL76:
 904              	.L64:
 905              	.LBE75:
 906              	.LBB80:
 907              	.LBB81:
 908              		.loc 2 60 0
 909 004a 0068     		ldr	r0, [r0, #0]
 910              	.LVL77:
 911              		.loc 2 62 0
 912 004c 0368     		ldr	r3, [r0, #0]
 913 004e 1360     		str	r3, [r2, #0]
 914 0050 5A60     		str	r2, [r3, #4]
 915              	.LBE81:
 916              	.LBE80:
 917              		.loc 1 381 0
 918 0052 0191     		str	r1, [sp, #4]
 919 0054 FFF7FEFF 		bl	chSchReadyI
 920              	.LVL78:
 921 0058 0021     		movs	r1, #0
 922 005a 4162     		str	r1, [r0, #36]
 923 005c 0199     		ldr	r1, [sp, #4]
 924 005e DAE7     		b	.L61
 925              	.L67:
 926              		.align	2
 927              	.L66:
 928 0060 00000000 		.word	rlist
 929              		.cfi_endproc
 930              	.LFE17:
 931              		.size	chSemSignalWait, .-chSemSignalWait
 932 0064 AFF30080 		.text
 932      AFF30080 
 932      AFF30080 
 933              	.Letext0: