ARM GAS  C:\DOCUME~1\z_80\LOCALS~1\Temp\cc9bAO72.s 			page 1


   1              		.syntax unified
   2              		.cpu cortex-m3
   3              		.fpu softvfp
   4              		.eabi_attribute 20, 1
   5              		.eabi_attribute 21, 1
   6              		.eabi_attribute 23, 3
   7              		.eabi_attribute 24, 1
   8              		.eabi_attribute 25, 1
   9              		.eabi_attribute 26, 1
  10              		.eabi_attribute 30, 2
  11              		.eabi_attribute 18, 4
  12              		.thumb
  13              		.file	"chsys.c"
  20 0000 CD010000 		.text
  20      02007001 
  20      00000201 
  20      FB0E0D00 
  20      01010101 
  21              	.Ltext0:
  22              		.cfi_sections	.debug_frame
  23              		.section	.text._idle_thread,"ax",%progbits
  24              		.align	2
  25              		.p2align 4,,15
  26              		.global	_idle_thread
  27              		.thumb
  28              		.thumb_func
  29              		.type	_idle_thread, %function
  30              	_idle_thread:
  31              	.LFB7:
  32              		.file 1 "../chibios_2.6.3/os/kernel/src/chsys.c"
  33              		.loc 1 61 0
  34              		.cfi_startproc
  35              		@ args = 0, pretend = 0, frame = 0
  36              		@ frame_needed = 0, uses_anonymous_args = 0
  37              		@ link register save eliminated.
  38              	.LVL0:
  39              		.loc 1 64 0
  40 0000 0248     		ldr	r0, .L4
  41              	.LVL1:
  42 0002 034A     		ldr	r2, .L4+4
  43 0004 8369     		ldr	r3, [r0, #24]
  44 0006 9A61     		str	r2, [r3, #24]
  45              	.L2:
  46 0008 FEE7     		b	.L2
  47              	.L5:
  48 000a 00BF     		.align	2
  49              	.L4:
  50 000c 00000000 		.word	rlist
  51 0010 00000000 		.word	.LC0
  52              		.cfi_endproc
  53              	.LFE7:
ARM GAS  C:\DOCUME~1\z_80\LOCALS~1\Temp\cc9bAO72.s 			page 2


  54              		.size	_idle_thread, .-_idle_thread
  55 0014 AFF30080 		.section	.text.chSysInit,"ax",%progbits
  55      AFF30080 
  55      AFF30080 
  56              		.align	2
  57              		.p2align 4,,15
  58              		.global	chSysInit
  59              		.thumb
  60              		.thumb_func
  61              		.type	chSysInit, %function
  62              	chSysInit:
  63              	.LFB8:
  64              		.loc 1 84 0
  65              		.cfi_startproc
  66              		@ args = 0, pretend = 0, frame = 0
  67              		@ frame_needed = 0, uses_anonymous_args = 0
  68 0000 10B5     		push	{r4, lr}
  69              	.LCFI0:
  70              		.cfi_def_cfa_offset 8
  71 0002 82B0     		sub	sp, sp, #8
  72              	.LCFI1:
  73              		.cfi_def_cfa_offset 16
  74              		.loc 1 90 0
  75              		.cfi_offset 14, -4
  76              		.cfi_offset 4, -8
  77 0004 FFF7FEFF 		bl	_port_init
  78              		.loc 1 91 0
  79 0008 FFF7FEFF 		bl	_scheduler_init
  80              		.loc 1 92 0
  81 000c FFF7FEFF 		bl	_vt_init
  82              		.loc 1 94 0
  83 0010 FFF7FEFF 		bl	_core_init
  84              		.loc 1 97 0
  85 0014 FFF7FEFF 		bl	_heap_init
  86              		.loc 1 104 0
  87 0018 4021     		movs	r1, #64
  88 001a 0B48     		ldr	r0, .L7
  89 001c FFF7FEFF 		bl	_thread_init
  90 0020 0A4C     		ldr	r4, .L7+4
  91              		.loc 1 105 0
  92 0022 0122     		movs	r2, #1
  93              		.loc 1 104 0
  94 0024 A061     		str	r0, [r4, #24]
  95              		.loc 1 105 0
  96 0026 0277     		strb	r2, [r0, #28]
  97              	.LBB2:
  98              		.loc 1 111 0
  99 0028 0023     		movs	r3, #0
 100              	.LVL2:
 101              	@ 111 "../chibios_2.6.3/os/kernel/src/chsys.c" 1
 102 002a 83F31188 		msr     BASEPRI, r3                    
 103 002e 62B6     		cpsie   i
 104              	@ 0 "" 2
 105              	.LVL3:
 106              		.thumb
 107              	.LBE2:
 108              		.loc 1 115 0
ARM GAS  C:\DOCUME~1\z_80\LOCALS~1\Temp\cc9bAO72.s 			page 3


 109 0030 A169     		ldr	r1, [r4, #24]
 110              		.loc 1 121 0
 111 0032 1C46     		mov	r4, r3
 112              		.loc 1 115 0
 113 0034 064B     		ldr	r3, .L7+8
 114              	.LVL4:
 115              		.loc 1 121 0
 116 0036 0748     		ldr	r0, .L7+12
 117              		.loc 1 115 0
 118 0038 8B61     		str	r3, [r1, #24]
 119              		.loc 1 121 0
 120 003a C021     		movs	r1, #192
 121 003c 064B     		ldr	r3, .L7+16
 122 003e 0094     		str	r4, [sp, #0]
 123              	.LVL5:
 124 0040 FFF7FEFF 		bl	chThdCreateStatic
 125              		.loc 1 124 0
 126 0044 02B0     		add	sp, sp, #8
 127 0046 10BD     		pop	{r4, pc}
 128              	.L8:
 129              		.align	2
 130              	.L7:
 131 0048 00000000 		.word	.LANCHOR0
 132 004c 00000000 		.word	rlist
 133 0050 00000000 		.word	ch_debug
 134 0054 00000000 		.word	.LANCHOR1
 135 0058 00000000 		.word	_idle_thread
 136              		.cfi_endproc
 137              	.LFE8:
 138              		.size	chSysInit, .-chSysInit
 139 005c AFF30080 		.section	.text.chSysTimerHandlerI,"ax",%progbits
 140              		.align	2
 141              		.p2align 4,,15
 142              		.global	chSysTimerHandlerI
 143              		.thumb
 144              		.thumb_func
 145              		.type	chSysTimerHandlerI, %function
 146              	chSysTimerHandlerI:
 147              	.LFB9:
 148              		.loc 1 137 0
 149              		.cfi_startproc
 150              		@ args = 0, pretend = 0, frame = 0
 151              		@ frame_needed = 0, uses_anonymous_args = 0
 152 0000 70B5     		push	{r4, r5, r6, lr}
 153              	.LCFI2:
 154              		.cfi_def_cfa_offset 16
 155              		.loc 1 143 0
 156 0002 134B     		ldr	r3, .L14
 157 0004 9B69     		ldr	r3, [r3, #24]
 158 0006 DA7F     		ldrb	r2, [r3, #31]	@ zero_extendqisi2
 159 0008 0AB1     		cbz	r2, .L10
 160              		.cfi_offset 14, -4
 161              		.cfi_offset 6, -8
 162              		.cfi_offset 5, -12
 163              		.cfi_offset 4, -16
 164              		.loc 1 145 0
 165 000a 013A     		subs	r2, r2, #1
ARM GAS  C:\DOCUME~1\z_80\LOCALS~1\Temp\cc9bAO72.s 			page 4


 166 000c DA77     		strb	r2, [r3, #31]
 167              	.L10:
 168              		.loc 1 148 0
 169 000e 1A6A     		ldr	r2, [r3, #32]
 170              		.loc 1 150 0
 171 0010 104C     		ldr	r4, .L14+4
 172              		.loc 1 148 0
 173 0012 511C     		adds	r1, r2, #1
 174 0014 1962     		str	r1, [r3, #32]
 175              		.loc 1 150 0
 176 0016 E368     		ldr	r3, [r4, #12]
 177 0018 2168     		ldr	r1, [r4, #0]
 178 001a 581C     		adds	r0, r3, #1
 179 001c A142     		cmp	r1, r4
 180 001e E060     		str	r0, [r4, #12]
 181 0020 15D0     		beq	.L9
 182              	.LBB3:
 183              		.loc 1 150 0 is_stmt 0 discriminator 1
 184 0022 8D68     		ldr	r5, [r1, #8]
 185 0024 013D     		subs	r5, r5, #1
 186 0026 8D60     		str	r5, [r1, #8]
 187              	.LVL6:
 188 0028 8DB9     		cbnz	r5, .L9
 189              		.loc 1 150 0
 190 002a 2646     		mov	r6, r4
 191              	.LVL7:
 192              	.L12:
 193              	.LBB4:
 194              		.loc 1 150 0 discriminator 3
 195 002c 0B68     		ldr	r3, [r1, #0]
 196              	.LVL8:
 197 002e CA68     		ldr	r2, [r1, #12]
 198              	.LVL9:
 199 0030 5E60     		str	r6, [r3, #4]
 200 0032 2360     		str	r3, [r4, #0]
 201 0034 CD60     		str	r5, [r1, #12]
 202              	.LBB5:
 203 0036 2B46     		mov	r3, r5
 204              	.LVL10:
 205              	@ 150 "../chibios_2.6.3/os/kernel/src/chsys.c" 1
 206 0038 83F31188 		msr     BASEPRI, r3
 207              	@ 0 "" 2
 208              	.LVL11:
 209              		.thumb
 210              	.LBE5:
 211 003c 0869     		ldr	r0, [r1, #16]
 212 003e 9047     		blx	r2
 213              	.LVL12:
 214              	.LBB6:
 215 0040 2023     		movs	r3, #32
 216              	@ 150 "../chibios_2.6.3/os/kernel/src/chsys.c" 1
 217 0042 83F31188 		msr     BASEPRI, r3
 218              	@ 0 "" 2
 219              	.LVL13:
 220              		.thumb
 221              	.LBE6:
 222              	.LBE4:
ARM GAS  C:\DOCUME~1\z_80\LOCALS~1\Temp\cc9bAO72.s 			page 5


 223 0046 2168     		ldr	r1, [r4, #0]
 224              	.LVL14:
 225 0048 8868     		ldr	r0, [r1, #8]
 226 004a 0028     		cmp	r0, #0
 227 004c EED0     		beq	.L12
 228              	.LVL15:
 229              	.L9:
 230 004e 70BD     		pop	{r4, r5, r6, pc}
 231              	.L15:
 232              		.align	2
 233              	.L14:
 234 0050 00000000 		.word	rlist
 235 0054 00000000 		.word	vtlist
 236              	.LBE3:
 237              		.cfi_endproc
 238              	.LFE9:
 239              		.size	chSysTimerHandlerI, .-chSysTimerHandlerI
 240              		.global	_idle_thread_wa
 241 0058 AFF30080 		.section	.bss.mainthread.4642,"aw",%nobits
 241      AFF30080 
 242              		.align	2
 243              		.set	.LANCHOR0,. + 0
 244              		.type	mainthread.4642, %object
 245              		.size	mainthread.4642, 72
 246              	mainthread.4642:
 247 0000 00000000 		.space	72
 247      00000000 
 247      00000000 
 247      00000000 
 247      00000000 
 248              		.section	.rodata.str1.4,"aMS",%progbits,1
 249              		.align	2
 250              	.LC0:
 251 0000 69646C65 		.ascii	"idle\000"
 251      00
 252 0005 000000   		.section	.bss._idle_thread_wa,"aw",%nobits
 253              		.align	3
 254              		.set	.LANCHOR1,. + 0
 255              		.type	_idle_thread_wa, %object
 256              		.size	_idle_thread_wa, 192
 257              	_idle_thread_wa:
 258 0000 00000000 		.space	192
 258      00000000 
 258      00000000 
 258      00000000 
 258      00000000 
 259              		.text
 260              	.Letext0: