ARM GAS  C:\DOCUME~1\z_80\LOCALS~1\Temp\ccRpLB2e.s 			page 1


   1              		.syntax unified
   2              		.cpu cortex-m3
   3              		.fpu softvfp
   4              		.eabi_attribute 20, 1
   5              		.eabi_attribute 21, 1
   6              		.eabi_attribute 23, 3
   7              		.eabi_attribute 24, 1
   8              		.eabi_attribute 25, 1
   9              		.eabi_attribute 26, 1
  10              		.eabi_attribute 30, 2
  11              		.eabi_attribute 18, 4
  12              		.thumb
  13              		.file	"chthreads.c"
  20 0000 7C030000 		.text
  20      0200C901 
  20      00000201 
  20      FB0E0D00 
  20      01010101 
  21              	.Ltext0:
  22              		.cfi_sections	.debug_frame
  23              		.section	.text._thread_init,"ax",%progbits
  24              		.align	2
  25              		.p2align 4,,15
  26              		.global	_thread_init
  27              		.thumb
  28              		.thumb_func
  29              		.type	_thread_init, %function
  30              	_thread_init:
  31              	.LFB7:
  32              		.file 1 "../chibios_2.6.3/os/kernel/src/chthreads.c"
  33              		.loc 1 76 0
  34              		.cfi_startproc
  35              		@ args = 0, pretend = 0, frame = 0
  36              		@ frame_needed = 0, uses_anonymous_args = 0
  37              		@ link register save eliminated.
  38              	.LVL0:
  39 0000 F0B4     		push	{r4, r5, r6, r7}
  40              	.LCFI0:
  41              		.cfi_def_cfa_offset 16
  42              		.loc 1 80 0
  43 0002 0022     		movs	r2, #0
  44              		.loc 1 99 0
  45 0004 0D4C     		ldr	r4, .L2
  46              		.cfi_offset 7, -4
  47              		.cfi_offset 6, -8
  48              		.cfi_offset 5, -12
  49              		.cfi_offset 4, -16
  50              		.loc 1 79 0
  51 0006 0226     		movs	r6, #2
  52              		.loc 1 95 0
  53 0008 0125     		movs	r5, #1
ARM GAS  C:\DOCUME~1\z_80\LOCALS~1\Temp\ccRpLB2e.s 			page 2


  54              		.loc 1 82 0
  55 000a 1423     		movs	r3, #20
  56              		.loc 1 79 0
  57 000c 0677     		strb	r6, [r0, #28]
  58              		.loc 1 80 0
  59 000e 4277     		strb	r2, [r0, #29]
  60              		.loc 1 82 0
  61 0010 C377     		strb	r3, [r0, #31]
  62              		.loc 1 95 0
  63 0012 8577     		strb	r5, [r0, #30]
  64              		.loc 1 99 0
  65 0014 6569     		ldr	r5, [r4, #20]
  66              		.loc 1 105 0
  67 0016 00F12C06 		add	r6, r0, #44
  68              		.loc 1 102 0
  69 001a 00F12807 		add	r7, r0, #40
  70              		.loc 1 99 0
  71 001e 0461     		str	r4, [r0, #16]
  72              		.loc 1 78 0
  73 0020 8160     		str	r1, [r0, #8]
  74              		.loc 1 99 0
  75 0022 4561     		str	r5, [r0, #20]
  76              		.loc 1 85 0
  77 0024 0164     		str	r1, [r0, #64]
  78              		.loc 1 99 0
  79 0026 6061     		str	r0, [r4, #20]
  80              		.loc 1 86 0
  81 0028 C263     		str	r2, [r0, #60]
  82              		.loc 1 89 0
  83 002a 8263     		str	r2, [r0, #56]
  84              		.loc 1 92 0
  85 002c 0262     		str	r2, [r0, #32]
  86              		.loc 1 98 0
  87 002e 8261     		str	r2, [r0, #24]
  88              		.loc 1 99 0
  89 0030 2861     		str	r0, [r5, #16]
  90              		.loc 1 102 0
  91 0032 8762     		str	r7, [r0, #40]
  92              		.loc 1 105 0
  93 0034 0663     		str	r6, [r0, #48]
  94 0036 C662     		str	r6, [r0, #44]
  95              		.loc 1 114 0
  96 0038 F0BC     		pop	{r4, r5, r6, r7}
  97 003a 7047     		bx	lr
  98              	.L3:
  99              		.align	2
 100              	.L2:
 101 003c 00000000 		.word	rlist
 102              		.cfi_endproc
 103              	.LFE7:
 104              		.size	_thread_init, .-_thread_init
 105              		.section	.text.chThdCreateI,"ax",%progbits
 106              		.align	2
 107              		.p2align 4,,15
 108              		.global	chThdCreateI
 109              		.thumb
 110              		.thumb_func
ARM GAS  C:\DOCUME~1\z_80\LOCALS~1\Temp\ccRpLB2e.s 			page 3


 111              		.type	chThdCreateI, %function
 112              	chThdCreateI:
 113              	.LFB8:
 114              		.loc 1 158 0
 115              		.cfi_startproc
 116              		@ args = 4, pretend = 0, frame = 0
 117              		@ frame_needed = 0, uses_anonymous_args = 0
 118              		@ link register save eliminated.
 119              	.LVL1:
 120              		.loc 1 167 0
 121 0000 2439     		subs	r1, r1, #36
 122              	.LVL2:
 123              		.loc 1 158 0
 124 0002 F0B4     		push	{r4, r5, r6, r7}
 125              	.LCFI1:
 126              		.cfi_def_cfa_offset 16
 127              		.loc 1 167 0
 128 0004 4718     		adds	r7, r0, r1
 129              		.cfi_offset 7, -4
 130              		.cfi_offset 6, -8
 131              		.cfi_offset 5, -12
 132              		.cfi_offset 4, -16
 133 0006 C760     		str	r7, [r0, #12]
 134 0008 4350     		str	r3, [r0, r1]
 135 000a 049B     		ldr	r3, [sp, #16]
 136              	.LVL3:
 137 000c 0F49     		ldr	r1, .L5
 138              	.LVL4:
 139 000e 7B60     		str	r3, [r7, #4]
 140 0010 3962     		str	r1, [r7, #32]
 141              	.LVL5:
 142              	.LBB10:
 143              	.LBB11:
 144              		.loc 1 80 0
 145 0012 0025     		movs	r5, #0
 146              		.loc 1 99 0
 147 0014 0E4E     		ldr	r6, .L5+4
 148              		.loc 1 79 0
 149 0016 0223     		movs	r3, #2
 150              		.loc 1 82 0
 151 0018 1421     		movs	r1, #20
 152              		.loc 1 95 0
 153 001a 0127     		movs	r7, #1
 154              	.LVL6:
 155              		.loc 1 82 0
 156 001c C177     		strb	r1, [r0, #31]
 157              		.loc 1 95 0
 158 001e 8777     		strb	r7, [r0, #30]
 159              		.loc 1 79 0
 160 0020 0377     		strb	r3, [r0, #28]
 161              		.loc 1 80 0
 162 0022 4577     		strb	r5, [r0, #29]
 163              		.loc 1 99 0
 164 0024 7369     		ldr	r3, [r6, #20]
 165              	.LVL7:
 166              		.loc 1 105 0
 167 0026 00F12C01 		add	r1, r0, #44
ARM GAS  C:\DOCUME~1\z_80\LOCALS~1\Temp\ccRpLB2e.s 			page 4


 168              		.loc 1 102 0
 169 002a 00F12807 		add	r7, r0, #40
 170              		.loc 1 99 0
 171 002e 0661     		str	r6, [r0, #16]
 172              		.loc 1 78 0
 173 0030 8260     		str	r2, [r0, #8]
 174              		.loc 1 99 0
 175 0032 4361     		str	r3, [r0, #20]
 176              		.loc 1 85 0
 177 0034 0264     		str	r2, [r0, #64]
 178              		.loc 1 99 0
 179 0036 7061     		str	r0, [r6, #20]
 180              		.loc 1 86 0
 181 0038 C563     		str	r5, [r0, #60]
 182              		.loc 1 89 0
 183 003a 8563     		str	r5, [r0, #56]
 184              		.loc 1 92 0
 185 003c 0562     		str	r5, [r0, #32]
 186              		.loc 1 98 0
 187 003e 8561     		str	r5, [r0, #24]
 188              		.loc 1 99 0
 189 0040 1861     		str	r0, [r3, #16]
 190              		.loc 1 102 0
 191 0042 8762     		str	r7, [r0, #40]
 192              		.loc 1 105 0
 193 0044 0163     		str	r1, [r0, #48]
 194 0046 C162     		str	r1, [r0, #44]
 195              	.LBE11:
 196              	.LBE10:
 197              		.loc 1 169 0
 198 0048 F0BC     		pop	{r4, r5, r6, r7}
 199 004a 7047     		bx	lr
 200              	.L6:
 201              		.align	2
 202              	.L5:
 203 004c 00000000 		.word	_port_thread_start
 204 0050 00000000 		.word	rlist
 205              		.cfi_endproc
 206              	.LFE8:
 207              		.size	chThdCreateI, .-chThdCreateI
 208 0054 AFF30080 		.section	.text.chThdCreateStatic,"ax",%progbits
 208      AFF30080 
 208      AFF30080 
 209              		.align	2
 210              		.p2align 4,,15
 211              		.global	chThdCreateStatic
 212              		.thumb
 213              		.thumb_func
 214              		.type	chThdCreateStatic, %function
 215              	chThdCreateStatic:
 216              	.LFB9:
 217              		.loc 1 188 0
 218              		.cfi_startproc
 219              		@ args = 4, pretend = 0, frame = 0
 220              		@ frame_needed = 0, uses_anonymous_args = 0
 221              	.LVL8:
 222 0000 10B5     		push	{r4, lr}
ARM GAS  C:\DOCUME~1\z_80\LOCALS~1\Temp\ccRpLB2e.s 			page 5


 223              	.LCFI2:
 224              		.cfi_def_cfa_offset 8
 225 0002 9C46     		mov	ip, r3
 226 0004 82B0     		sub	sp, sp, #8
 227              	.LCFI3:
 228              		.cfi_def_cfa_offset 16
 229              	.LBB12:
 230              		.loc 1 199 0
 231 0006 2023     		movs	r3, #32
 232              	.LVL9:
 233              	@ 199 "../chibios_2.6.3/os/kernel/src/chthreads.c" 1
 234 0008 83F31188 		msr     BASEPRI, r3
 235              	@ 0 "" 2
 236              	.LVL10:
 237              		.thumb
 238              	.LBE12:
 239              		.loc 1 200 0
 240 000c 049C     		ldr	r4, [sp, #16]
 241              		.cfi_offset 14, -4
 242              		.cfi_offset 4, -8
 243 000e 6346     		mov	r3, ip
 244              	.LVL11:
 245 0010 0094     		str	r4, [sp, #0]
 246 0012 FFF7FEFF 		bl	chThdCreateI
 247              	.LVL12:
 248 0016 0021     		movs	r1, #0
 249 0018 0446     		mov	r4, r0
 250              	.LVL13:
 251 001a FFF7FEFF 		bl	chSchWakeupS
 252              	.LVL14:
 253              	.LBB13:
 254              		.loc 1 201 0
 255 001e 0023     		movs	r3, #0
 256              	.LVL15:
 257              	@ 201 "../chibios_2.6.3/os/kernel/src/chthreads.c" 1
 258 0020 83F31188 		msr     BASEPRI, r3
 259              	@ 0 "" 2
 260              	.LVL16:
 261              		.thumb
 262              	.LBE13:
 263              		.loc 1 203 0
 264 0024 2046     		mov	r0, r4
 265 0026 02B0     		add	sp, sp, #8
 266 0028 10BD     		pop	{r4, pc}
 267              		.cfi_endproc
 268              	.LFE9:
 269              		.size	chThdCreateStatic, .-chThdCreateStatic
 270 002a 00BFAFF3 		.section	.text.chThdSetPriority,"ax",%progbits
 270      0080
 271              		.align	2
 272              		.p2align 4,,15
 273              		.global	chThdSetPriority
 274              		.thumb
 275              		.thumb_func
 276              		.type	chThdSetPriority, %function
 277              	chThdSetPriority:
 278              	.LFB10:
ARM GAS  C:\DOCUME~1\z_80\LOCALS~1\Temp\ccRpLB2e.s 			page 6


 279              		.loc 1 217 0
 280              		.cfi_startproc
 281              		@ args = 0, pretend = 0, frame = 0
 282              		@ frame_needed = 0, uses_anonymous_args = 0
 283              	.LVL17:
 284 0000 10B5     		push	{r4, lr}
 285              	.LCFI4:
 286              		.cfi_def_cfa_offset 8
 287              	.LBB14:
 288              		.loc 1 222 0
 289 0002 2023     		movs	r3, #32
 290              	.LVL18:
 291              	@ 222 "../chibios_2.6.3/os/kernel/src/chthreads.c" 1
 292 0004 83F31188 		msr     BASEPRI, r3
 293              	@ 0 "" 2
 294              	.LVL19:
 295              		.thumb
 296              	.LBE14:
 297              		.loc 1 224 0
 298 0008 084B     		ldr	r3, .L12
 299              	.LVL20:
 300 000a 9B69     		ldr	r3, [r3, #24]
 301 000c 1C6C     		ldr	r4, [r3, #64]
 302              		.cfi_offset 14, -4
 303              		.cfi_offset 4, -8
 304              	.LVL21:
 305              		.loc 1 225 0
 306 000e 9A68     		ldr	r2, [r3, #8]
 307 0010 9442     		cmp	r4, r2
 308 0012 01D0     		beq	.L9
 309              		.loc 1 225 0 is_stmt 0 discriminator 1
 310 0014 8242     		cmp	r2, r0
 311 0016 00D2     		bcs	.L10
 312              	.L9:
 313              		.loc 1 226 0 is_stmt 1
 314 0018 9860     		str	r0, [r3, #8]
 315              	.L10:
 316              		.loc 1 227 0
 317 001a 1864     		str	r0, [r3, #64]
 318              		.loc 1 232 0
 319 001c FFF7FEFF 		bl	chSchRescheduleS
 320              	.LVL22:
 321              	.LBB15:
 322              		.loc 1 233 0
 323 0020 0023     		movs	r3, #0
 324              	.LVL23:
 325              	@ 233 "../chibios_2.6.3/os/kernel/src/chthreads.c" 1
 326 0022 83F31188 		msr     BASEPRI, r3
 327              	@ 0 "" 2
 328              	.LVL24:
 329              		.thumb
 330              	.LBE15:
 331              		.loc 1 235 0
 332 0026 2046     		mov	r0, r4
 333 0028 10BD     		pop	{r4, pc}
 334              	.L13:
 335 002a 00BF     		.align	2
ARM GAS  C:\DOCUME~1\z_80\LOCALS~1\Temp\ccRpLB2e.s 			page 7


 336              	.L12:
 337 002c 00000000 		.word	rlist
 338              		.cfi_endproc
 339              	.LFE10:
 340              		.size	chThdSetPriority, .-chThdSetPriority
 341              		.section	.text.chThdResume,"ax",%progbits
 342              		.align	2
 343              		.p2align 4,,15
 344              		.global	chThdResume
 345              		.thumb
 346              		.thumb_func
 347              		.type	chThdResume, %function
 348              	chThdResume:
 349              	.LFB11:
 350              		.loc 1 250 0
 351              		.cfi_startproc
 352              		@ args = 0, pretend = 0, frame = 0
 353              		@ frame_needed = 0, uses_anonymous_args = 0
 354              	.LVL25:
 355 0000 10B5     		push	{r4, lr}
 356              	.LCFI5:
 357              		.cfi_def_cfa_offset 8
 358              	.LBB16:
 359              		.loc 1 252 0
 360 0002 2023     		movs	r3, #32
 361              	.LVL26:
 362              	.LBE16:
 363              		.loc 1 250 0
 364 0004 0446     		mov	r4, r0
 365              		.cfi_offset 14, -4
 366              		.cfi_offset 4, -8
 367              	.LBB17:
 368              		.loc 1 252 0
 369              	@ 252 "../chibios_2.6.3/os/kernel/src/chthreads.c" 1
 370 0006 83F31188 		msr     BASEPRI, r3
 371              	@ 0 "" 2
 372              	.LVL27:
 373              		.thumb
 374              	.LBE17:
 375              		.loc 1 256 0
 376 000a 0021     		movs	r1, #0
 377 000c FFF7FEFF 		bl	chSchWakeupS
 378              	.LVL28:
 379              	.LBB18:
 380              		.loc 1 257 0
 381 0010 0023     		movs	r3, #0
 382              	.LVL29:
 383              	@ 257 "../chibios_2.6.3/os/kernel/src/chthreads.c" 1
 384 0012 83F31188 		msr     BASEPRI, r3
 385              	@ 0 "" 2
 386              	.LVL30:
 387              		.thumb
 388              	.LBE18:
 389              		.loc 1 259 0
 390 0016 2046     		mov	r0, r4
 391 0018 10BD     		pop	{r4, pc}
 392              		.cfi_endproc
ARM GAS  C:\DOCUME~1\z_80\LOCALS~1\Temp\ccRpLB2e.s 			page 8


 393              	.LFE11:
 394              		.size	chThdResume, .-chThdResume
 395 001a 00BFAFF3 		.section	.text.chThdTerminate,"ax",%progbits
 395      0080
 396              		.align	2
 397              		.p2align 4,,15
 398              		.global	chThdTerminate
 399              		.thumb
 400              		.thumb_func
 401              		.type	chThdTerminate, %function
 402              	chThdTerminate:
 403              	.LFB12:
 404              		.loc 1 273 0
 405              		.cfi_startproc
 406              		@ args = 0, pretend = 0, frame = 0
 407              		@ frame_needed = 0, uses_anonymous_args = 0
 408              		@ link register save eliminated.
 409              	.LVL31:
 410              	.LBB19:
 411              		.loc 1 275 0
 412 0000 2023     		movs	r3, #32
 413              	.LVL32:
 414              	@ 275 "../chibios_2.6.3/os/kernel/src/chthreads.c" 1
 415 0002 83F31188 		msr     BASEPRI, r3
 416              	@ 0 "" 2
 417              	.LVL33:
 418              		.thumb
 419              	.LBE19:
 420              		.loc 1 276 0
 421 0006 417F     		ldrb	r1, [r0, #29]	@ zero_extendqisi2
 422              	.LBB20:
 423              		.loc 1 277 0
 424 0008 0023     		movs	r3, #0
 425              	.LVL34:
 426              	.LBE20:
 427              		.loc 1 276 0
 428 000a 41F00402 		orr	r2, r1, #4
 429 000e 4277     		strb	r2, [r0, #29]
 430              	.LBB21:
 431              		.loc 1 277 0
 432              	@ 277 "../chibios_2.6.3/os/kernel/src/chthreads.c" 1
 433 0010 83F31188 		msr     BASEPRI, r3
 434              	@ 0 "" 2
 435              	.LVL35:
 436              		.thumb
 437              	.LBE21:
 438              		.loc 1 278 0
 439 0014 7047     		bx	lr
 440              		.cfi_endproc
 441              	.LFE12:
 442              		.size	chThdTerminate, .-chThdTerminate
 443 0016 00BFAFF3 		.section	.text.chThdSleep,"ax",%progbits
 443      0080AFF3 
 443      0080
 444              		.align	2
 445              		.p2align 4,,15
 446              		.global	chThdSleep
ARM GAS  C:\DOCUME~1\z_80\LOCALS~1\Temp\ccRpLB2e.s 			page 9


 447              		.thumb
 448              		.thumb_func
 449              		.type	chThdSleep, %function
 450              	chThdSleep:
 451              	.LFB13:
 452              		.loc 1 292 0
 453              		.cfi_startproc
 454              		@ args = 0, pretend = 0, frame = 0
 455              		@ frame_needed = 0, uses_anonymous_args = 0
 456              	.LVL36:
 457 0000 08B5     		push	{r3, lr}
 458              	.LCFI6:
 459              		.cfi_def_cfa_offset 8
 460              		.loc 1 292 0
 461 0002 0146     		mov	r1, r0
 462              	.LBB22:
 463              		.loc 1 296 0
 464 0004 2023     		movs	r3, #32
 465              		.cfi_offset 14, -4
 466              		.cfi_offset 3, -8
 467              	.LVL37:
 468              	@ 296 "../chibios_2.6.3/os/kernel/src/chthreads.c" 1
 469 0006 83F31188 		msr     BASEPRI, r3
 470              	@ 0 "" 2
 471              	.LVL38:
 472              		.thumb
 473              	.LBE22:
 474              		.loc 1 297 0
 475 000a 0620     		movs	r0, #6
 476              	.LVL39:
 477 000c FFF7FEFF 		bl	chSchGoSleepTimeoutS
 478              	.LVL40:
 479              	.LBB23:
 480              		.loc 1 298 0
 481 0010 0023     		movs	r3, #0
 482              	.LVL41:
 483              	@ 298 "../chibios_2.6.3/os/kernel/src/chthreads.c" 1
 484 0012 83F31188 		msr     BASEPRI, r3
 485              	@ 0 "" 2
 486              	.LVL42:
 487              		.thumb
 488              	.LBE23:
 489              		.loc 1 299 0
 490 0016 08BD     		pop	{r3, pc}
 491              		.cfi_endproc
 492              	.LFE13:
 493              		.size	chThdSleep, .-chThdSleep
 494 0018 AFF30080 		.section	.text.chThdSleepUntil,"ax",%progbits
 494      AFF30080 
 495              		.align	2
 496              		.p2align 4,,15
 497              		.global	chThdSleepUntil
 498              		.thumb
 499              		.thumb_func
 500              		.type	chThdSleepUntil, %function
 501              	chThdSleepUntil:
 502              	.LFB14:
ARM GAS  C:\DOCUME~1\z_80\LOCALS~1\Temp\ccRpLB2e.s 			page 10


 503              		.loc 1 309 0
 504              		.cfi_startproc
 505              		@ args = 0, pretend = 0, frame = 0
 506              		@ frame_needed = 0, uses_anonymous_args = 0
 507              	.LVL43:
 508 0000 08B5     		push	{r3, lr}
 509              	.LCFI7:
 510              		.cfi_def_cfa_offset 8
 511              	.LBB24:
 512              		.loc 1 311 0
 513 0002 2023     		movs	r3, #32
 514              		.cfi_offset 14, -4
 515              		.cfi_offset 3, -8
 516              	.LVL44:
 517              	@ 311 "../chibios_2.6.3/os/kernel/src/chthreads.c" 1
 518 0004 83F31188 		msr     BASEPRI, r3
 519              	@ 0 "" 2
 520              	.LVL45:
 521              		.thumb
 522              	.LBE24:
 523              		.loc 1 312 0
 524 0008 054B     		ldr	r3, .L19
 525              	.LVL46:
 526 000a D968     		ldr	r1, [r3, #12]
 527              	.LVL47:
 528 000c 411A     		subs	r1, r0, r1
 529              	.LVL48:
 530 000e 02D0     		beq	.L18
 531              		.loc 1 313 0
 532 0010 0620     		movs	r0, #6
 533 0012 FFF7FEFF 		bl	chSchGoSleepTimeoutS
 534              	.LVL49:
 535              	.L18:
 536              	.LBB25:
 537              		.loc 1 314 0
 538 0016 0023     		movs	r3, #0
 539              	.LVL50:
 540              	@ 314 "../chibios_2.6.3/os/kernel/src/chthreads.c" 1
 541 0018 83F31188 		msr     BASEPRI, r3
 542              	@ 0 "" 2
 543              	.LVL51:
 544              		.thumb
 545              	.LBE25:
 546              		.loc 1 315 0
 547 001c 08BD     		pop	{r3, pc}
 548              	.L20:
 549 001e 00BF     		.align	2
 550              	.L19:
 551 0020 00000000 		.word	vtlist
 552              		.cfi_endproc
 553              	.LFE14:
 554              		.size	chThdSleepUntil, .-chThdSleepUntil
 555 0024 AFF30080 		.section	.text.chThdYield,"ax",%progbits
 555      AFF30080 
 555      AFF30080 
 556              		.align	2
 557              		.p2align 4,,15
ARM GAS  C:\DOCUME~1\z_80\LOCALS~1\Temp\ccRpLB2e.s 			page 11


 558              		.global	chThdYield
 559              		.thumb
 560              		.thumb_func
 561              		.type	chThdYield, %function
 562              	chThdYield:
 563              	.LFB15:
 564              		.loc 1 324 0
 565              		.cfi_startproc
 566              		@ args = 0, pretend = 0, frame = 0
 567              		@ frame_needed = 0, uses_anonymous_args = 0
 568 0000 08B5     		push	{r3, lr}
 569              	.LCFI8:
 570              		.cfi_def_cfa_offset 8
 571              	.LBB26:
 572              		.loc 1 326 0
 573 0002 2023     		movs	r3, #32
 574              		.cfi_offset 14, -4
 575              		.cfi_offset 3, -8
 576              	.LVL52:
 577              	@ 326 "../chibios_2.6.3/os/kernel/src/chthreads.c" 1
 578 0004 83F31188 		msr     BASEPRI, r3
 579              	@ 0 "" 2
 580              	.LVL53:
 581              		.thumb
 582              	.LBE26:
 583              		.loc 1 327 0
 584 0008 064A     		ldr	r2, .L23
 585 000a 9069     		ldr	r0, [r2, #24]
 586 000c 1168     		ldr	r1, [r2, #0]
 587 000e 8368     		ldr	r3, [r0, #8]
 588              	.LVL54:
 589 0010 8A68     		ldr	r2, [r1, #8]
 590 0012 9A42     		cmp	r2, r3
 591 0014 01D3     		bcc	.L22
 592              		.loc 1 327 0 is_stmt 0 discriminator 1
 593 0016 FFF7FEFF 		bl	chSchDoRescheduleBehind
 594              	.L22:
 595              	.LBB27:
 596              		.loc 1 328 0 is_stmt 1
 597 001a 0023     		movs	r3, #0
 598              	.LVL55:
 599              	@ 328 "../chibios_2.6.3/os/kernel/src/chthreads.c" 1
 600 001c 83F31188 		msr     BASEPRI, r3
 601              	@ 0 "" 2
 602              	.LVL56:
 603              		.thumb
 604              	.LBE27:
 605              		.loc 1 329 0
 606 0020 08BD     		pop	{r3, pc}
 607              	.L24:
 608 0022 00BF     		.align	2
 609              	.L23:
 610 0024 00000000 		.word	rlist
 611              		.cfi_endproc
 612              	.LFE15:
 613              		.size	chThdYield, .-chThdYield
 614 0028 AFF30080 		.section	.text.chThdExitS,"ax",%progbits
ARM GAS  C:\DOCUME~1\z_80\LOCALS~1\Temp\ccRpLB2e.s 			page 12


 614      AFF30080 
 615              		.align	2
 616              		.p2align 4,,15
 617              		.global	chThdExitS
 618              		.thumb
 619              		.thumb_func
 620              		.type	chThdExitS, %function
 621              	chThdExitS:
 622              	.LFB17:
 623              		.loc 1 366 0
 624              		.cfi_startproc
 625              		@ args = 0, pretend = 0, frame = 0
 626              		@ frame_needed = 0, uses_anonymous_args = 0
 627              	.LVL57:
 628              		.loc 1 367 0
 629 0000 0F4B     		ldr	r3, .L31
 630              		.loc 1 366 0
 631 0002 70B5     		push	{r4, r5, r6, lr}
 632              	.LCFI9:
 633              		.cfi_def_cfa_offset 16
 634              		.loc 1 367 0
 635 0004 9C69     		ldr	r4, [r3, #24]
 636              		.cfi_offset 14, -4
 637              		.cfi_offset 6, -8
 638              		.cfi_offset 5, -12
 639              		.cfi_offset 4, -16
 640              	.LVL58:
 641              		.loc 1 374 0
 642 0006 2546     		mov	r5, r4
 643 0008 55F8283F 		ldr	r3, [r5, #40]!
 644              	.LVL59:
 645              		.loc 1 369 0
 646 000c 6062     		str	r0, [r4, #36]
 647              		.loc 1 374 0
 648 000e AB42     		cmp	r3, r5
 649 0010 07D0     		beq	.L26
 650              	.LVL60:
 651              	.L29:
 652              	.LBB28:
 653              	.LBB29:
 654              		.file 2 "../chibios_2.6.3/os/kernel/include/chinline.h"
 655              		.loc 2 89 0
 656 0012 1A68     		ldr	r2, [r3, #0]
 657              	.LBE29:
 658              	.LBE28:
 659              		.loc 1 375 0
 660 0014 1846     		mov	r0, r3
 661              	.LBB31:
 662              	.LBB30:
 663              		.loc 2 89 0
 664 0016 A262     		str	r2, [r4, #40]
 665              	.LBE30:
 666              	.LBE31:
 667              		.loc 1 375 0
 668 0018 FFF7FEFF 		bl	chSchReadyI
 669              	.LVL61:
 670              		.loc 1 374 0
ARM GAS  C:\DOCUME~1\z_80\LOCALS~1\Temp\ccRpLB2e.s 			page 13


 671 001c A36A     		ldr	r3, [r4, #40]
 672 001e AB42     		cmp	r3, r5
 673 0020 F7D1     		bne	.L29
 674              	.LVL62:
 675              	.L26:
 676              		.loc 1 380 0
 677 0022 607F     		ldrb	r0, [r4, #29]	@ zero_extendqisi2
 678 0024 10F0030F 		tst	r0, #3
 679 0028 04D1     		bne	.L28
 680              		.loc 1 381 0
 681 002a 6369     		ldr	r3, [r4, #20]
 682 002c 2269     		ldr	r2, [r4, #16]
 683 002e 1A61     		str	r2, [r3, #16]
 684 0030 2169     		ldr	r1, [r4, #16]
 685 0032 4B61     		str	r3, [r1, #20]
 686              	.L28:
 687              		.loc 1 383 0
 688 0034 0E20     		movs	r0, #14
 689              		.loc 1 386 0
 690 0036 BDE87040 		pop	{r4, r5, r6, lr}
 691              		.loc 1 383 0
 692 003a FFF7FEBF 		b	chSchGoSleepS
 693              	.L32:
 694 003e 00BF     		.align	2
 695              	.L31:
 696 0040 00000000 		.word	rlist
 697              		.cfi_endproc
 698              	.LFE17:
 699              		.size	chThdExitS, .-chThdExitS
 700 0044 AFF30080 		.section	.text.chThdExit,"ax",%progbits
 700      AFF30080 
 700      AFF30080 
 701              		.align	2
 702              		.p2align 4,,15
 703              		.global	chThdExit
 704              		.thumb
 705              		.thumb_func
 706              		.type	chThdExit, %function
 707              	chThdExit:
 708              	.LFB16:
 709              		.loc 1 345 0
 710              		.cfi_startproc
 711              		@ args = 0, pretend = 0, frame = 0
 712              		@ frame_needed = 0, uses_anonymous_args = 0
 713              		@ link register save eliminated.
 714              	.LVL63:
 715              	.LBB32:
 716              		.loc 1 347 0
 717 0000 2023     		movs	r3, #32
 718              	.LVL64:
 719              	@ 347 "../chibios_2.6.3/os/kernel/src/chthreads.c" 1
 720 0002 83F31188 		msr     BASEPRI, r3
 721              	@ 0 "" 2
 722              	.LVL65:
 723              		.thumb
 724              	.LBE32:
 725              		.loc 1 350 0
ARM GAS  C:\DOCUME~1\z_80\LOCALS~1\Temp\ccRpLB2e.s 			page 14


 726              		.loc 1 348 0
 727 0006 FFF7FEBF 		b	chThdExitS
 728              		.cfi_endproc
 729              	.LFE16:
 730              		.size	chThdExit, .-chThdExit
 731 000a 00BFAFF3 		.section	.text.chThdWait,"ax",%progbits
 731      0080
 732              		.align	2
 733              		.p2align 4,,15
 734              		.global	chThdWait
 735              		.thumb
 736              		.thumb_func
 737              		.type	chThdWait, %function
 738              	chThdWait:
 739              	.LFB18:
 740              		.loc 1 420 0
 741              		.cfi_startproc
 742              		@ args = 0, pretend = 0, frame = 0
 743              		@ frame_needed = 0, uses_anonymous_args = 0
 744              	.LVL66:
 745 0000 38B5     		push	{r3, r4, r5, lr}
 746              	.LCFI10:
 747              		.cfi_def_cfa_offset 16
 748              		.loc 1 420 0
 749 0002 0446     		mov	r4, r0
 750              		.cfi_offset 14, -4
 751              		.cfi_offset 5, -8
 752              		.cfi_offset 4, -12
 753              		.cfi_offset 3, -16
 754              	.LBB33:
 755              		.loc 1 425 0
 756 0004 2023     		movs	r3, #32
 757              	.LVL67:
 758              	@ 425 "../chibios_2.6.3/os/kernel/src/chthreads.c" 1
 759 0006 83F31188 		msr     BASEPRI, r3
 760              	@ 0 "" 2
 761              	.LVL68:
 762              		.thumb
 763              	.LBE33:
 764              		.loc 1 430 0
 765 000a 037F     		ldrb	r3, [r0, #28]	@ zero_extendqisi2
 766              	.LVL69:
 767 000c 0E2B     		cmp	r3, #14
 768 000e 07D0     		beq	.L35
 769              	.LBB34:
 770              	.LBB35:
 771              		.loc 2 82 0
 772 0010 826A     		ldr	r2, [r0, #40]
 773              	.LBE35:
 774              	.LBE34:
 775              		.loc 1 431 0
 776 0012 0848     		ldr	r0, .L36
 777              	.LVL70:
 778 0014 8169     		ldr	r1, [r0, #24]
 779              	.LVL71:
 780              		.loc 1 432 0
 781 0016 0720     		movs	r0, #7
ARM GAS  C:\DOCUME~1\z_80\LOCALS~1\Temp\ccRpLB2e.s 			page 15


 782              	.LVL72:
 783              	.LBB37:
 784              	.LBB36:
 785              		.loc 2 82 0
 786 0018 0A60     		str	r2, [r1, #0]
 787              		.loc 2 83 0
 788 001a A162     		str	r1, [r4, #40]
 789              	.LBE36:
 790              	.LBE37:
 791              		.loc 1 432 0
 792 001c FFF7FEFF 		bl	chSchGoSleepS
 793              	.LVL73:
 794              	.L35:
 795              		.loc 1 434 0
 796 0020 656A     		ldr	r5, [r4, #36]
 797              	.LVL74:
 798              	.LBB38:
 799              		.loc 1 435 0
 800 0022 0023     		movs	r3, #0
 801              	.LVL75:
 802              	@ 435 "../chibios_2.6.3/os/kernel/src/chthreads.c" 1
 803 0024 83F31188 		msr     BASEPRI, r3
 804              	@ 0 "" 2
 805              	.LVL76:
 806              		.thumb
 807              	.LBE38:
 808              		.loc 1 437 0
 809 0028 2046     		mov	r0, r4
 810 002a FFF7FEFF 		bl	chThdRelease
 811              	.LVL77:
 812              		.loc 1 440 0
 813 002e 2846     		mov	r0, r5
 814 0030 38BD     		pop	{r3, r4, r5, pc}
 815              	.L37:
 816 0032 00BF     		.align	2
 817              	.L36:
 818 0034 00000000 		.word	rlist
 819              		.cfi_endproc
 820              	.LFE18:
 821              		.size	chThdWait, .-chThdWait
 822 0038 AFF30080 		.text
 822      AFF30080 
 823              	.Letext0: