ARM GAS  C:\DOCUME~1\z_80\LOCALS~1\Temp\ccCcKgDg.s 			page 1


   1              		.syntax unified
   2              		.cpu cortex-m3
   3              		.fpu softvfp
   4              		.eabi_attribute 20, 1
   5              		.eabi_attribute 21, 1
   6              		.eabi_attribute 23, 3
   7              		.eabi_attribute 24, 1
   8              		.eabi_attribute 25, 1
   9              		.eabi_attribute 26, 1
  10              		.eabi_attribute 30, 2
  11              		.eabi_attribute 18, 4
  12              		.thumb
  13              		.file	"chvt.c"
  20 0000 6B010000 		.text
  20      02001401 
  20      00000201 
  20      FB0E0D00 
  20      01010101 
  21              	.Ltext0:
  22              		.cfi_sections	.debug_frame
  23              		.section	.text._vt_init,"ax",%progbits
  24              		.align	2
  25              		.p2align 4,,15
  26              		.global	_vt_init
  27              		.thumb
  28              		.thumb_func
  29              		.type	_vt_init, %function
  30              	_vt_init:
  31              	.LFB7:
  32              		.file 1 "../chibios_2.6.3/os/kernel/src/chvt.c"
  33              		.loc 1 50 0
  34              		.cfi_startproc
  35              		@ args = 0, pretend = 0, frame = 0
  36              		@ frame_needed = 0, uses_anonymous_args = 0
  37              		@ link register save eliminated.
  38              		.loc 1 52 0
  39 0000 044B     		ldr	r3, .L2
  40              		.loc 1 53 0
  41 0002 4FF0FF30 		mov	r0, #-1
  42              		.loc 1 54 0
  43 0006 0022     		movs	r2, #0
  44              		.loc 1 52 0
  45 0008 5B60     		str	r3, [r3, #4]
  46 000a 1B60     		str	r3, [r3, #0]
  47              		.loc 1 53 0
  48 000c 9860     		str	r0, [r3, #8]
  49              		.loc 1 54 0
  50 000e DA60     		str	r2, [r3, #12]
  51              		.loc 1 55 0
  52 0010 7047     		bx	lr
  53              	.L3:
ARM GAS  C:\DOCUME~1\z_80\LOCALS~1\Temp\ccCcKgDg.s 			page 2


  54 0012 00BF     		.align	2
  55              	.L2:
  56 0014 00000000 		.word	.LANCHOR0
  57              		.cfi_endproc
  58              	.LFE7:
  59              		.size	_vt_init, .-_vt_init
  60 0018 AFF30080 		.section	.text.chVTSetI,"ax",%progbits
  60      AFF30080 
  61              		.align	2
  62              		.p2align 4,,15
  63              		.global	chVTSetI
  64              		.thumb
  65              		.thumb_func
  66              		.type	chVTSetI, %function
  67              	chVTSetI:
  68              	.LFB8:
  69              		.loc 1 76 0
  70              		.cfi_startproc
  71              		@ args = 0, pretend = 0, frame = 0
  72              		@ frame_needed = 0, uses_anonymous_args = 0
  73              		@ link register save eliminated.
  74              	.LVL0:
  75 0000 70B4     		push	{r4, r5, r6}
  76              	.LCFI0:
  77              		.cfi_def_cfa_offset 12
  78              		.loc 1 85 0
  79 0002 0C4C     		ldr	r4, .L11
  80              		.cfi_offset 6, -4
  81              		.cfi_offset 5, -8
  82              		.cfi_offset 4, -12
  83              		.loc 1 83 0
  84 0004 0361     		str	r3, [r0, #16]
  85              		.loc 1 85 0
  86 0006 2568     		ldr	r5, [r4, #0]
  87              	.LVL1:
  88              		.loc 1 84 0
  89 0008 C260     		str	r2, [r0, #12]
  90              		.loc 1 86 0
  91 000a AE68     		ldr	r6, [r5, #8]
  92 000c B142     		cmp	r1, r6
  93 000e 04D9     		bls	.L5
  94              	.LVL2:
  95              	.L8:
  96              		.loc 1 88 0
  97 0010 2D68     		ldr	r5, [r5, #0]
  98              	.LVL3:
  99              		.loc 1 87 0
 100 0012 891B     		subs	r1, r1, r6
 101              	.LVL4:
 102              		.loc 1 86 0
 103 0014 AE68     		ldr	r6, [r5, #8]
 104 0016 8E42     		cmp	r6, r1
 105 0018 FAD3     		bcc	.L8
 106              	.L5:
 107              		.loc 1 91 0
 108 001a 6B68     		ldr	r3, [r5, #4]
 109              	.LVL5:
ARM GAS  C:\DOCUME~1\z_80\LOCALS~1\Temp\ccCcKgDg.s 			page 3


 110              		.loc 1 94 0
 111 001c A542     		cmp	r5, r4
 112              		.loc 1 91 0
 113 001e 0560     		str	r5, [r0, #0]
 114 0020 4360     		str	r3, [r0, #4]
 115              		.loc 1 92 0
 116 0022 1860     		str	r0, [r3, #0]
 117 0024 6860     		str	r0, [r5, #4]
 118              		.loc 1 93 0
 119 0026 8160     		str	r1, [r0, #8]
 120              		.loc 1 94 0
 121 0028 02D0     		beq	.L4
 122              		.loc 1 95 0
 123 002a A868     		ldr	r0, [r5, #8]
 124              	.LVL6:
 125 002c 411A     		subs	r1, r0, r1
 126              	.LVL7:
 127 002e A960     		str	r1, [r5, #8]
 128              	.L4:
 129              		.loc 1 96 0
 130 0030 70BC     		pop	{r4, r5, r6}
 131 0032 7047     		bx	lr
 132              	.L12:
 133              		.align	2
 134              	.L11:
 135 0034 00000000 		.word	.LANCHOR0
 136              		.cfi_endproc
 137              	.LFE8:
 138              		.size	chVTSetI, .-chVTSetI
 139 0038 AFF30080 		.section	.text.chVTResetI,"ax",%progbits
 139      AFF30080 
 140              		.align	2
 141              		.p2align 4,,15
 142              		.global	chVTResetI
 143              		.thumb
 144              		.thumb_func
 145              		.type	chVTResetI, %function
 146              	chVTResetI:
 147              	.LFB9:
 148              		.loc 1 106 0
 149              		.cfi_startproc
 150              		@ args = 0, pretend = 0, frame = 0
 151              		@ frame_needed = 0, uses_anonymous_args = 0
 152              		@ link register save eliminated.
 153              	.LVL8:
 154              		.loc 1 114 0
 155 0000 0368     		ldr	r3, [r0, #0]
 156 0002 074A     		ldr	r2, .L15
 157 0004 9342     		cmp	r3, r2
 158 0006 03D0     		beq	.L14
 159              		.loc 1 115 0
 160 0008 9968     		ldr	r1, [r3, #8]
 161 000a 8268     		ldr	r2, [r0, #8]
 162 000c 8918     		adds	r1, r1, r2
 163 000e 9960     		str	r1, [r3, #8]
 164              	.L14:
 165              		.loc 1 116 0
ARM GAS  C:\DOCUME~1\z_80\LOCALS~1\Temp\ccCcKgDg.s 			page 4


 166 0010 4268     		ldr	r2, [r0, #4]
 167              		.loc 1 118 0
 168 0012 0021     		movs	r1, #0
 169              		.loc 1 116 0
 170 0014 1360     		str	r3, [r2, #0]
 171              		.loc 1 117 0
 172 0016 0368     		ldr	r3, [r0, #0]
 173              		.loc 1 118 0
 174 0018 C160     		str	r1, [r0, #12]
 175              		.loc 1 117 0
 176 001a 5A60     		str	r2, [r3, #4]
 177              		.loc 1 119 0
 178 001c 7047     		bx	lr
 179              	.L16:
 180 001e 00BF     		.align	2
 181              	.L15:
 182 0020 00000000 		.word	.LANCHOR0
 183              		.cfi_endproc
 184              	.LFE9:
 185              		.size	chVTResetI, .-chVTResetI
 186              		.global	vtlist
 187 0024 AFF30080 		.section	.bss.vtlist,"aw",%nobits
 187      AFF30080 
 187      AFF30080 
 188              		.align	2
 189              		.set	.LANCHOR0,. + 0
 190              		.type	vtlist, %object
 191              		.size	vtlist, 16
 192              	vtlist:
 193 0000 00000000 		.space	16
 193      00000000 
 193      00000000 
 193      00000000 
 194              		.text
 195              	.Letext0: