ARM GAS  C:\DOCUME~1\z_80\LOCALS~1\Temp\ccNfwm06.s 			page 1


   1              		.syntax unified
   2              		.cpu cortex-m3
   3              		.fpu softvfp
   4              		.eabi_attribute 20, 1
   5              		.eabi_attribute 21, 1
   6              		.eabi_attribute 23, 3
   7              		.eabi_attribute 24, 1
   8              		.eabi_attribute 25, 1
   9              		.eabi_attribute 26, 1
  10              		.eabi_attribute 30, 2
  11              		.eabi_attribute 18, 4
  12              		.thumb
  13              		.file	"crt0.c"
  20 0000 6B010000 		.text
  20      0200BB00 
  20      00000201 
  20      FB0E0D00 
  20      01010101 
  21              	.Ltext0:
  22              		.cfi_sections	.debug_frame
  23              		.section	.text.__early_init,"ax",%progbits
  24              		.align	2
  25              		.p2align 4,,15
  26              		.weak	__early_init
  27              		.thumb
  28              		.thumb_func
  29              		.type	__early_init, %function
  30              	__early_init:
  31              	.LFB0:
  32              		.file 1 "../chibios_2.6.3/os/ports/GCC/ARMCMx/crt0.c"
  33              		.loc 1 234 0
  34              		.cfi_startproc
  35              		@ args = 0, pretend = 0, frame = 0
  36              		@ frame_needed = 0, uses_anonymous_args = 0
  37              		@ link register save eliminated.
  38              		.loc 1 234 0
  39 0000 7047     		bx	lr
  40              		.cfi_endproc
  41              	.LFE0:
  42              		.size	__early_init, .-__early_init
  43 0002 00BFAFF3 		.section	.text.__late_init,"ax",%progbits
  43      0080AFF3 
  43      0080AFF3 
  43      0080
  44              		.align	2
  45              		.p2align 4,,15
  46              		.weak	__late_init
  47              		.thumb
  48              		.thumb_func
  49              		.type	__late_init, %function
  50              	__late_init:
ARM GAS  C:\DOCUME~1\z_80\LOCALS~1\Temp\ccNfwm06.s 			page 2


  51              	.LFB1:
  52              		.loc 1 246 0
  53              		.cfi_startproc
  54              		@ args = 0, pretend = 0, frame = 0
  55              		@ frame_needed = 0, uses_anonymous_args = 0
  56              		@ link register save eliminated.
  57              		.loc 1 246 0
  58 0000 7047     		bx	lr
  59              		.cfi_endproc
  60              	.LFE1:
  61              		.size	__late_init, .-__late_init
  62 0002 00BFAFF3 		.section	.text._default_exit,"ax",%progbits
  62      0080AFF3 
  62      0080AFF3 
  62      0080
  63              		.align	2
  64              		.p2align 4,,15
  65              		.weak	_default_exit
  66              		.thumb
  67              		.thumb_func
  68              		.type	_default_exit, %function
  69              	_default_exit:
  70              	.LFB2:
  71              		.loc 1 257 0
  72              		.cfi_startproc
  73              		@ Naked Function: prologue and epilogue provided by programmer.
  74              		@ args = 0, pretend = 0, frame = 0
  75              		@ frame_needed = 0, uses_anonymous_args = 0
  76              	.L4:
  77 0000 FEE7     		b	.L4
  78              		.cfi_endproc
  79              	.LFE2:
  80              		.size	_default_exit, .-_default_exit
  81 0002 00BFAFF3 		.section	.text.ResetHandler,"ax",%progbits
  81      0080AFF3 
  81      0080AFF3 
  81      0080
  82              		.align	2
  83              		.p2align 4,,15
  84              		.global	ResetHandler
  85              		.thumb
  86              		.thumb_func
  87              		.type	ResetHandler, %function
  88              	ResetHandler:
  89              	.LFB3:
  90              		.loc 1 268 0
  91              		.cfi_startproc
  92              		@ Naked Function: prologue and epilogue provided by programmer.
  93              		@ args = 0, pretend = 0, frame = 0
  94              		@ frame_needed = 0, uses_anonymous_args = 0
  95              		.loc 1 274 0
  96              	@ 274 "../chibios_2.6.3/os/ports/GCC/ARMCMx/crt0.c" 1
  97 0000 72B6     		cpsid   i
  98              	@ 0 "" 2
  99              	.LVL0:
 100              		.loc 1 276 0
 101              		.thumb
ARM GAS  C:\DOCUME~1\z_80\LOCALS~1\Temp\ccNfwm06.s 			page 3


 102 0002 6348     		ldr	r0, .L55
 103              	@ 276 "../chibios_2.6.3/os/ports/GCC/ARMCMx/crt0.c" 1
 104 0004 80F30988 		msr     PSP, r0
 105              	@ 0 "" 2
 106              	.LVL1:
 107              		.loc 1 296 0
 108              		.thumb
 109 0008 0223     		movs	r3, #2
 110              	@ 296 "../chibios_2.6.3/os/ports/GCC/ARMCMx/crt0.c" 1
 111 000a 83F31488 		msr     CONTROL, r3
 112              	@ 0 "" 2
 113              		.loc 1 297 0
 114              	@ 297 "../chibios_2.6.3/os/ports/GCC/ARMCMx/crt0.c" 1
 115 000e BFF36F8F 		isb
 116              	@ 0 "" 2
 117              	.LVL2:
 118              		.thumb
 119              	.LBB2:
 120              		.loc 1 301 0
 121 0012 604A     		ldr	r2, .L55+4
 122 0014 604C     		ldr	r4, .L55+8
 123 0016 A242     		cmp	r2, r4
 124 0018 17D2     		bcs	.L6
 125              		.loc 1 301 0 is_stmt 0 discriminator 2
 126 001a 1346     		mov	r3, r2
 127 001c 4FF05531 		mov	r1, #1431655765
 128 0020 D643     		mvns	r6, r2
 129 0022 43F8041B 		str	r1, [r3], #4
 130              	.LVL3:
 131 0026 A519     		adds	r5, r4, r6
 132 0028 A342     		cmp	r3, r4
 133 002a C5F38005 		ubfx	r5, r5, #2, #1
 134 002e 0CD2     		bcs	.L6
 135 0030 25B1     		cbz	r5, .L7
 136              		.loc 1 301 0
 137 0032 1960     		str	r1, [r3, #0]
 138 0034 02F10803 		add	r3, r2, #8
 139              	.LVL4:
 140 0038 A342     		cmp	r3, r4
 141 003a 06D2     		bcs	.L6
 142              	.L7:
 143              		.loc 1 301 0 discriminator 2
 144 003c 1A46     		mov	r2, r3
 145 003e 42F8041B 		str	r1, [r2], #4
 146 0042 5960     		str	r1, [r3, #4]
 147 0044 131D     		adds	r3, r2, #4
 148 0046 A342     		cmp	r3, r4
 149 0048 F8D3     		bcc	.L7
 150              	.L6:
 151              	.LVL5:
 152              	.LBE2:
 153              	.LBB3:
 154              		.loc 1 304 0 is_stmt 1 discriminator 1
 155 004a 544A     		ldr	r2, .L55+12
 156 004c 8242     		cmp	r2, r0
 157 004e 17D2     		bcs	.L8
 158              		.loc 1 304 0 is_stmt 0 discriminator 2
ARM GAS  C:\DOCUME~1\z_80\LOCALS~1\Temp\ccNfwm06.s 			page 4


 159 0050 1346     		mov	r3, r2
 160 0052 4FF05531 		mov	r1, #1431655765
 161 0056 D543     		mvns	r5, r2
 162 0058 43F8041B 		str	r1, [r3], #4
 163              	.LVL6:
 164 005c 4419     		adds	r4, r0, r5
 165 005e 8342     		cmp	r3, r0
 166 0060 C4F38004 		ubfx	r4, r4, #2, #1
 167 0064 0CD2     		bcs	.L8
 168 0066 24B1     		cbz	r4, .L9
 169              		.loc 1 304 0
 170 0068 1960     		str	r1, [r3, #0]
 171 006a 02F10803 		add	r3, r2, #8
 172              	.LVL7:
 173 006e 8342     		cmp	r3, r0
 174 0070 06D2     		bcs	.L8
 175              	.L9:
 176              		.loc 1 304 0 discriminator 2
 177 0072 1E46     		mov	r6, r3
 178 0074 46F8041B 		str	r1, [r6], #4
 179 0078 5960     		str	r1, [r3, #4]
 180 007a 331D     		adds	r3, r6, #4
 181 007c 8342     		cmp	r3, r0
 182 007e F8D3     		bcc	.L9
 183              	.L8:
 184              	.LBE3:
 185              		.loc 1 310 0 is_stmt 1
 186 0080 FFF7FEFF 		bl	__early_init
 187              	.LVL8:
 188              	.LBB4:
 189              		.loc 1 319 0
 190 0084 464C     		ldr	r4, .L55+16
 191 0086 4749     		ldr	r1, .L55+20
 192 0088 A142     		cmp	r1, r4
 193 008a 22D2     		bcs	.L10
 194 008c 4648     		ldr	r0, .L55+24
 195              		.loc 1 320 0
 196 008e 0B46     		mov	r3, r1
 197 0090 0246     		mov	r2, r0
 198 0092 52F8046B 		ldr	r6, [r2], #4
 199 0096 CD43     		mvns	r5, r1
 200 0098 43F8046B 		str	r6, [r3], #4
 201              	.LVL9:
 202 009c 04EB050C 		add	ip, r4, r5
 203              		.loc 1 319 0
 204 00a0 A342     		cmp	r3, r4
 205 00a2 CCF38005 		ubfx	r5, ip, #2, #1
 206 00a6 14D2     		bcs	.L10
 207 00a8 3DB1     		cbz	r5, .L11
 208              		.loc 1 320 0
 209 00aa 1668     		ldr	r6, [r2, #0]
 210 00ac 00F10802 		add	r2, r0, #8
 211 00b0 1E60     		str	r6, [r3, #0]
 212 00b2 01F10803 		add	r3, r1, #8
 213              	.LVL10:
 214              		.loc 1 319 0
 215 00b6 A342     		cmp	r3, r4
ARM GAS  C:\DOCUME~1\z_80\LOCALS~1\Temp\ccNfwm06.s 			page 5


 216 00b8 0BD2     		bcs	.L10
 217              	.L11:
 218              		.loc 1 320 0
 219 00ba 1046     		mov	r0, r2
 220 00bc 50F8045B 		ldr	r5, [r0], #4
 221 00c0 1946     		mov	r1, r3
 222 00c2 41F8045B 		str	r5, [r1], #4
 223 00c6 5668     		ldr	r6, [r2, #4]
 224 00c8 021D     		adds	r2, r0, #4
 225 00ca 5E60     		str	r6, [r3, #4]
 226 00cc 0B1D     		adds	r3, r1, #4
 227              		.loc 1 319 0
 228 00ce A342     		cmp	r3, r4
 229 00d0 F3D3     		bcc	.L11
 230              	.L10:
 231              	.LVL11:
 232              	.LBE4:
 233              	.LBB5:
 234              		.loc 1 326 0 discriminator 1
 235 00d2 364A     		ldr	r2, .L55+28
 236 00d4 3648     		ldr	r0, .L55+32
 237 00d6 8242     		cmp	r2, r0
 238 00d8 17D2     		bcs	.L12
 239              		.loc 1 326 0 is_stmt 0 discriminator 2
 240 00da 0021     		movs	r1, #0
 241 00dc 1346     		mov	r3, r2
 242 00de D443     		mvns	r4, r2
 243 00e0 43F8041B 		str	r1, [r3], #4
 244              	.LVL12:
 245 00e4 00EB040E 		add	lr, r0, r4
 246 00e8 8342     		cmp	r3, r0
 247 00ea CEF38004 		ubfx	r4, lr, #2, #1
 248 00ee 0CD2     		bcs	.L12
 249 00f0 24B1     		cbz	r4, .L13
 250              		.loc 1 326 0
 251 00f2 1960     		str	r1, [r3, #0]
 252 00f4 02F10803 		add	r3, r2, #8
 253              	.LVL13:
 254 00f8 8342     		cmp	r3, r0
 255 00fa 06D2     		bcs	.L12
 256              	.L13:
 257              		.loc 1 326 0 discriminator 2
 258 00fc 1A46     		mov	r2, r3
 259 00fe 42F8041B 		str	r1, [r2], #4
 260 0102 5960     		str	r1, [r3, #4]
 261 0104 131D     		adds	r3, r2, #4
 262 0106 8342     		cmp	r3, r0
 263 0108 F8D3     		bcc	.L13
 264              	.L12:
 265              	.LBE5:
 266              	.LBB6:
 267              		.loc 1 336 0 is_stmt 1
 268 010a 2A4D     		ldr	r5, .L55+36
 269 010c 2A4E     		ldr	r6, .L55+40
 270              	.LBE6:
 271              		.loc 1 330 0
 272 010e FFF7FEFF 		bl	__late_init
ARM GAS  C:\DOCUME~1\z_80\LOCALS~1\Temp\ccNfwm06.s 			page 6


 273              	.LVL14:
 274              	.LBB7:
 275              		.loc 1 336 0
 276 0112 B542     		cmp	r5, r6
 277 0114 19D2     		bcs	.L14
 278              		.loc 1 337 0
 279 0116 2C46     		mov	r4, r5
 280 0118 54F8043B 		ldr	r3, [r4], #4
 281 011c E943     		mvns	r1, r5
 282 011e 7718     		adds	r7, r6, r1
 283 0120 9847     		blx	r3
 284              	.LVL15:
 285              		.loc 1 336 0
 286 0122 B442     		cmp	r4, r6
 287 0124 C7F38007 		ubfx	r7, r7, #2, #1
 288 0128 0FD2     		bcs	.L14
 289 012a 2FB1     		cbz	r7, .L15
 290              		.loc 1 337 0
 291 012c 2368     		ldr	r3, [r4, #0]
 292              		.loc 1 338 0
 293 012e 05F10804 		add	r4, r5, #8
 294              		.loc 1 337 0
 295 0132 9847     		blx	r3
 296              	.LVL16:
 297              		.loc 1 336 0
 298 0134 B442     		cmp	r4, r6
 299 0136 08D2     		bcs	.L14
 300              	.L15:
 301              		.loc 1 337 0
 302 0138 2546     		mov	r5, r4
 303 013a 55F8042B 		ldr	r2, [r5], #4
 304 013e 9047     		blx	r2
 305 0140 6068     		ldr	r0, [r4, #4]
 306              		.loc 1 338 0
 307 0142 2C1D     		adds	r4, r5, #4
 308              		.loc 1 337 0
 309 0144 8047     		blx	r0
 310              		.loc 1 336 0
 311 0146 B442     		cmp	r4, r6
 312 0148 F6D3     		bcc	.L15
 313              	.L14:
 314              	.LBE7:
 315              	.LBB8:
 316              		.loc 1 350 0
 317 014a 1C4D     		ldr	r5, .L55+44
 318 014c 1C4E     		ldr	r6, .L55+48
 319              	.LBE8:
 320              		.loc 1 344 0
 321 014e FFF7FEFF 		bl	main
 322              	.LVL17:
 323              	.LBB9:
 324              		.loc 1 350 0
 325 0152 B542     		cmp	r5, r6
 326 0154 1AD2     		bcs	.L16
 327              		.loc 1 351 0
 328 0156 2C46     		mov	r4, r5
 329 0158 EF43     		mvns	r7, r5
ARM GAS  C:\DOCUME~1\z_80\LOCALS~1\Temp\ccNfwm06.s 			page 7


 330 015a 54F8043B 		ldr	r3, [r4], #4
 331 015e 06EB070C 		add	ip, r6, r7
 332 0162 CCF38007 		ubfx	r7, ip, #2, #1
 333 0166 9847     		blx	r3
 334              	.LVL18:
 335              		.loc 1 350 0
 336 0168 B442     		cmp	r4, r6
 337 016a 0FD2     		bcs	.L16
 338 016c 2FB1     		cbz	r7, .L17
 339              		.loc 1 351 0
 340 016e 2268     		ldr	r2, [r4, #0]
 341              		.loc 1 352 0
 342 0170 05F10804 		add	r4, r5, #8
 343              		.loc 1 351 0
 344 0174 9047     		blx	r2
 345              	.LVL19:
 346              		.loc 1 350 0
 347 0176 B442     		cmp	r4, r6
 348 0178 08D2     		bcs	.L16
 349              	.L17:
 350              		.loc 1 351 0
 351 017a 2546     		mov	r5, r4
 352 017c 55F8040B 		ldr	r0, [r5], #4
 353 0180 8047     		blx	r0
 354 0182 6168     		ldr	r1, [r4, #4]
 355              		.loc 1 352 0
 356 0184 2C1D     		adds	r4, r5, #4
 357              		.loc 1 351 0
 358 0186 8847     		blx	r1
 359              		.loc 1 350 0
 360 0188 B442     		cmp	r4, r6
 361 018a F6D3     		bcc	.L17
 362              	.L16:
 363              	.LBE9:
 364              		.loc 1 359 0
 365              		.loc 1 358 0
 366 018c FFF7FEBF 		b	_default_exit
 367              	.L56:
 368              		.align	2
 369              	.L55:
 370 0190 00000000 		.word	__process_stack_end__
 371 0194 00000000 		.word	__main_stack_base__
 372 0198 00000000 		.word	__main_stack_end__
 373 019c 00000000 		.word	__process_stack_base__
 374 01a0 00000000 		.word	_edata
 375 01a4 00000000 		.word	_data
 376 01a8 00000000 		.word	_textdata
 377 01ac 00000000 		.word	_bss_start
 378 01b0 00000000 		.word	_bss_end
 379 01b4 00000000 		.word	__init_array_start
 380 01b8 00000000 		.word	__init_array_end
 381 01bc 00000000 		.word	__fini_array_start
 382 01c0 00000000 		.word	__fini_array_end
 383              		.cfi_endproc
 384              	.LFE3:
 385              		.size	ResetHandler, .-ResetHandler
 386 01c4 AFF30080 		.text
ARM GAS  C:\DOCUME~1\z_80\LOCALS~1\Temp\ccNfwm06.s 			page 8


 386      AFF30080 
 386      AFF30080 
 387              	.Letext0: