ARM GAS  C:\DOCUME~1\z_80\LOCALS~1\Temp\ccNfwm06.s 			page 1


   1              		.syntax unified
   2              		.cpu cortex-m3
   3              		.fpu softvfp
   4              		.eabi_attribute 20, 1
   5              		.eabi_attribute 21, 1
   6              		.eabi_attribute 23, 3
   7              		.eabi_attribute 24, 1
   8              		.eabi_attribute 25, 1
   9              		.eabi_attribute 26, 1
  10              		.eabi_attribute 30, 2
  11              		.eabi_attribute 18, 4
  12              		.thumb
  13              		.file	"crt0.c"
  14              		.section	.debug_abbrev,"",%progbits
  15              	.Ldebug_abbrev0:
  16              		.section	.debug_info,"",%progbits
  17              	.Ldebug_info0:
  18              		.section	.debug_line,"",%progbits
  19              	.Ldebug_line0:
  20 0000 6B010000 		.text
  20      0200BB00 
  20      00000201 
  20      FB0E0D00 
  20      01010101 
  21              	.Ltext0:
  22              		.cfi_sections	.debug_frame
  23              		.section	.text.__early_init,"ax",%progbits
  24              		.align	2
  25              		.p2align 4,,15
  26              		.weak	__early_init
  27              		.thumb
  28              		.thumb_func
  29              		.type	__early_init, %function
  30              	__early_init:
  31              	.LFB0:
  32              		.file 1 "../chibios_2.6.3/os/ports/GCC/ARMCMx/crt0.c"
  33              		.loc 1 234 0
  34              		.cfi_startproc
  35              		@ args = 0, pretend = 0, frame = 0
  36              		@ frame_needed = 0, uses_anonymous_args = 0
  37              		@ link register save eliminated.
  38              		.loc 1 234 0
  39 0000 7047     		bx	lr
  40              		.cfi_endproc
  41              	.LFE0:
  42              		.size	__early_init, .-__early_init
  43 0002 00BFAFF3 		.section	.text.__late_init,"ax",%progbits
  43      0080AFF3 
  43      0080AFF3 
  43      0080
  44              		.align	2
  45              		.p2align 4,,15
  46              		.weak	__late_init
  47              		.thumb
  48              		.thumb_func
  49              		.type	__late_init, %function
  50              	__late_init:
ARM GAS  C:\DOCUME~1\z_80\LOCALS~1\Temp\ccNfwm06.s 			page 2


  51              	.LFB1:
  52              		.loc 1 246 0
  53              		.cfi_startproc
  54              		@ args = 0, pretend = 0, frame = 0
  55              		@ frame_needed = 0, uses_anonymous_args = 0
  56              		@ link register save eliminated.
  57              		.loc 1 246 0
  58 0000 7047     		bx	lr
  59              		.cfi_endproc
  60              	.LFE1:
  61              		.size	__late_init, .-__late_init
  62 0002 00BFAFF3 		.section	.text._default_exit,"ax",%progbits
  62      0080AFF3 
  62      0080AFF3 
  62      0080
  63              		.align	2
  64              		.p2align 4,,15
  65              		.weak	_default_exit
  66              		.thumb
  67              		.thumb_func
  68              		.type	_default_exit, %function
  69              	_default_exit:
  70              	.LFB2:
  71              		.loc 1 257 0
  72              		.cfi_startproc
  73              		@ Naked Function: prologue and epilogue provided by programmer.
  74              		@ args = 0, pretend = 0, frame = 0
  75              		@ frame_needed = 0, uses_anonymous_args = 0
  76              	.L4:
  77 0000 FEE7     		b	.L4
  78              		.cfi_endproc
  79              	.LFE2:
  80              		.size	_default_exit, .-_default_exit
  81 0002 00BFAFF3 		.section	.text.ResetHandler,"ax",%progbits
  81      0080AFF3 
  81      0080AFF3 
  81      0080
  82              		.align	2
  83              		.p2align 4,,15
  84              		.global	ResetHandler
  85              		.thumb
  86              		.thumb_func
  87              		.type	ResetHandler, %function
  88              	ResetHandler:
  89              	.LFB3:
  90              		.loc 1 268 0
  91              		.cfi_startproc
  92              		@ Naked Function: prologue and epilogue provided by programmer.
  93              		@ args = 0, pretend = 0, frame = 0
  94              		@ frame_needed = 0, uses_anonymous_args = 0
  95              		.loc 1 274 0
  96              	@ 274 "../chibios_2.6.3/os/ports/GCC/ARMCMx/crt0.c" 1
  97 0000 72B6     		cpsid   i
  98              	@ 0 "" 2
  99              	.LVL0:
 100              		.loc 1 276 0
 101              		.thumb
ARM GAS  C:\DOCUME~1\z_80\LOCALS~1\Temp\ccNfwm06.s 			page 3


 102 0002 6348     		ldr	r0, .L55
 103              	@ 276 "../chibios_2.6.3/os/ports/GCC/ARMCMx/crt0.c" 1
 104 0004 80F30988 		msr     PSP, r0
 105              	@ 0 "" 2
 106              	.LVL1:
 107              		.loc 1 296 0
 108              		.thumb
 109 0008 0223     		movs	r3, #2
 110              	@ 296 "../chibios_2.6.3/os/ports/GCC/ARMCMx/crt0.c" 1
 111 000a 83F31488 		msr     CONTROL, r3
 112              	@ 0 "" 2
 113              		.loc 1 297 0
 114              	@ 297 "../chibios_2.6.3/os/ports/GCC/ARMCMx/crt0.c" 1
 115 000e BFF36F8F 		isb
 116              	@ 0 "" 2
 117              	.LVL2:
 118              		.thumb
 119              	.LBB2:
 120              		.loc 1 301 0
 121 0012 604A     		ldr	r2, .L55+4
 122 0014 604C     		ldr	r4, .L55+8
 123 0016 A242     		cmp	r2, r4
 124 0018 17D2     		bcs	.L6
 125              		.loc 1 301 0 is_stmt 0 discriminator 2
 126 001a 1346     		mov	r3, r2
 127 001c 4FF05531 		mov	r1, #1431655765
 128 0020 D643     		mvns	r6, r2
 129 0022 43F8041B 		str	r1, [r3], #4
 130              	.LVL3:
 131 0026 A519     		adds	r5, r4, r6
 132 0028 A342     		cmp	r3, r4
 133 002a C5F38005 		ubfx	r5, r5, #2, #1
 134 002e 0CD2     		bcs	.L6
 135 0030 25B1     		cbz	r5, .L7
 136              		.loc 1 301 0
 137 0032 1960     		str	r1, [r3, #0]
 138 0034 02F10803 		add	r3, r2, #8
 139              	.LVL4:
 140 0038 A342     		cmp	r3, r4
 141 003a 06D2     		bcs	.L6
 142              	.L7:
 143              		.loc 1 301 0 discriminator 2
 144 003c 1A46     		mov	r2, r3
 145 003e 42F8041B 		str	r1, [r2], #4
 146 0042 5960     		str	r1, [r3, #4]
 147 0044 131D     		adds	r3, r2, #4
 148 0046 A342     		cmp	r3, r4
 149 0048 F8D3     		bcc	.L7
 150              	.L6:
 151              	.LVL5:
 152              	.LBE2:
 153              	.LBB3:
 154              		.loc 1 304 0 is_stmt 1 discriminator 1
 155 004a 544A     		ldr	r2, .L55+12
 156 004c 8242     		cmp	r2, r0
 157 004e 17D2     		bcs	.L8
 158              		.loc 1 304 0 is_stmt 0 discriminator 2
ARM GAS  C:\DOCUME~1\z_80\LOCALS~1\Temp\ccNfwm06.s 			page 4


 159 0050 1346     		mov	r3, r2
 160 0052 4FF05531 		mov	r1, #1431655765
 161 0056 D543     		mvns	r5, r2
 162 0058 43F8041B 		str	r1, [r3], #4
 163              	.LVL6:
 164 005c 4419     		adds	r4, r0, r5
 165 005e 8342     		cmp	r3, r0
 166 0060 C4F38004 		ubfx	r4, r4, #2, #1
 167 0064 0CD2     		bcs	.L8
 168 0066 24B1     		cbz	r4, .L9
 169              		.loc 1 304 0
 170 0068 1960     		str	r1, [r3, #0]
 171 006a 02F10803 		add	r3, r2, #8
 172              	.LVL7:
 173 006e 8342     		cmp	r3, r0
 174 0070 06D2     		bcs	.L8
 175              	.L9:
 176              		.loc 1 304 0 discriminator 2
 177 0072 1E46     		mov	r6, r3
 178 0074 46F8041B 		str	r1, [r6], #4
 179 0078 5960     		str	r1, [r3, #4]
 180 007a 331D     		adds	r3, r6, #4
 181 007c 8342     		cmp	r3, r0
 182 007e F8D3     		bcc	.L9
 183              	.L8:
 184              	.LBE3:
 185              		.loc 1 310 0 is_stmt 1
 186 0080 FFF7FEFF 		bl	__early_init
 187              	.LVL8:
 188              	.LBB4:
 189              		.loc 1 319 0
 190 0084 464C     		ldr	r4, .L55+16
 191 0086 4749     		ldr	r1, .L55+20
 192 0088 A142     		cmp	r1, r4
 193 008a 22D2     		bcs	.L10
 194 008c 4648     		ldr	r0, .L55+24
 195              		.loc 1 320 0
 196 008e 0B46     		mov	r3, r1
 197 0090 0246     		mov	r2, r0
 198 0092 52F8046B 		ldr	r6, [r2], #4
 199 0096 CD43     		mvns	r5, r1
 200 0098 43F8046B 		str	r6, [r3], #4
 201              	.LVL9:
 202 009c 04EB050C 		add	ip, r4, r5
 203              		.loc 1 319 0
 204 00a0 A342     		cmp	r3, r4
 205 00a2 CCF38005 		ubfx	r5, ip, #2, #1
 206 00a6 14D2     		bcs	.L10
 207 00a8 3DB1     		cbz	r5, .L11
 208              		.loc 1 320 0
 209 00aa 1668     		ldr	r6, [r2, #0]
 210 00ac 00F10802 		add	r2, r0, #8
 211 00b0 1E60     		str	r6, [r3, #0]
 212 00b2 01F10803 		add	r3, r1, #8
 213              	.LVL10:
 214              		.loc 1 319 0
 215 00b6 A342     		cmp	r3, r4
ARM GAS  C:\DOCUME~1\z_80\LOCALS~1\Temp\ccNfwm06.s 			page 5


 216 00b8 0BD2     		bcs	.L10
 217              	.L11:
 218              		.loc 1 320 0
 219 00ba 1046     		mov	r0, r2
 220 00bc 50F8045B 		ldr	r5, [r0], #4
 221 00c0 1946     		mov	r1, r3
 222 00c2 41F8045B 		str	r5, [r1], #4
 223 00c6 5668     		ldr	r6, [r2, #4]
 224 00c8 021D     		adds	r2, r0, #4
 225 00ca 5E60     		str	r6, [r3, #4]
 226 00cc 0B1D     		adds	r3, r1, #4
 227              		.loc 1 319 0
 228 00ce A342     		cmp	r3, r4
 229 00d0 F3D3     		bcc	.L11
 230              	.L10:
 231              	.LVL11:
 232              	.LBE4:
 233              	.LBB5:
 234              		.loc 1 326 0 discriminator 1
 235 00d2 364A     		ldr	r2, .L55+28
 236 00d4 3648     		ldr	r0, .L55+32
 237 00d6 8242     		cmp	r2, r0
 238 00d8 17D2     		bcs	.L12
 239              		.loc 1 326 0 is_stmt 0 discriminator 2
 240 00da 0021     		movs	r1, #0
 241 00dc 1346     		mov	r3, r2
 242 00de D443     		mvns	r4, r2
 243 00e0 43F8041B 		str	r1, [r3], #4
 244              	.LVL12:
 245 00e4 00EB040E 		add	lr, r0, r4
 246 00e8 8342     		cmp	r3, r0
 247 00ea CEF38004 		ubfx	r4, lr, #2, #1
 248 00ee 0CD2     		bcs	.L12
 249 00f0 24B1     		cbz	r4, .L13
 250              		.loc 1 326 0
 251 00f2 1960     		str	r1, [r3, #0]
 252 00f4 02F10803 		add	r3, r2, #8
 253              	.LVL13:
 254 00f8 8342     		cmp	r3, r0
 255 00fa 06D2     		bcs	.L12
 256              	.L13:
 257              		.loc 1 326 0 discriminator 2
 258 00fc 1A46     		mov	r2, r3
 259 00fe 42F8041B 		str	r1, [r2], #4
 260 0102 5960     		str	r1, [r3, #4]
 261 0104 131D     		adds	r3, r2, #4
 262 0106 8342     		cmp	r3, r0
 263 0108 F8D3     		bcc	.L13
 264              	.L12:
 265              	.LBE5:
 266              	.LBB6:
 267              		.loc 1 336 0 is_stmt 1
 268 010a 2A4D     		ldr	r5, .L55+36
 269 010c 2A4E     		ldr	r6, .L55+40
 270              	.LBE6:
 271              		.loc 1 330 0
 272 010e FFF7FEFF 		bl	__late_init
ARM GAS  C:\DOCUME~1\z_80\LOCALS~1\Temp\ccNfwm06.s 			page 6


 273              	.LVL14:
 274              	.LBB7:
 275              		.loc 1 336 0
 276 0112 B542     		cmp	r5, r6
 277 0114 19D2     		bcs	.L14
 278              		.loc 1 337 0
 279 0116 2C46     		mov	r4, r5
 280 0118 54F8043B 		ldr	r3, [r4], #4
 281 011c E943     		mvns	r1, r5
 282 011e 7718     		adds	r7, r6, r1
 283 0120 9847     		blx	r3
 284              	.LVL15:
 285              		.loc 1 336 0
 286 0122 B442     		cmp	r4, r6
 287 0124 C7F38007 		ubfx	r7, r7, #2, #1
 288 0128 0FD2     		bcs	.L14
 289 012a 2FB1     		cbz	r7, .L15
 290              		.loc 1 337 0
 291 012c 2368     		ldr	r3, [r4, #0]
 292              		.loc 1 338 0
 293 012e 05F10804 		add	r4, r5, #8
 294              		.loc 1 337 0
 295 0132 9847     		blx	r3
 296              	.LVL16:
 297              		.loc 1 336 0
 298 0134 B442     		cmp	r4, r6
 299 0136 08D2     		bcs	.L14
 300              	.L15:
 301              		.loc 1 337 0
 302 0138 2546     		mov	r5, r4
 303 013a 55F8042B 		ldr	r2, [r5], #4
 304 013e 9047     		blx	r2
 305 0140 6068     		ldr	r0, [r4, #4]
 306              		.loc 1 338 0
 307 0142 2C1D     		adds	r4, r5, #4
 308              		.loc 1 337 0
 309 0144 8047     		blx	r0
 310              		.loc 1 336 0
 311 0146 B442     		cmp	r4, r6
 312 0148 F6D3     		bcc	.L15
 313              	.L14:
 314              	.LBE7:
 315              	.LBB8:
 316              		.loc 1 350 0
 317 014a 1C4D     		ldr	r5, .L55+44
 318 014c 1C4E     		ldr	r6, .L55+48
 319              	.LBE8:
 320              		.loc 1 344 0
 321 014e FFF7FEFF 		bl	main
 322              	.LVL17:
 323              	.LBB9:
 324              		.loc 1 350 0
 325 0152 B542     		cmp	r5, r6
 326 0154 1AD2     		bcs	.L16
 327              		.loc 1 351 0
 328 0156 2C46     		mov	r4, r5
 329 0158 EF43     		mvns	r7, r5
ARM GAS  C:\DOCUME~1\z_80\LOCALS~1\Temp\ccNfwm06.s 			page 7


 330 015a 54F8043B 		ldr	r3, [r4], #4
 331 015e 06EB070C 		add	ip, r6, r7
 332 0162 CCF38007 		ubfx	r7, ip, #2, #1
 333 0166 9847     		blx	r3
 334              	.LVL18:
 335              		.loc 1 350 0
 336 0168 B442     		cmp	r4, r6
 337 016a 0FD2     		bcs	.L16
 338 016c 2FB1     		cbz	r7, .L17
 339              		.loc 1 351 0
 340 016e 2268     		ldr	r2, [r4, #0]
 341              		.loc 1 352 0
 342 0170 05F10804 		add	r4, r5, #8
 343              		.loc 1 351 0
 344 0174 9047     		blx	r2
 345              	.LVL19:
 346              		.loc 1 350 0
 347 0176 B442     		cmp	r4, r6
 348 0178 08D2     		bcs	.L16
 349              	.L17:
 350              		.loc 1 351 0
 351 017a 2546     		mov	r5, r4
 352 017c 55F8040B 		ldr	r0, [r5], #4
 353 0180 8047     		blx	r0
 354 0182 6168     		ldr	r1, [r4, #4]
 355              		.loc 1 352 0
 356 0184 2C1D     		adds	r4, r5, #4
 357              		.loc 1 351 0
 358 0186 8847     		blx	r1
 359              		.loc 1 350 0
 360 0188 B442     		cmp	r4, r6
 361 018a F6D3     		bcc	.L17
 362              	.L16:
 363              	.LBE9:
 364              		.loc 1 359 0
 365              		.loc 1 358 0
 366 018c FFF7FEBF 		b	_default_exit
 367              	.L56:
 368              		.align	2
 369              	.L55:
 370 0190 00000000 		.word	__process_stack_end__
 371 0194 00000000 		.word	__main_stack_base__
 372 0198 00000000 		.word	__main_stack_end__
 373 019c 00000000 		.word	__process_stack_base__
 374 01a0 00000000 		.word	_edata
 375 01a4 00000000 		.word	_data
 376 01a8 00000000 		.word	_textdata
 377 01ac 00000000 		.word	_bss_start
 378 01b0 00000000 		.word	_bss_end
 379 01b4 00000000 		.word	__init_array_start
 380 01b8 00000000 		.word	__init_array_end
 381 01bc 00000000 		.word	__fini_array_start
 382 01c0 00000000 		.word	__fini_array_end
 383              		.cfi_endproc
 384              	.LFE3:
 385              		.size	ResetHandler, .-ResetHandler
 386 01c4 AFF30080 		.text
ARM GAS  C:\DOCUME~1\z_80\LOCALS~1\Temp\ccNfwm06.s 			page 8


 386      AFF30080 
 386      AFF30080 
 387              	.Letext0:
 388              		.section	.debug_loc,"",%progbits
 389              	.Ldebug_loc0:
 390              	.LLST0:
 391 0000 26000000 		.4byte	.LVL3
 392 0004 38000000 		.4byte	.LVL4
 393 0008 0100     		.2byte	0x1
 394 000a 52       		.byte	0x52
 395 000b 00000000 		.4byte	0x0
 396 000f 00000000 		.4byte	0x0
 397              	.LLST1:
 398 0013 5C000000 		.4byte	.LVL6
 399 0017 6E000000 		.4byte	.LVL7
 400 001b 0100     		.2byte	0x1
 401 001d 52       		.byte	0x52
 402 001e 00000000 		.4byte	0x0
 403 0022 00000000 		.4byte	0x0
 404              	.LLST2:
 405 0026 9C000000 		.4byte	.LVL9
 406 002a B6000000 		.4byte	.LVL10
 407 002e 0100     		.2byte	0x1
 408 0030 51       		.byte	0x51
 409 0031 00000000 		.4byte	0x0
 410 0035 00000000 		.4byte	0x0
 411              	.LLST3:
 412 0039 E4000000 		.4byte	.LVL12
 413 003d F8000000 		.4byte	.LVL13
 414 0041 0100     		.2byte	0x1
 415 0043 52       		.byte	0x52
 416 0044 00000000 		.4byte	0x0
 417 0048 00000000 		.4byte	0x0
 418              	.LLST4:
 419 004c 22010000 		.4byte	.LVL15
 420 0050 34010000 		.4byte	.LVL16
 421 0054 0100     		.2byte	0x1
 422 0056 55       		.byte	0x55
 423 0057 00000000 		.4byte	0x0
 424 005b 00000000 		.4byte	0x0
 425              	.LLST5:
 426 005f 68010000 		.4byte	.LVL18
 427 0063 76010000 		.4byte	.LVL19
 428 0067 0100     		.2byte	0x1
 429 0069 55       		.byte	0x55
 430 006a 00000000 		.4byte	0x0
 431 006e 00000000 		.4byte	0x0
 432              		.file 2 "c:\\programs\\codesourcery\\arm-2012.03-56\\bin\\../lib/gcc/arm-none-eabi/4.5.2/../../../
 433              		.section	.debug_info
 434 0000 3E030000 		.4byte	0x33e
 435 0004 0200     		.2byte	0x2
 436 0006 00000000 		.4byte	.Ldebug_abbrev0
 437 000a 04       		.byte	0x4
 438 000b 01       		.uleb128 0x1
 439 000c 23000000 		.4byte	.LASF29
 440 0010 01       		.byte	0x1
 441 0011 2F000000 		.4byte	.LASF30
ARM GAS  C:\DOCUME~1\z_80\LOCALS~1\Temp\ccNfwm06.s 			page 9


 442 0015 A3000000 		.4byte	.LASF31
 443 0019 00000000 		.4byte	0x0
 444 001d 00000000 		.4byte	0x0
 445 0021 30000000 		.4byte	.Ldebug_ranges0+0x30
 446 0025 00000000 		.4byte	.Ldebug_line0
 447 0029 02       		.uleb128 0x2
 448 002a 01       		.byte	0x1
 449 002b 06       		.byte	0x6
 450 002c BD010000 		.4byte	.LASF0
 451 0030 03       		.uleb128 0x3
 452 0031 52010000 		.4byte	.LASF5
 453 0035 02       		.byte	0x2
 454 0036 2A       		.byte	0x2a
 455 0037 3B000000 		.4byte	0x3b
 456 003b 02       		.uleb128 0x2
 457 003c 01       		.byte	0x1
 458 003d 08       		.byte	0x8
 459 003e 89000000 		.4byte	.LASF1
 460 0042 02       		.uleb128 0x2
 461 0043 02       		.byte	0x2
 462 0044 05       		.byte	0x5
 463 0045 93010000 		.4byte	.LASF2
 464 0049 02       		.uleb128 0x2
 465 004a 02       		.byte	0x2
 466 004b 07       		.byte	0x7
 467 004c EE000000 		.4byte	.LASF3
 468 0050 02       		.uleb128 0x2
 469 0051 04       		.byte	0x4
 470 0052 05       		.byte	0x5
 471 0053 AE010000 		.4byte	.LASF4
 472 0057 03       		.uleb128 0x3
 473 0058 A5010000 		.4byte	.LASF6
 474 005c 02       		.byte	0x2
 475 005d 50       		.byte	0x50
 476 005e 62000000 		.4byte	0x62
 477 0062 02       		.uleb128 0x2
 478 0063 04       		.byte	0x4
 479 0064 07       		.byte	0x7
 480 0065 CF000000 		.4byte	.LASF7
 481 0069 02       		.uleb128 0x2
 482 006a 08       		.byte	0x8
 483 006b 05       		.byte	0x5
 484 006c 71010000 		.4byte	.LASF8
 485 0070 02       		.uleb128 0x2
 486 0071 08       		.byte	0x8
 487 0072 07       		.byte	0x7
 488 0073 3B010000 		.4byte	.LASF9
 489 0077 04       		.uleb128 0x4
 490 0078 04       		.byte	0x4
 491 0079 05       		.byte	0x5
 492 007a 696E7400 		.ascii	"int\000"
 493 007e 02       		.uleb128 0x2
 494 007f 04       		.byte	0x4
 495 0080 07       		.byte	0x7
 496 0081 2E010000 		.4byte	.LASF10
 497 0085 03       		.uleb128 0x3
 498 0086 9D010000 		.4byte	.LASF11
ARM GAS  C:\DOCUME~1\z_80\LOCALS~1\Temp\ccNfwm06.s 			page 10


 499 008a 01       		.byte	0x1
 500 008b 34       		.byte	0x34
 501 008c 90000000 		.4byte	0x90
 502 0090 05       		.uleb128 0x5
 503 0091 04       		.byte	0x4
 504 0092 96000000 		.4byte	0x96
 505 0096 06       		.uleb128 0x6
 506 0097 01       		.byte	0x1
 507 0098 03       		.uleb128 0x3
 508 0099 72000000 		.4byte	.LASF12
 509 009d 01       		.byte	0x1
 510 009e 35       		.byte	0x35
 511 009f A3000000 		.4byte	0xa3
 512 00a3 05       		.uleb128 0x5
 513 00a4 04       		.byte	0x4
 514 00a5 85000000 		.4byte	0x85
 515 00a9 07       		.uleb128 0x7
 516 00aa 01       		.byte	0x1
 517 00ab 64010000 		.4byte	.LASF13
 518 00af 01       		.byte	0x1
 519 00b0 EA       		.byte	0xea
 520 00b1 01       		.byte	0x1
 521 00b2 00000000 		.4byte	.LFB0
 522 00b6 02000000 		.4byte	.LFE0
 523 00ba 02       		.byte	0x2
 524 00bb 7D       		.byte	0x7d
 525 00bc 00       		.sleb128 0
 526 00bd 07       		.uleb128 0x7
 527 00be 01       		.byte	0x1
 528 00bf 97000000 		.4byte	.LASF14
 529 00c3 01       		.byte	0x1
 530 00c4 F6       		.byte	0xf6
 531 00c5 01       		.byte	0x1
 532 00c6 00000000 		.4byte	.LFB1
 533 00ca 02000000 		.4byte	.LFE1
 534 00ce 02       		.byte	0x2
 535 00cf 7D       		.byte	0x7d
 536 00d0 00       		.sleb128 0
 537 00d1 08       		.uleb128 0x8
 538 00d2 01       		.byte	0x1
 539 00d3 7B000000 		.4byte	.LASF15
 540 00d7 01       		.byte	0x1
 541 00d8 0101     		.2byte	0x101
 542 00da 01       		.byte	0x1
 543 00db 00000000 		.4byte	.LFB2
 544 00df 02000000 		.4byte	.LFE2
 545 00e3 02       		.byte	0x2
 546 00e4 7D       		.byte	0x7d
 547 00e5 00       		.sleb128 0
 548 00e6 09       		.uleb128 0x9
 549 00e7 01       		.byte	0x1
 550 00e8 E1000000 		.4byte	.LASF32
 551 00ec 01       		.byte	0x1
 552 00ed 0C01     		.2byte	0x10c
 553 00ef 01       		.byte	0x1
 554 00f0 00000000 		.4byte	.LFB3
 555 00f4 C4010000 		.4byte	.LFE3
ARM GAS  C:\DOCUME~1\z_80\LOCALS~1\Temp\ccNfwm06.s 			page 11


 556 00f8 02       		.byte	0x2
 557 00f9 7D       		.byte	0x7d
 558 00fa 00       		.sleb128 0
 559 00fb E9010000 		.4byte	0x1e9
 560 00ff 0A       		.uleb128 0xa
 561 0100 70737000 		.ascii	"psp\000"
 562 0104 01       		.byte	0x1
 563 0105 0D01     		.2byte	0x10d
 564 0107 57000000 		.4byte	0x57
 565 010b 0B       		.uleb128 0xb
 566 010c 72656700 		.ascii	"reg\000"
 567 0110 01       		.byte	0x1
 568 0111 0D01     		.2byte	0x10d
 569 0113 57000000 		.4byte	0x57
 570 0117 02       		.byte	0x2
 571 0118 0C       		.uleb128 0xc
 572 0119 12000000 		.4byte	.LBB2
 573 011d 4A000000 		.4byte	.LBE2
 574 0121 40010000 		.4byte	0x140
 575 0125 0D       		.uleb128 0xd
 576 0126 703100   		.ascii	"p1\000"
 577 0129 01       		.byte	0x1
 578 012a 2D01     		.2byte	0x12d
 579 012c E9010000 		.4byte	0x1e9
 580 0130 00000000 		.4byte	.LLST0
 581 0134 0A       		.uleb128 0xa
 582 0135 703200   		.ascii	"p2\000"
 583 0138 01       		.byte	0x1
 584 0139 2D01     		.2byte	0x12d
 585 013b E9010000 		.4byte	0x1e9
 586 013f 00       		.byte	0x0
 587 0140 0C       		.uleb128 0xc
 588 0141 4A000000 		.4byte	.LBB3
 589 0145 80000000 		.4byte	.LBE3
 590 0149 68010000 		.4byte	0x168
 591 014d 0D       		.uleb128 0xd
 592 014e 703100   		.ascii	"p1\000"
 593 0151 01       		.byte	0x1
 594 0152 3001     		.2byte	0x130
 595 0154 E9010000 		.4byte	0x1e9
 596 0158 13000000 		.4byte	.LLST1
 597 015c 0A       		.uleb128 0xa
 598 015d 703200   		.ascii	"p2\000"
 599 0160 01       		.byte	0x1
 600 0161 3001     		.2byte	0x130
 601 0163 E9010000 		.4byte	0x1e9
 602 0167 00       		.byte	0x0
 603 0168 0C       		.uleb128 0xc
 604 0169 84000000 		.4byte	.LBB4
 605 016d D2000000 		.4byte	.LBE4
 606 0171 90010000 		.4byte	0x190
 607 0175 0A       		.uleb128 0xa
 608 0176 747000   		.ascii	"tp\000"
 609 0179 01       		.byte	0x1
 610 017a 3B01     		.2byte	0x13b
 611 017c E9010000 		.4byte	0x1e9
 612 0180 0D       		.uleb128 0xd
ARM GAS  C:\DOCUME~1\z_80\LOCALS~1\Temp\ccNfwm06.s 			page 12


 613 0181 647000   		.ascii	"dp\000"
 614 0184 01       		.byte	0x1
 615 0185 3B01     		.2byte	0x13b
 616 0187 E9010000 		.4byte	0x1e9
 617 018b 26000000 		.4byte	.LLST2
 618 018f 00       		.byte	0x0
 619 0190 0C       		.uleb128 0xc
 620 0191 D2000000 		.4byte	.LBB5
 621 0195 0A010000 		.4byte	.LBE5
 622 0199 B8010000 		.4byte	0x1b8
 623 019d 0D       		.uleb128 0xd
 624 019e 703100   		.ascii	"p1\000"
 625 01a1 01       		.byte	0x1
 626 01a2 4601     		.2byte	0x146
 627 01a4 E9010000 		.4byte	0x1e9
 628 01a8 39000000 		.4byte	.LLST3
 629 01ac 0A       		.uleb128 0xa
 630 01ad 703200   		.ascii	"p2\000"
 631 01b0 01       		.byte	0x1
 632 01b1 4601     		.2byte	0x146
 633 01b3 E9010000 		.4byte	0x1e9
 634 01b7 00       		.byte	0x0
 635 01b8 0E       		.uleb128 0xe
 636 01b9 00000000 		.4byte	.Ldebug_ranges0+0x0
 637 01bd D2010000 		.4byte	0x1d2
 638 01c1 0D       		.uleb128 0xd
 639 01c2 66707000 		.ascii	"fpp\000"
 640 01c6 01       		.byte	0x1
 641 01c7 4F01     		.2byte	0x14f
 642 01c9 98000000 		.4byte	0x98
 643 01cd 4C000000 		.4byte	.LLST4
 644 01d1 00       		.byte	0x0
 645 01d2 0F       		.uleb128 0xf
 646 01d3 18000000 		.4byte	.Ldebug_ranges0+0x18
 647 01d7 0D       		.uleb128 0xd
 648 01d8 66707000 		.ascii	"fpp\000"
 649 01dc 01       		.byte	0x1
 650 01dd 5D01     		.2byte	0x15d
 651 01df 98000000 		.4byte	0x98
 652 01e3 5F000000 		.4byte	.LLST5
 653 01e7 00       		.byte	0x0
 654 01e8 00       		.byte	0x0
 655 01e9 05       		.uleb128 0x5
 656 01ea 04       		.byte	0x4
 657 01eb 57000000 		.4byte	0x57
 658 01ef 10       		.uleb128 0x10
 659 01f0 7F010000 		.4byte	.LASF16
 660 01f4 01       		.byte	0x1
 661 01f5 8B       		.byte	0x8b
 662 01f6 57000000 		.4byte	0x57
 663 01fa 01       		.byte	0x1
 664 01fb 01       		.byte	0x1
 665 01fc 10       		.uleb128 0x10
 666 01fd F2010000 		.4byte	.LASF17
 667 0201 01       		.byte	0x1
 668 0202 93       		.byte	0x93
 669 0203 57000000 		.4byte	0x57
ARM GAS  C:\DOCUME~1\z_80\LOCALS~1\Temp\ccNfwm06.s 			page 13


 670 0207 01       		.byte	0x1
 671 0208 01       		.byte	0x1
 672 0209 10       		.uleb128 0x10
 673 020a 5B000000 		.4byte	.LASF18
 674 020e 01       		.byte	0x1
 675 020f 9A       		.byte	0x9a
 676 0210 57000000 		.4byte	0x57
 677 0214 01       		.byte	0x1
 678 0215 01       		.byte	0x1
 679 0216 10       		.uleb128 0x10
 680 0217 C9010000 		.4byte	.LASF19
 681 021b 01       		.byte	0x1
 682 021c A1       		.byte	0xa1
 683 021d 57000000 		.4byte	0x57
 684 0221 01       		.byte	0x1
 685 0222 01       		.byte	0x1
 686 0223 10       		.uleb128 0x10
 687 0224 5A010000 		.4byte	.LASF20
 688 0228 01       		.byte	0x1
 689 0229 A7       		.byte	0xa7
 690 022a 57000000 		.4byte	0x57
 691 022e 01       		.byte	0x1
 692 022f 01       		.byte	0x1
 693 0230 10       		.uleb128 0x10
 694 0231 B7010000 		.4byte	.LASF21
 695 0235 01       		.byte	0x1
 696 0236 AD       		.byte	0xad
 697 0237 57000000 		.4byte	0x57
 698 023b 01       		.byte	0x1
 699 023c 01       		.byte	0x1
 700 023d 10       		.uleb128 0x10
 701 023e 0B000000 		.4byte	.LASF22
 702 0242 01       		.byte	0x1
 703 0243 B3       		.byte	0xb3
 704 0244 57000000 		.4byte	0x57
 705 0248 01       		.byte	0x1
 706 0249 01       		.byte	0x1
 707 024a 10       		.uleb128 0x10
 708 024b 00000000 		.4byte	.LASF23
 709 024f 01       		.byte	0x1
 710 0250 B9       		.byte	0xb9
 711 0251 57000000 		.4byte	0x57
 712 0255 01       		.byte	0x1
 713 0256 01       		.byte	0x1
 714 0257 10       		.uleb128 0x10
 715 0258 14010000 		.4byte	.LASF24
 716 025c 01       		.byte	0x1
 717 025d BF       		.byte	0xbf
 718 025e 57000000 		.4byte	0x57
 719 0262 01       		.byte	0x1
 720 0263 01       		.byte	0x1
 721 0264 10       		.uleb128 0x10
 722 0265 DF010000 		.4byte	.LASF25
 723 0269 01       		.byte	0x1
 724 026a C5       		.byte	0xc5
 725 026b 85000000 		.4byte	0x85
 726 026f 01       		.byte	0x1
ARM GAS  C:\DOCUME~1\z_80\LOCALS~1\Temp\ccNfwm06.s 			page 14


 727 0270 01       		.byte	0x1
 728 0271 10       		.uleb128 0x10
 729 0272 1D010000 		.4byte	.LASF26
 730 0276 01       		.byte	0x1
 731 0277 CB       		.byte	0xcb
 732 0278 85000000 		.4byte	0x85
 733 027c 01       		.byte	0x1
 734 027d 01       		.byte	0x1
 735 027e 10       		.uleb128 0x10
 736 027f 01010000 		.4byte	.LASF27
 737 0283 01       		.byte	0x1
 738 0284 D1       		.byte	0xd1
 739 0285 85000000 		.4byte	0x85
 740 0289 01       		.byte	0x1
 741 028a 01       		.byte	0x1
 742 028b 10       		.uleb128 0x10
 743 028c 12000000 		.4byte	.LASF28
 744 0290 01       		.byte	0x1
 745 0291 D7       		.byte	0xd7
 746 0292 85000000 		.4byte	0x85
 747 0296 01       		.byte	0x1
 748 0297 01       		.byte	0x1
 749 0298 10       		.uleb128 0x10
 750 0299 7F010000 		.4byte	.LASF16
 751 029d 01       		.byte	0x1
 752 029e 8B       		.byte	0x8b
 753 029f 57000000 		.4byte	0x57
 754 02a3 01       		.byte	0x1
 755 02a4 01       		.byte	0x1
 756 02a5 10       		.uleb128 0x10
 757 02a6 F2010000 		.4byte	.LASF17
 758 02aa 01       		.byte	0x1
 759 02ab 93       		.byte	0x93
 760 02ac 57000000 		.4byte	0x57
 761 02b0 01       		.byte	0x1
 762 02b1 01       		.byte	0x1
 763 02b2 10       		.uleb128 0x10
 764 02b3 5B000000 		.4byte	.LASF18
 765 02b7 01       		.byte	0x1
 766 02b8 9A       		.byte	0x9a
 767 02b9 57000000 		.4byte	0x57
 768 02bd 01       		.byte	0x1
 769 02be 01       		.byte	0x1
 770 02bf 10       		.uleb128 0x10
 771 02c0 C9010000 		.4byte	.LASF19
 772 02c4 01       		.byte	0x1
 773 02c5 A1       		.byte	0xa1
 774 02c6 57000000 		.4byte	0x57
 775 02ca 01       		.byte	0x1
 776 02cb 01       		.byte	0x1
 777 02cc 10       		.uleb128 0x10
 778 02cd 5A010000 		.4byte	.LASF20
 779 02d1 01       		.byte	0x1
 780 02d2 A7       		.byte	0xa7
 781 02d3 57000000 		.4byte	0x57
 782 02d7 01       		.byte	0x1
 783 02d8 01       		.byte	0x1
ARM GAS  C:\DOCUME~1\z_80\LOCALS~1\Temp\ccNfwm06.s 			page 15


 784 02d9 10       		.uleb128 0x10
 785 02da B7010000 		.4byte	.LASF21
 786 02de 01       		.byte	0x1
 787 02df AD       		.byte	0xad
 788 02e0 57000000 		.4byte	0x57
 789 02e4 01       		.byte	0x1
 790 02e5 01       		.byte	0x1
 791 02e6 10       		.uleb128 0x10
 792 02e7 0B000000 		.4byte	.LASF22
 793 02eb 01       		.byte	0x1
 794 02ec B3       		.byte	0xb3
 795 02ed 57000000 		.4byte	0x57
 796 02f1 01       		.byte	0x1
 797 02f2 01       		.byte	0x1
 798 02f3 10       		.uleb128 0x10
 799 02f4 00000000 		.4byte	.LASF23
 800 02f8 01       		.byte	0x1
 801 02f9 B9       		.byte	0xb9
 802 02fa 57000000 		.4byte	0x57
 803 02fe 01       		.byte	0x1
 804 02ff 01       		.byte	0x1
 805 0300 10       		.uleb128 0x10
 806 0301 14010000 		.4byte	.LASF24
 807 0305 01       		.byte	0x1
 808 0306 BF       		.byte	0xbf
 809 0307 57000000 		.4byte	0x57
 810 030b 01       		.byte	0x1
 811 030c 01       		.byte	0x1
 812 030d 10       		.uleb128 0x10
 813 030e DF010000 		.4byte	.LASF25
 814 0312 01       		.byte	0x1
 815 0313 C5       		.byte	0xc5
 816 0314 85000000 		.4byte	0x85
 817 0318 01       		.byte	0x1
 818 0319 01       		.byte	0x1
 819 031a 10       		.uleb128 0x10
 820 031b 1D010000 		.4byte	.LASF26
 821 031f 01       		.byte	0x1
 822 0320 CB       		.byte	0xcb
 823 0321 85000000 		.4byte	0x85
 824 0325 01       		.byte	0x1
 825 0326 01       		.byte	0x1
 826 0327 10       		.uleb128 0x10
 827 0328 01010000 		.4byte	.LASF27
 828 032c 01       		.byte	0x1
 829 032d D1       		.byte	0xd1
 830 032e 85000000 		.4byte	0x85
 831 0332 01       		.byte	0x1
 832 0333 01       		.byte	0x1
 833 0334 10       		.uleb128 0x10
 834 0335 12000000 		.4byte	.LASF28
 835 0339 01       		.byte	0x1
 836 033a D7       		.byte	0xd7
 837 033b 85000000 		.4byte	0x85
 838 033f 01       		.byte	0x1
 839 0340 01       		.byte	0x1
 840 0341 00       		.byte	0x0
ARM GAS  C:\DOCUME~1\z_80\LOCALS~1\Temp\ccNfwm06.s 			page 16


 841              		.section	.debug_abbrev
 842 0000 01       		.uleb128 0x1
 843 0001 11       		.uleb128 0x11
 844 0002 01       		.byte	0x1
 845 0003 25       		.uleb128 0x25
 846 0004 0E       		.uleb128 0xe
 847 0005 13       		.uleb128 0x13
 848 0006 0B       		.uleb128 0xb
 849 0007 03       		.uleb128 0x3
 850 0008 0E       		.uleb128 0xe
 851 0009 1B       		.uleb128 0x1b
 852 000a 0E       		.uleb128 0xe
 853 000b 11       		.uleb128 0x11
 854 000c 01       		.uleb128 0x1
 855 000d 52       		.uleb128 0x52
 856 000e 01       		.uleb128 0x1
 857 000f 55       		.uleb128 0x55
 858 0010 06       		.uleb128 0x6
 859 0011 10       		.uleb128 0x10
 860 0012 06       		.uleb128 0x6
 861 0013 00       		.byte	0x0
 862 0014 00       		.byte	0x0
 863 0015 02       		.uleb128 0x2
 864 0016 24       		.uleb128 0x24
 865 0017 00       		.byte	0x0
 866 0018 0B       		.uleb128 0xb
 867 0019 0B       		.uleb128 0xb
 868 001a 3E       		.uleb128 0x3e
 869 001b 0B       		.uleb128 0xb
 870 001c 03       		.uleb128 0x3
 871 001d 0E       		.uleb128 0xe
 872 001e 00       		.byte	0x0
 873 001f 00       		.byte	0x0
 874 0020 03       		.uleb128 0x3
 875 0021 16       		.uleb128 0x16
 876 0022 00       		.byte	0x0
 877 0023 03       		.uleb128 0x3
 878 0024 0E       		.uleb128 0xe
 879 0025 3A       		.uleb128 0x3a
 880 0026 0B       		.uleb128 0xb
 881 0027 3B       		.uleb128 0x3b
 882 0028 0B       		.uleb128 0xb
 883 0029 49       		.uleb128 0x49
 884 002a 13       		.uleb128 0x13
 885 002b 00       		.byte	0x0
 886 002c 00       		.byte	0x0
 887 002d 04       		.uleb128 0x4
 888 002e 24       		.uleb128 0x24
 889 002f 00       		.byte	0x0
 890 0030 0B       		.uleb128 0xb
 891 0031 0B       		.uleb128 0xb
 892 0032 3E       		.uleb128 0x3e
 893 0033 0B       		.uleb128 0xb
 894 0034 03       		.uleb128 0x3
 895 0035 08       		.uleb128 0x8
 896 0036 00       		.byte	0x0
 897 0037 00       		.byte	0x0
ARM GAS  C:\DOCUME~1\z_80\LOCALS~1\Temp\ccNfwm06.s 			page 17


 898 0038 05       		.uleb128 0x5
 899 0039 0F       		.uleb128 0xf
 900 003a 00       		.byte	0x0
 901 003b 0B       		.uleb128 0xb
 902 003c 0B       		.uleb128 0xb
 903 003d 49       		.uleb128 0x49
 904 003e 13       		.uleb128 0x13
 905 003f 00       		.byte	0x0
 906 0040 00       		.byte	0x0
 907 0041 06       		.uleb128 0x6
 908 0042 15       		.uleb128 0x15
 909 0043 00       		.byte	0x0
 910 0044 27       		.uleb128 0x27
 911 0045 0C       		.uleb128 0xc
 912 0046 00       		.byte	0x0
 913 0047 00       		.byte	0x0
 914 0048 07       		.uleb128 0x7
 915 0049 2E       		.uleb128 0x2e
 916 004a 00       		.byte	0x0
 917 004b 3F       		.uleb128 0x3f
 918 004c 0C       		.uleb128 0xc
 919 004d 03       		.uleb128 0x3
 920 004e 0E       		.uleb128 0xe
 921 004f 3A       		.uleb128 0x3a
 922 0050 0B       		.uleb128 0xb
 923 0051 3B       		.uleb128 0x3b
 924 0052 0B       		.uleb128 0xb
 925 0053 27       		.uleb128 0x27
 926 0054 0C       		.uleb128 0xc
 927 0055 11       		.uleb128 0x11
 928 0056 01       		.uleb128 0x1
 929 0057 12       		.uleb128 0x12
 930 0058 01       		.uleb128 0x1
 931 0059 40       		.uleb128 0x40
 932 005a 0A       		.uleb128 0xa
 933 005b 00       		.byte	0x0
 934 005c 00       		.byte	0x0
 935 005d 08       		.uleb128 0x8
 936 005e 2E       		.uleb128 0x2e
 937 005f 00       		.byte	0x0
 938 0060 3F       		.uleb128 0x3f
 939 0061 0C       		.uleb128 0xc
 940 0062 03       		.uleb128 0x3
 941 0063 0E       		.uleb128 0xe
 942 0064 3A       		.uleb128 0x3a
 943 0065 0B       		.uleb128 0xb
 944 0066 3B       		.uleb128 0x3b
 945 0067 05       		.uleb128 0x5
 946 0068 27       		.uleb128 0x27
 947 0069 0C       		.uleb128 0xc
 948 006a 11       		.uleb128 0x11
 949 006b 01       		.uleb128 0x1
 950 006c 12       		.uleb128 0x12
 951 006d 01       		.uleb128 0x1
 952 006e 40       		.uleb128 0x40
 953 006f 0A       		.uleb128 0xa
 954 0070 00       		.byte	0x0
ARM GAS  C:\DOCUME~1\z_80\LOCALS~1\Temp\ccNfwm06.s 			page 18


 955 0071 00       		.byte	0x0
 956 0072 09       		.uleb128 0x9
 957 0073 2E       		.uleb128 0x2e
 958 0074 01       		.byte	0x1
 959 0075 3F       		.uleb128 0x3f
 960 0076 0C       		.uleb128 0xc
 961 0077 03       		.uleb128 0x3
 962 0078 0E       		.uleb128 0xe
 963 0079 3A       		.uleb128 0x3a
 964 007a 0B       		.uleb128 0xb
 965 007b 3B       		.uleb128 0x3b
 966 007c 05       		.uleb128 0x5
 967 007d 27       		.uleb128 0x27
 968 007e 0C       		.uleb128 0xc
 969 007f 11       		.uleb128 0x11
 970 0080 01       		.uleb128 0x1
 971 0081 12       		.uleb128 0x12
 972 0082 01       		.uleb128 0x1
 973 0083 40       		.uleb128 0x40
 974 0084 0A       		.uleb128 0xa
 975 0085 01       		.uleb128 0x1
 976 0086 13       		.uleb128 0x13
 977 0087 00       		.byte	0x0
 978 0088 00       		.byte	0x0
 979 0089 0A       		.uleb128 0xa
 980 008a 34       		.uleb128 0x34
 981 008b 00       		.byte	0x0
 982 008c 03       		.uleb128 0x3
 983 008d 08       		.uleb128 0x8
 984 008e 3A       		.uleb128 0x3a
 985 008f 0B       		.uleb128 0xb
 986 0090 3B       		.uleb128 0x3b
 987 0091 05       		.uleb128 0x5
 988 0092 49       		.uleb128 0x49
 989 0093 13       		.uleb128 0x13
 990 0094 00       		.byte	0x0
 991 0095 00       		.byte	0x0
 992 0096 0B       		.uleb128 0xb
 993 0097 34       		.uleb128 0x34
 994 0098 00       		.byte	0x0
 995 0099 03       		.uleb128 0x3
 996 009a 08       		.uleb128 0x8
 997 009b 3A       		.uleb128 0x3a
 998 009c 0B       		.uleb128 0xb
 999 009d 3B       		.uleb128 0x3b
 1000 009e 05       		.uleb128 0x5
 1001 009f 49       		.uleb128 0x49
 1002 00a0 13       		.uleb128 0x13
 1003 00a1 1C       		.uleb128 0x1c
 1004 00a2 0B       		.uleb128 0xb
 1005 00a3 00       		.byte	0x0
 1006 00a4 00       		.byte	0x0
 1007 00a5 0C       		.uleb128 0xc
 1008 00a6 0B       		.uleb128 0xb
 1009 00a7 01       		.byte	0x1
 1010 00a8 11       		.uleb128 0x11
 1011 00a9 01       		.uleb128 0x1
ARM GAS  C:\DOCUME~1\z_80\LOCALS~1\Temp\ccNfwm06.s 			page 19


 1012 00aa 12       		.uleb128 0x12
 1013 00ab 01       		.uleb128 0x1
 1014 00ac 01       		.uleb128 0x1
 1015 00ad 13       		.uleb128 0x13
 1016 00ae 00       		.byte	0x0
 1017 00af 00       		.byte	0x0
 1018 00b0 0D       		.uleb128 0xd
 1019 00b1 34       		.uleb128 0x34
 1020 00b2 00       		.byte	0x0
 1021 00b3 03       		.uleb128 0x3
 1022 00b4 08       		.uleb128 0x8
 1023 00b5 3A       		.uleb128 0x3a
 1024 00b6 0B       		.uleb128 0xb
 1025 00b7 3B       		.uleb128 0x3b
 1026 00b8 05       		.uleb128 0x5
 1027 00b9 49       		.uleb128 0x49
 1028 00ba 13       		.uleb128 0x13
 1029 00bb 02       		.uleb128 0x2
 1030 00bc 06       		.uleb128 0x6
 1031 00bd 00       		.byte	0x0
 1032 00be 00       		.byte	0x0
 1033 00bf 0E       		.uleb128 0xe
 1034 00c0 0B       		.uleb128 0xb
 1035 00c1 01       		.byte	0x1
 1036 00c2 55       		.uleb128 0x55
 1037 00c3 06       		.uleb128 0x6
 1038 00c4 01       		.uleb128 0x1
 1039 00c5 13       		.uleb128 0x13
 1040 00c6 00       		.byte	0x0
 1041 00c7 00       		.byte	0x0
 1042 00c8 0F       		.uleb128 0xf
 1043 00c9 0B       		.uleb128 0xb
 1044 00ca 01       		.byte	0x1
 1045 00cb 55       		.uleb128 0x55
 1046 00cc 06       		.uleb128 0x6
 1047 00cd 00       		.byte	0x0
 1048 00ce 00       		.byte	0x0
 1049 00cf 10       		.uleb128 0x10
 1050 00d0 34       		.uleb128 0x34
 1051 00d1 00       		.byte	0x0
 1052 00d2 03       		.uleb128 0x3
 1053 00d3 0E       		.uleb128 0xe
 1054 00d4 3A       		.uleb128 0x3a
 1055 00d5 0B       		.uleb128 0xb
 1056 00d6 3B       		.uleb128 0x3b
 1057 00d7 0B       		.uleb128 0xb
 1058 00d8 49       		.uleb128 0x49
 1059 00d9 13       		.uleb128 0x13
 1060 00da 3F       		.uleb128 0x3f
 1061 00db 0C       		.uleb128 0xc
 1062 00dc 3C       		.uleb128 0x3c
 1063 00dd 0C       		.uleb128 0xc
 1064 00de 00       		.byte	0x0
 1065 00df 00       		.byte	0x0
 1066 00e0 00       		.byte	0x0
 1067              		.section	.debug_pubnames,"",%progbits
 1068 0000 52000000 		.4byte	0x52
ARM GAS  C:\DOCUME~1\z_80\LOCALS~1\Temp\ccNfwm06.s 			page 20


 1069 0004 0200     		.2byte	0x2
 1070 0006 00000000 		.4byte	.Ldebug_info0
 1071 000a 42030000 		.4byte	0x342
 1072 000e A9000000 		.4byte	0xa9
 1073 0012 5F5F6561 		.ascii	"__early_init\000"
 1073      726C795F 
 1073      696E6974 
 1073      00
 1074 001f BD000000 		.4byte	0xbd
 1075 0023 5F5F6C61 		.ascii	"__late_init\000"
 1075      74655F69 
 1075      6E697400 
 1076 002f D1000000 		.4byte	0xd1
 1077 0033 5F646566 		.ascii	"_default_exit\000"
 1077      61756C74 
 1077      5F657869 
 1077      7400
 1078 0041 E6000000 		.4byte	0xe6
 1079 0045 52657365 		.ascii	"ResetHandler\000"
 1079      7448616E 
 1079      646C6572 
 1079      00
 1080 0052 00000000 		.4byte	0x0
 1081              		.section	.debug_pubtypes,"",%progbits
 1082 0000 40000000 		.4byte	0x40
 1083 0004 0200     		.2byte	0x2
 1084 0006 00000000 		.4byte	.Ldebug_info0
 1085 000a 42030000 		.4byte	0x342
 1086 000e 30000000 		.4byte	0x30
 1087 0012 75696E74 		.ascii	"uint8_t\000"
 1087      385F7400 
 1088 001a 57000000 		.4byte	0x57
 1089 001e 75696E74 		.ascii	"uint32_t\000"
 1089      33325F74 
 1089      00
 1090 0027 85000000 		.4byte	0x85
 1091 002b 66756E63 		.ascii	"funcp_t\000"
 1091      705F7400 
 1092 0033 98000000 		.4byte	0x98
 1093 0037 66756E63 		.ascii	"funcpp_t\000"
 1093      70705F74 
 1093      00
 1094 0040 00000000 		.4byte	0x0
 1095              		.section	.debug_aranges,"",%progbits
 1096 0000 34000000 		.4byte	0x34
 1097 0004 0200     		.2byte	0x2
 1098 0006 00000000 		.4byte	.Ldebug_info0
 1099 000a 04       		.byte	0x4
 1100 000b 00       		.byte	0x0
 1101 000c 0000     		.2byte	0x0
 1102 000e 0000     		.2byte	0x0
 1103 0010 00000000 		.4byte	.LFB0
 1104 0014 02000000 		.4byte	.LFE0-.LFB0
 1105 0018 00000000 		.4byte	.LFB1
 1106 001c 02000000 		.4byte	.LFE1-.LFB1
 1107 0020 00000000 		.4byte	.LFB2
 1108 0024 02000000 		.4byte	.LFE2-.LFB2
ARM GAS  C:\DOCUME~1\z_80\LOCALS~1\Temp\ccNfwm06.s 			page 21


 1109 0028 00000000 		.4byte	.LFB3
 1110 002c C4010000 		.4byte	.LFE3-.LFB3
 1111 0030 00000000 		.4byte	0x0
 1112 0034 00000000 		.4byte	0x0
 1113              		.section	.debug_ranges,"",%progbits
 1114              	.Ldebug_ranges0:
 1115 0000 0A010000 		.4byte	.LBB6
 1116 0004 0E010000 		.4byte	.LBE6
 1117 0008 12010000 		.4byte	.LBB7
 1118 000c 4A010000 		.4byte	.LBE7
 1119 0010 00000000 		.4byte	0x0
 1120 0014 00000000 		.4byte	0x0
 1121 0018 4A010000 		.4byte	.LBB8
 1122 001c 4E010000 		.4byte	.LBE8
 1123 0020 52010000 		.4byte	.LBB9
 1124 0024 8C010000 		.4byte	.LBE9
 1125 0028 00000000 		.4byte	0x0
 1126 002c 00000000 		.4byte	0x0
 1127 0030 00000000 		.4byte	.LFB0
 1128 0034 02000000 		.4byte	.LFE0
 1129 0038 00000000 		.4byte	.LFB1
 1130 003c 02000000 		.4byte	.LFE1
 1131 0040 00000000 		.4byte	.LFB2
 1132 0044 02000000 		.4byte	.LFE2
 1133 0048 00000000 		.4byte	.LFB3
 1134 004c C4010000 		.4byte	.LFE3
 1135 0050 00000000 		.4byte	0x0
 1136 0054 00000000 		.4byte	0x0
 1137              		.section	.debug_str,"MS",%progbits,1
 1138              	.LASF23:
 1139 0000 5F627373 		.ascii	"_bss_start\000"
 1139      5F737461 
 1139      727400
 1140              	.LASF22:
 1141 000b 5F656461 		.ascii	"_edata\000"
 1141      746100
 1142              	.LASF28:
 1143 0012 5F5F6669 		.ascii	"__fini_array_end\000"
 1143      6E695F61 
 1143      72726179 
 1143      5F656E64 
 1143      00
 1144              	.LASF29:
 1145 0023 474E5520 		.ascii	"GNU C 4.5.2\000"
 1145      4320342E 
 1145      352E3200 
 1146              	.LASF30:
 1147 002f 2E2E2F63 		.ascii	"../chibios_2.6.3/os/ports/GCC/ARMCMx/crt0.c\000"
 1147      68696269 
 1147      6F735F32 
 1147      2E362E33 
 1147      2F6F732F 
 1148              	.LASF18:
 1149 005b 5F5F7072 		.ascii	"__process_stack_base__\000"
 1149      6F636573 
 1149      735F7374 
 1149      61636B5F 
ARM GAS  C:\DOCUME~1\z_80\LOCALS~1\Temp\ccNfwm06.s 			page 22


 1149      62617365 
 1150              	.LASF12:
 1151 0072 66756E63 		.ascii	"funcpp_t\000"
 1151      70705F74 
 1151      00
 1152              	.LASF15:
 1153 007b 5F646566 		.ascii	"_default_exit\000"
 1153      61756C74 
 1153      5F657869 
 1153      7400
 1154              	.LASF1:
 1155 0089 756E7369 		.ascii	"unsigned char\000"
 1155      676E6564 
 1155      20636861 
 1155      7200
 1156              	.LASF14:
 1157 0097 5F5F6C61 		.ascii	"__late_init\000"
 1157      74655F69 
 1157      6E697400 
 1158              	.LASF31:
 1159 00a3 433A5C70 		.ascii	"C:\\projects\\clock.git\\git\\firmware\\test_dac\000"
 1159      726F6A65 
 1159      6374735C 
 1159      636C6F63 
 1159      6B2E6769 
 1160              	.LASF7:
 1161 00cf 6C6F6E67 		.ascii	"long unsigned int\000"
 1161      20756E73 
 1161      69676E65 
 1161      6420696E 
 1161      7400
 1162              	.LASF32:
 1163 00e1 52657365 		.ascii	"ResetHandler\000"
 1163      7448616E 
 1163      646C6572 
 1163      00
 1164              	.LASF3:
 1165 00ee 73686F72 		.ascii	"short unsigned int\000"
 1165      7420756E 
 1165      7369676E 
 1165      65642069 
 1165      6E7400
 1166              	.LASF27:
 1167 0101 5F5F6669 		.ascii	"__fini_array_start\000"
 1167      6E695F61 
 1167      72726179 
 1167      5F737461 
 1167      727400
 1168              	.LASF24:
 1169 0114 5F627373 		.ascii	"_bss_end\000"
 1169      5F656E64 
 1169      00
 1170              	.LASF26:
 1171 011d 5F5F696E 		.ascii	"__init_array_end\000"
 1171      69745F61 
 1171      72726179 
 1171      5F656E64 
ARM GAS  C:\DOCUME~1\z_80\LOCALS~1\Temp\ccNfwm06.s 			page 23


 1171      00
 1172              	.LASF10:
 1173 012e 756E7369 		.ascii	"unsigned int\000"
 1173      676E6564 
 1173      20696E74 
 1173      00
 1174              	.LASF9:
 1175 013b 6C6F6E67 		.ascii	"long long unsigned int\000"
 1175      206C6F6E 
 1175      6720756E 
 1175      7369676E 
 1175      65642069 
 1176              	.LASF5:
 1177 0152 75696E74 		.ascii	"uint8_t\000"
 1177      385F7400 
 1178              	.LASF20:
 1179 015a 5F746578 		.ascii	"_textdata\000"
 1179      74646174 
 1179      6100
 1180              	.LASF13:
 1181 0164 5F5F6561 		.ascii	"__early_init\000"
 1181      726C795F 
 1181      696E6974 
 1181      00
 1182              	.LASF8:
 1183 0171 6C6F6E67 		.ascii	"long long int\000"
 1183      206C6F6E 
 1183      6720696E 
 1183      7400
 1184              	.LASF16:
 1185 017f 5F5F6D61 		.ascii	"__main_stack_base__\000"
 1185      696E5F73 
 1185      7461636B 
 1185      5F626173 
 1185      655F5F00 
 1186              	.LASF2:
 1187 0193 73686F72 		.ascii	"short int\000"
 1187      7420696E 
 1187      7400
 1188              	.LASF11:
 1189 019d 66756E63 		.ascii	"funcp_t\000"
 1189      705F7400 
 1190              	.LASF6:
 1191 01a5 75696E74 		.ascii	"uint32_t\000"
 1191      33325F74 
 1191      00
 1192              	.LASF4:
 1193 01ae 6C6F6E67 		.ascii	"long int\000"
 1193      20696E74 
 1193      00
 1194              	.LASF21:
 1195 01b7 5F646174 		.ascii	"_data\000"
 1195      6100
 1196              	.LASF0:
 1197 01bd 7369676E 		.ascii	"signed char\000"
 1197      65642063 
 1197      68617200 
ARM GAS  C:\DOCUME~1\z_80\LOCALS~1\Temp\ccNfwm06.s 			page 24


 1198              	.LASF19:
 1199 01c9 5F5F7072 		.ascii	"__process_stack_end__\000"
 1199      6F636573 
 1199      735F7374 
 1199      61636B5F 
 1199      656E645F 
 1200              	.LASF25:
 1201 01df 5F5F696E 		.ascii	"__init_array_start\000"
 1201      69745F61 
 1201      72726179 
 1201      5F737461 
 1201      727400
 1202              	.LASF17:
 1203 01f2 5F5F6D61 		.ascii	"__main_stack_end__\000"
 1203      696E5F73 
 1203      7461636B 
 1203      5F656E64 
 1203      5F5F00
 1204              		.ident	"GCC: (Sourcery G++ Lite 2011.03-42) 4.5.2"
ARM GAS  C:\DOCUME~1\z_80\LOCALS~1\Temp\ccNfwm06.s 			page 25


DEFINED SYMBOLS
                            *ABS*:00000000 crt0.c
C:\DOCUME~1\z_80\LOCALS~1\Temp\ccNfwm06.s:24     .text.__early_init:00000000 $t
C:\DOCUME~1\z_80\LOCALS~1\Temp\ccNfwm06.s:30     .text.__early_init:00000000 __early_init
C:\DOCUME~1\z_80\LOCALS~1\Temp\ccNfwm06.s:44     .text.__late_init:00000000 $t
C:\DOCUME~1\z_80\LOCALS~1\Temp\ccNfwm06.s:50     .text.__late_init:00000000 __late_init
C:\DOCUME~1\z_80\LOCALS~1\Temp\ccNfwm06.s:63     .text._default_exit:00000000 $t
C:\DOCUME~1\z_80\LOCALS~1\Temp\ccNfwm06.s:69     .text._default_exit:00000000 _default_exit
C:\DOCUME~1\z_80\LOCALS~1\Temp\ccNfwm06.s:82     .text.ResetHandler:00000000 $t
C:\DOCUME~1\z_80\LOCALS~1\Temp\ccNfwm06.s:88     .text.ResetHandler:00000000 ResetHandler
C:\DOCUME~1\z_80\LOCALS~1\Temp\ccNfwm06.s:370    .text.ResetHandler:00000190 $d
                     .debug_frame:00000010 $d
C:\DOCUME~1\z_80\LOCALS~1\Temp\ccNfwm06.s:386    .text.ResetHandler:000001c4 $t

UNDEFINED SYMBOLS
main
__process_stack_end__
__main_stack_base__
__main_stack_end__
__process_stack_base__
_edata
_data
_textdata
_bss_start
_bss_end
__init_array_start
__init_array_end
__fini_array_start
__fini_array_end
