ARM GAS  C:\DOCUME~1\z_80\LOCALS~1\Temp\ccDAu3zb.s 			page 1


   1              		.syntax unified
   2              		.cpu cortex-m3
   3              		.fpu softvfp
   4              		.eabi_attribute 20, 1
   5              		.eabi_attribute 21, 1
   6              		.eabi_attribute 23, 3
   7              		.eabi_attribute 24, 1
   8              		.eabi_attribute 25, 1
   9              		.eabi_attribute 26, 1
  10              		.eabi_attribute 30, 2
  11              		.eabi_attribute 18, 4
  12              		.thumb
  13              		.file	"hal.c"
  20 0000 3B020000 		.text
  20      0200CE01 
  20      00000201 
  20      FB0E0D00 
  20      01010101 
  21              	.Ltext0:
  22              		.cfi_sections	.debug_frame
  23              		.section	.text.halInit,"ax",%progbits
  24              		.align	2
  25              		.p2align 4,,15
  26              		.global	halInit
  27              		.thumb
  28              		.thumb_func
  29              		.type	halInit, %function
  30              	halInit:
  31              	.LFB63:
  32              		.file 1 "../chibios_2.6.3/os/hal/src/hal.c"
  33              		.loc 1 68 0
  34              		.cfi_startproc
  35              		@ args = 0, pretend = 0, frame = 0
  36              		@ frame_needed = 0, uses_anonymous_args = 0
  37 0000 10B5     		push	{r4, lr}
  38              	.LCFI0:
  39              		.cfi_def_cfa_offset 8
  40              		.loc 1 70 0
  41              		.cfi_offset 14, -4
  42              		.cfi_offset 4, -8
  43 0002 FFF7FEFF 		bl	hal_lld_init
  44              		.loc 1 73 0
  45 0006 FFF7FEFF 		bl	tmInit
  46              		.loc 1 76 0
  47 000a 0448     		ldr	r0, .L2
  48 000c FFF7FEFF 		bl	_pal_lld_init
  49              		.loc 1 103 0
  50 0010 FFF7FEFF 		bl	sdInit
  51              		.loc 1 128 0
  52 0014 BDE81040 		pop	{r4, lr}
  53              		.loc 1 127 0
ARM GAS  C:\DOCUME~1\z_80\LOCALS~1\Temp\ccDAu3zb.s 			page 2


  54 0018 FFF7FEBF 		b	boardInit
  55              	.L3:
  56              		.align	2
  57              	.L2:
  58 001c 00000000 		.word	pal_default_config
  59              		.cfi_endproc
  60              	.LFE63:
  61              		.size	halInit, .-halInit
  62              		.section	.text.halIsCounterWithin,"ax",%progbits
  63              		.align	2
  64              		.p2align 4,,15
  65              		.global	halIsCounterWithin
  66              		.thumb
  67              		.thumb_func
  68              		.type	halIsCounterWithin, %function
  69              	halIsCounterWithin:
  70              	.LFB64:
  71              		.loc 1 174 0
  72              		.cfi_startproc
  73              		@ args = 0, pretend = 0, frame = 0
  74              		@ frame_needed = 0, uses_anonymous_args = 0
  75              		@ link register save eliminated.
  76              	.LVL0:
  77              		.loc 1 175 0
  78 0000 084B     		ldr	r3, .L13
  79              		.loc 1 177 0
  80 0002 8142     		cmp	r1, r0
  81              		.loc 1 175 0
  82 0004 5B68     		ldr	r3, [r3, #4]
  83              	.LVL1:
  84              		.loc 1 177 0
  85 0006 06D9     		bls	.L5
  86              		.loc 1 177 0 is_stmt 0 discriminator 1
  87 0008 8342     		cmp	r3, r0
  88 000a 08D3     		bcc	.L9
  89              	.L11:
  90              		.loc 1 177 0
  91 000c 8B42     		cmp	r3, r1
  92 000e 2CBF     		ite	cs
  93 0010 0020     		movcs	r0, #0
  94              	.LVL2:
  95 0012 0120     		movcc	r0, #1
  96 0014 7047     		bx	lr
  97              	.LVL3:
  98              	.L5:
  99              		.loc 1 177 0 discriminator 2
 100 0016 8342     		cmp	r3, r0
 101 0018 F8D3     		bcc	.L11
 102              		.loc 1 177 0
 103 001a 0120     		movs	r0, #1
 104              	.LVL4:
 105              		.loc 1 179 0 is_stmt 1
 106 001c 7047     		bx	lr
 107              	.LVL5:
 108              	.L9:
 109              		.loc 1 177 0
 110 001e 0020     		movs	r0, #0
ARM GAS  C:\DOCUME~1\z_80\LOCALS~1\Temp\ccDAu3zb.s 			page 3


 111              	.LVL6:
 112 0020 7047     		bx	lr
 113              	.L14:
 114 0022 00BF     		.align	2
 115              	.L13:
 116 0024 001000E0 		.word	-536866816
 117              		.cfi_endproc
 118              	.LFE64:
 119              		.size	halIsCounterWithin, .-halIsCounterWithin
 120 0028 AFF30080 		.section	.text.halPolledDelay,"ax",%progbits
 120      AFF30080 
 121              		.align	2
 122              		.p2align 4,,15
 123              		.global	halPolledDelay
 124              		.thumb
 125              		.thumb_func
 126              		.type	halPolledDelay, %function
 127              	halPolledDelay:
 128              	.LFB65:
 129              		.loc 1 193 0
 130              		.cfi_startproc
 131              		@ args = 0, pretend = 0, frame = 0
 132              		@ frame_needed = 0, uses_anonymous_args = 0
 133              		@ link register save eliminated.
 134              	.LVL7:
 135              		.loc 1 194 0
 136 0000 084A     		ldr	r2, .L27
 137 0002 5368     		ldr	r3, [r2, #4]
 138              	.LVL8:
 139              		.loc 1 195 0
 140 0004 C018     		adds	r0, r0, r3
 141              	.LVL9:
 142              	.L25:
 143              	.LBB4:
 144              	.LBB5:
 145              		.loc 1 177 0 discriminator 1
 146 0006 8342     		cmp	r3, r0
 147              		.loc 1 175 0 discriminator 1
 148 0008 5168     		ldr	r1, [r2, #4]
 149              	.LVL10:
 150              		.loc 1 177 0 discriminator 1
 151 000a 02D2     		bcs	.L16
 152              		.loc 1 177 0 is_stmt 0
 153 000c 8B42     		cmp	r3, r1
 154 000e 02D9     		bls	.L26
 155 0010 7047     		bx	lr
 156              	.L16:
 157 0012 8B42     		cmp	r3, r1
 158 0014 F7D9     		bls	.L25
 159              	.L26:
 160 0016 8842     		cmp	r0, r1
 161 0018 94BF     		ite	ls
 162 001a 0021     		movls	r1, #0
 163              	.LVL11:
 164 001c 0121     		movhi	r1, #1
 165              	.LBE5:
 166              	.LBE4:
ARM GAS  C:\DOCUME~1\z_80\LOCALS~1\Temp\ccDAu3zb.s 			page 4


 167              		.loc 1 196 0 is_stmt 1
 168 001e 0029     		cmp	r1, #0
 169 0020 F1D1     		bne	.L25
 170 0022 7047     		bx	lr
 171              	.L28:
 172              		.align	2
 173              	.L27:
 174 0024 001000E0 		.word	-536866816
 175              		.cfi_endproc
 176              	.LFE65:
 177              		.size	halPolledDelay, .-halPolledDelay
 178 0028 AFF30080 		.text
 178      AFF30080 
 179              	.Letext0: