ARM GAS  C:\DOCUME~1\z_80\LOCALS~1\Temp\ccUwMBJc.s 			page 1


   1              		.syntax unified
   2              		.cpu cortex-m3
   3              		.fpu softvfp
   4              		.eabi_attribute 20, 1
   5              		.eabi_attribute 21, 1
   6              		.eabi_attribute 23, 3
   7              		.eabi_attribute 24, 1
   8              		.eabi_attribute 25, 1
   9              		.eabi_attribute 26, 1
  10              		.eabi_attribute 30, 2
  11              		.eabi_attribute 18, 4
  12              		.thumb
  13              		.file	"pal.c"
  20 0000 AE010000 		.text
  20      02006B01 
  20      00000201 
  20      FB0E0D00 
  20      01010101 
  21              	.Ltext0:
  22              		.cfi_sections	.debug_frame
  23              		.section	.text.palReadBus,"ax",%progbits
  24              		.align	2
  25              		.p2align 4,,15
  26              		.global	palReadBus
  27              		.thumb
  28              		.thumb_func
  29              		.type	palReadBus, %function
  30              	palReadBus:
  31              	.LFB63:
  32              		.file 1 "../chibios_2.6.3/os/hal/src/pal.c"
  33              		.loc 1 77 0
  34              		.cfi_startproc
  35              		@ args = 0, pretend = 0, frame = 0
  36              		@ frame_needed = 0, uses_anonymous_args = 0
  37              		@ link register save eliminated.
  38              	.LVL0:
  39              		.loc 1 82 0
  40 0000 0368     		ldr	r3, [r0, #0]
  41 0002 8268     		ldr	r2, [r0, #8]
  42 0004 9968     		ldr	r1, [r3, #8]
  43 0006 4368     		ldr	r3, [r0, #4]
  44 0008 31FA02F0 		lsrs	r0, r1, r2
  45              	.LVL1:
  46              		.loc 1 83 0
  47 000c 1840     		ands	r0, r0, r3
  48 000e 7047     		bx	lr
  49              		.cfi_endproc
  50              	.LFE63:
  51              		.size	palReadBus, .-palReadBus
  52              		.section	.text.palWriteBus,"ax",%progbits
  53              		.align	2
ARM GAS  C:\DOCUME~1\z_80\LOCALS~1\Temp\ccUwMBJc.s 			page 2


  54              		.p2align 4,,15
  55              		.global	palWriteBus
  56              		.thumb
  57              		.thumb_func
  58              		.type	palWriteBus, %function
  59              	palWriteBus:
  60              	.LFB64:
  61              		.loc 1 103 0
  62              		.cfi_startproc
  63              		@ args = 0, pretend = 0, frame = 0
  64              		@ frame_needed = 0, uses_anonymous_args = 0
  65              		@ link register save eliminated.
  66              	.LVL2:
  67              		.loc 1 108 0
  68 0000 8368     		ldr	r3, [r0, #8]
  69 0002 4268     		ldr	r2, [r0, #4]
  70              		.loc 1 103 0
  71 0004 30B4     		push	{r4, r5}
  72              	.LCFI0:
  73              		.cfi_def_cfa_offset 8
  74              		.loc 1 108 0
  75 0006 22EA0105 		bic	r5, r2, r1
  76              		.cfi_offset 5, -4
  77              		.cfi_offset 4, -8
  78 000a 03F11004 		add	r4, r3, #16
  79 000e 01EA0202 		and	r2, r1, r2
  80 0012 15FA04F4 		lsls	r4, r5, r4
  81 0016 12FA03F1 		lsls	r1, r2, r3
  82              	.LVL3:
  83 001a 0068     		ldr	r0, [r0, #0]
  84              	.LVL4:
  85 001c 44EA0103 		orr	r3, r4, r1
  86 0020 0361     		str	r3, [r0, #16]
  87              		.loc 1 109 0
  88 0022 30BC     		pop	{r4, r5}
  89 0024 7047     		bx	lr
  90              		.cfi_endproc
  91              	.LFE64:
  92              		.size	palWriteBus, .-palWriteBus
  93 0026 00BFAFF3 		.section	.text.palSetBusMode,"ax",%progbits
  93      0080AFF3 
  93      0080
  94              		.align	2
  95              		.p2align 4,,15
  96              		.global	palSetBusMode
  97              		.thumb
  98              		.thumb_func
  99              		.type	palSetBusMode, %function
 100              	palSetBusMode:
 101              	.LFB65:
 102              		.loc 1 127 0
 103              		.cfi_startproc
 104              		@ args = 0, pretend = 0, frame = 0
 105              		@ frame_needed = 0, uses_anonymous_args = 0
 106              		@ link register save eliminated.
 107              	.LVL5:
 108              		.loc 1 132 0
ARM GAS  C:\DOCUME~1\z_80\LOCALS~1\Temp\ccUwMBJc.s 			page 3


 109 0000 8368     		ldr	r3, [r0, #8]
 110              		.loc 1 127 0
 111 0002 10B4     		push	{r4}
 112              	.LCFI1:
 113              		.cfi_def_cfa_offset 4
 114              		.loc 1 132 0
 115 0004 4468     		ldr	r4, [r0, #4]
 116              		.cfi_offset 4, -4
 117              		.loc 1 127 0
 118 0006 0A46     		mov	r2, r1
 119              		.loc 1 132 0
 120 0008 14FA03F1 		lsls	r1, r4, r3
 121              	.LVL6:
 122 000c 0068     		ldr	r0, [r0, #0]
 123              	.LVL7:
 124              		.loc 1 133 0
 125 000e 10BC     		pop	{r4}
 126              		.loc 1 132 0
 127 0010 FFF7FEBF 		b	_pal_lld_setgroupmode
 128              		.cfi_endproc
 129              	.LFE65:
 130              		.size	palSetBusMode, .-palSetBusMode
 131 0014 AFF30080 		.text
 131      AFF30080 
 131      AFF30080 
 132              	.Letext0: