ARM GAS  C:\DOCUME~1\z_80\LOCALS~1\Temp\ccsurUE6.s 			page 1


   1              		.syntax unified
   2              		.cpu cortex-m3
   3              		.fpu softvfp
   4              		.eabi_attribute 20, 1
   5              		.eabi_attribute 21, 1
   6              		.eabi_attribute 23, 3
   7              		.eabi_attribute 24, 1
   8              		.eabi_attribute 25, 1
   9              		.eabi_attribute 26, 1
  10              		.eabi_attribute 30, 2
  11              		.eabi_attribute 18, 4
  12              		.thumb
  13              		.file	"serial_lld.c"
  20 0000 58030000 		.text
  20      02006402 
  20      00000201 
  20      FB0E0D00 
  20      01010101 
  21              	.Ltext0:
  22              		.cfi_sections	.debug_frame
  23              		.section	.text.notify2,"ax",%progbits
  24              		.align	2
  25              		.p2align 4,,15
  26              		.thumb
  27              		.thumb_func
  28              		.type	notify2, %function
  29              	notify2:
  30              	.LFB67:
  31              		.file 1 "../chibios_2.6.3/os/hal/platforms/STM32/USARTv1/serial_lld.c"
  32              		.loc 1 211 0
  33              		.cfi_startproc
  34              		@ args = 0, pretend = 0, frame = 0
  35              		@ frame_needed = 0, uses_anonymous_args = 0
  36              		@ link register save eliminated.
  37              	.LVL0:
  38              		.loc 1 214 0
  39 0000 034B     		ldr	r3, .L2
  40 0002 9989     		ldrh	r1, [r3, #12]
  41 0004 88B2     		uxth	r0, r1
  42              	.LVL1:
  43 0006 40F08002 		orr	r2, r0, #128
  44 000a 9A81     		strh	r2, [r3, #12]	@ movhi
  45              		.loc 1 215 0
  46 000c 7047     		bx	lr
  47              	.L3:
  48 000e 00BF     		.align	2
  49              	.L2:
  50 0010 00440040 		.word	1073759232
  51              		.cfi_endproc
  52              	.LFE67:
  53              		.size	notify2, .-notify2
ARM GAS  C:\DOCUME~1\z_80\LOCALS~1\Temp\ccsurUE6.s 			page 2


  54 0014 AFF30080 		.section	.text.VectorD8,"ax",%progbits
  54      AFF30080 
  54      AFF30080 
  55              		.align	2
  56              		.p2align 4,,15
  57              		.global	VectorD8
  58              		.thumb
  59              		.thumb_func
  60              		.type	VectorD8, %function
  61              	VectorD8:
  62              	.LFB68:
  63              		.loc 1 282 0
  64              		.cfi_startproc
  65              		@ args = 0, pretend = 0, frame = 0
  66              		@ frame_needed = 0, uses_anonymous_args = 0
  67              	.LVL2:
  68              	.LBB52:
  69              	.LBB54:
  70              		.loc 1 155 0
  71 0000 3D48     		ldr	r0, .L24
  72              	.LBE54:
  73              	.LBE52:
  74              		.loc 1 282 0
  75 0002 70B5     		push	{r4, r5, r6, lr}
  76              	.LCFI0:
  77              		.cfi_def_cfa_offset 16
  78              	.LBB69:
  79              	.LBB53:
  80              		.loc 1 155 0
  81 0004 456F     		ldr	r5, [r0, #116]
  82              		.cfi_offset 14, -4
  83              		.cfi_offset 6, -8
  84              		.cfi_offset 5, -12
  85              		.cfi_offset 4, -16
  86              	.LVL3:
  87              		.loc 1 156 0
  88 0006 AE89     		ldrh	r6, [r5, #12]
  89              		.loc 1 157 0
  90 0008 2C88     		ldrh	r4, [r5, #0]
  91              		.loc 1 156 0
  92 000a B6B2     		uxth	r6, r6
  93              	.LVL4:
  94              		.loc 1 157 0
  95 000c A4B2     		uxth	r4, r4
  96              		.loc 1 160 0
  97 000e 14F4807F 		tst	r4, #256
  98 0012 4AD1     		bne	.L21
  99              	.LVL5:
 100              	.L5:
 101              	.LBB62:
 102              		.loc 1 168 0
 103 0014 2023     		movs	r3, #32
 104              	.LVL6:
 105              	@ 168 "../chibios_2.6.3/os/hal/platforms/STM32/USARTv1/serial_lld.c" 1
 106 0016 83F31188 		msr     BASEPRI, r3
 107              	@ 0 "" 2
 108              	.LVL7:
ARM GAS  C:\DOCUME~1\z_80\LOCALS~1\Temp\ccsurUE6.s 			page 3


 109              		.thumb
 110              	.LBE62:
 111              		.loc 1 169 0
 112 001a 14F0200F 		tst	r4, #32
 113 001e 22D0     		beq	.L6
 114              	.L18:
 115              		.loc 1 171 0
 116 0020 14F00F0F 		tst	r4, #15
 117              	.LBB59:
 118              	.LBB60:
 119              		.loc 1 146 0
 120 0024 3548     		ldr	r0, .L24+4
 121              	.LBE60:
 122              	.LBE59:
 123              		.loc 1 171 0
 124 0026 14D0     		beq	.L7
 125              	.LVL8:
 126              	.LBB58:
 127              	.LBB61:
 128              		.loc 1 139 0
 129 0028 14F00801 		ands	r1, r4, #8
 130 002c 18BF     		it	ne
 131 002e 8021     		movne	r1, #128
 132              	.LVL9:
 133              		.loc 1 140 0
 134 0030 14F0010F 		tst	r4, #1
 135              		.loc 1 141 0
 136 0034 18BF     		it	ne
 137 0036 41F02001 		orrne	r1, r1, #32
 138              	.LVL10:
 139              		.loc 1 142 0
 140 003a 14F0020F 		tst	r4, #2
 141              		.loc 1 143 0
 142 003e 18BF     		it	ne
 143 0040 41F04001 		orrne	r1, r1, #64
 144              	.LVL11:
 145              		.loc 1 144 0
 146 0044 14F0040F 		tst	r4, #4
 147              		.loc 1 145 0
 148 0048 18BF     		it	ne
 149 004a 41F48071 		orrne	r1, r1, #256
 150              	.LVL12:
 151              		.loc 1 146 0
 152 004e FFF7FEFF 		bl	chEvtBroadcastFlagsI
 153              	.LVL13:
 154              	.L7:
 155              	.LBE61:
 156              	.LBE58:
 157              		.loc 1 173 0
 158 0052 A988     		ldrh	r1, [r5, #4]
 159 0054 2848     		ldr	r0, .L24
 160 0056 C9B2     		uxtb	r1, r1
 161 0058 FFF7FEFF 		bl	sdIncomingDataI
 162              	.LVL14:
 163              		.loc 1 174 0
 164 005c 2888     		ldrh	r0, [r5, #0]
 165 005e 84B2     		uxth	r4, r0
ARM GAS  C:\DOCUME~1\z_80\LOCALS~1\Temp\ccsurUE6.s 			page 4


 166              		.loc 1 169 0
 167 0060 14F0200F 		tst	r4, #32
 168 0064 DCD1     		bne	.L18
 169              	.LVL15:
 170              	.L6:
 171              	.LBB57:
 172              		.loc 1 176 0
 173 0066 0023     		movs	r3, #0
 174              	.LVL16:
 175              	@ 176 "../chibios_2.6.3/os/hal/platforms/STM32/USARTv1/serial_lld.c" 1
 176 0068 83F31188 		msr     BASEPRI, r3
 177              	@ 0 "" 2
 178              	.LVL17:
 179              		.thumb
 180              	.LBE57:
 181              		.loc 1 179 0
 182 006c 16F0800F 		tst	r6, #128
 183 0070 02D0     		beq	.L13
 184 0072 14F0800F 		tst	r4, #128
 185 0076 27D1     		bne	.L22
 186              	.LVL18:
 187              	.L13:
 188              		.loc 1 193 0
 189 0078 14F0400F 		tst	r4, #64
 190 007c 11D0     		beq	.L16
 191              	.LBB56:
 192              		.loc 1 194 0
 193 007e 2023     		movs	r3, #32
 194              	.LVL19:
 195              	@ 194 "../chibios_2.6.3/os/hal/platforms/STM32/USARTv1/serial_lld.c" 1
 196 0080 83F31188 		msr     BASEPRI, r3
 197              	@ 0 "" 2
 198              	.LVL20:
 199              		.thumb
 200              	.LBE56:
 201              		.loc 1 195 0
 202 0084 1D48     		ldr	r0, .L24+4
 203 0086 1021     		movs	r1, #16
 204 0088 FFF7FEFF 		bl	chEvtBroadcastFlagsI
 205              	.LVL21:
 206              	.LBB55:
 207              		.loc 1 196 0
 208 008c 0023     		movs	r3, #0
 209              	.LVL22:
 210              	@ 196 "../chibios_2.6.3/os/hal/platforms/STM32/USARTv1/serial_lld.c" 1
 211 008e 83F31188 		msr     BASEPRI, r3
 212              	@ 0 "" 2
 213              	.LVL23:
 214              		.thumb
 215              	.LBE55:
 216              		.loc 1 197 0
 217 0092 4FF63F71 		movw	r1, #65343
 218 0096 06EA0100 		and	r0, r6, r1
 219              		.loc 1 198 0
 220 009a 4FF6BF73 		movw	r3, 65471	@ movhi
 221              	.LVL24:
 222              		.loc 1 197 0
ARM GAS  C:\DOCUME~1\z_80\LOCALS~1\Temp\ccsurUE6.s 			page 5


 223 009e A881     		strh	r0, [r5, #12]	@ movhi
 224              		.loc 1 198 0
 225 00a0 2B80     		strh	r3, [r5, #0]	@ movhi
 226              	.LVL25:
 227              	.L16:
 228              	.LBE53:
 229              	.LBE69:
 230              		.loc 1 289 0
 231 00a2 BDE87040 		pop	{r4, r5, r6, lr}
 232              		.loc 1 288 0
 233 00a6 FFF7FEBF 		b	_port_irq_epilogue
 234              	.LVL26:
 235              	.L21:
 236              	.LBB70:
 237              	.LBB68:
 238              	.LBB63:
 239              		.loc 1 161 0
 240 00aa 2023     		movs	r3, #32
 241              	.LVL27:
 242              	@ 161 "../chibios_2.6.3/os/hal/platforms/STM32/USARTv1/serial_lld.c" 1
 243 00ac 83F31188 		msr     BASEPRI, r3
 244              	@ 0 "" 2
 245              	.LVL28:
 246              		.thumb
 247              	.LBE63:
 248              		.loc 1 162 0
 249 00b0 4FF40071 		mov	r1, #512
 250 00b4 0430     		adds	r0, r0, #4
 251 00b6 FFF7FEFF 		bl	chEvtBroadcastFlagsI
 252              	.LVL29:
 253              	.LBB64:
 254              		.loc 1 163 0
 255 00ba 0023     		movs	r3, #0
 256              	.LVL30:
 257              	@ 163 "../chibios_2.6.3/os/hal/platforms/STM32/USARTv1/serial_lld.c" 1
 258 00bc 83F31188 		msr     BASEPRI, r3
 259              	@ 0 "" 2
 260              	.LVL31:
 261              		.thumb
 262              	.LBE64:
 263              		.loc 1 164 0
 264 00c0 4FF6FF63 		movw	r3, 65279	@ movhi
 265              	.LVL32:
 266 00c4 2B80     		strh	r3, [r5, #0]	@ movhi
 267 00c6 A5E7     		b	.L5
 268              	.LVL33:
 269              	.L22:
 270              	.LBB65:
 271              	.LBB66:
 272              		.loc 1 181 0
 273 00c8 2023     		movs	r3, #32
 274              	.LVL34:
 275              	@ 181 "../chibios_2.6.3/os/hal/platforms/STM32/USARTv1/serial_lld.c" 1
 276 00ca 83F31188 		msr     BASEPRI, r3
 277              	@ 0 "" 2
 278              	.LVL35:
 279              		.thumb
ARM GAS  C:\DOCUME~1\z_80\LOCALS~1\Temp\ccsurUE6.s 			page 6


 280              	.LBE66:
 281              		.loc 1 182 0
 282 00ce 0C48     		ldr	r0, .L24+8
 283 00d0 FFF7FEFF 		bl	chOQGetI
 284              	.LVL36:
 285              		.loc 1 183 0
 286 00d4 0028     		cmp	r0, #0
 287 00d6 04DB     		blt	.L23
 288              		.loc 1 188 0
 289 00d8 A880     		strh	r0, [r5, #4]	@ movhi
 290              	.LVL37:
 291              	.L15:
 292              	.LBB67:
 293              		.loc 1 189 0
 294 00da 0023     		movs	r3, #0
 295              	@ 189 "../chibios_2.6.3/os/hal/platforms/STM32/USARTv1/serial_lld.c" 1
 296 00dc 83F31188 		msr     BASEPRI, r3
 297              	@ 0 "" 2
 298              	.LVL38:
 299              		.thumb
 300 00e0 CAE7     		b	.L13
 301              	.LVL39:
 302              	.L23:
 303              	.LBE67:
 304              		.loc 1 184 0
 305 00e2 0648     		ldr	r0, .L24+4
 306              	.LVL40:
 307 00e4 0821     		movs	r1, #8
 308 00e6 FFF7FEFF 		bl	chEvtBroadcastFlagsI
 309              		.loc 1 185 0
 310 00ea 26F0C00C 		bic	ip, r6, #192
 311 00ee 4CF04002 		orr	r2, ip, #64
 312 00f2 AA81     		strh	r2, [r5, #12]	@ movhi
 313 00f4 F1E7     		b	.L15
 314              	.L25:
 315 00f6 00BF     		.align	2
 316              	.L24:
 317 00f8 00000000 		.word	.LANCHOR0
 318 00fc 04000000 		.word	.LANCHOR0+4
 319 0100 30000000 		.word	.LANCHOR0+48
 320              	.LBE65:
 321              	.LBE68:
 322              	.LBE70:
 323              		.cfi_endproc
 324              	.LFE68:
 325              		.size	VectorD8, .-VectorD8
 326 0104 AFF30080 		.section	.text.sd_lld_init,"ax",%progbits
 326      AFF30080 
 326      AFF30080 
 327              		.align	2
 328              		.p2align 4,,15
 329              		.global	sd_lld_init
 330              		.thumb
 331              		.thumb_func
 332              		.type	sd_lld_init, %function
 333              	sd_lld_init:
 334              	.LFB69:
ARM GAS  C:\DOCUME~1\z_80\LOCALS~1\Temp\ccsurUE6.s 			page 7


 335              		.loc 1 377 0
 336              		.cfi_startproc
 337              		@ args = 0, pretend = 0, frame = 0
 338              		@ frame_needed = 0, uses_anonymous_args = 0
 339 0000 10B5     		push	{r4, lr}
 340              	.LCFI1:
 341              		.cfi_def_cfa_offset 8
 342              		.loc 1 385 0
 343 0002 044C     		ldr	r4, .L27
 344              		.cfi_offset 14, -4
 345              		.cfi_offset 4, -8
 346 0004 0021     		movs	r1, #0
 347 0006 2046     		mov	r0, r4
 348 0008 034A     		ldr	r2, .L27+4
 349 000a FFF7FEFF 		bl	sdObjectInit
 350              		.loc 1 386 0
 351 000e 034B     		ldr	r3, .L27+8
 352 0010 6367     		str	r3, [r4, #116]
 353              		.loc 1 408 0
 354 0012 10BD     		pop	{r4, pc}
 355              	.L28:
 356              		.align	2
 357              	.L27:
 358 0014 00000000 		.word	.LANCHOR0
 359 0018 00000000 		.word	notify2
 360 001c 00440040 		.word	1073759232
 361              		.cfi_endproc
 362              	.LFE69:
 363              		.size	sd_lld_init, .-sd_lld_init
 364              		.section	.text.sd_lld_start,"ax",%progbits
 365              		.align	2
 366              		.p2align 4,,15
 367              		.global	sd_lld_start
 368              		.thumb
 369              		.thumb_func
 370              		.type	sd_lld_start, %function
 371              	sd_lld_start:
 372              	.LFB70:
 373              		.loc 1 420 0
 374              		.cfi_startproc
 375              		@ args = 0, pretend = 0, frame = 0
 376              		@ frame_needed = 0, uses_anonymous_args = 0
 377              	.LVL41:
 378 0000 38B5     		push	{r3, r4, r5, lr}
 379              	.LCFI2:
 380              		.cfi_def_cfa_offset 16
 381              		.loc 1 425 0
 382 0002 037A     		ldrb	r3, [r0, #8]	@ zero_extendqisi2
 383              		.cfi_offset 14, -4
 384              		.cfi_offset 5, -8
 385              		.cfi_offset 4, -12
 386              		.cfi_offset 3, -16
 387              		.loc 1 423 0
 388 0004 174C     		ldr	r4, .L36
 389              		.loc 1 420 0
 390 0006 0546     		mov	r5, r0
 391              		.loc 1 423 0
ARM GAS  C:\DOCUME~1\z_80\LOCALS~1\Temp\ccsurUE6.s 			page 8


 392 0008 0029     		cmp	r1, #0
 393 000a 18BF     		it	ne
 394 000c 0C46     		movne	r4, r1
 395              	.LVL42:
 396              		.loc 1 425 0
 397 000e 012B     		cmp	r3, #1
 398 0010 1AD0     		beq	.L35
 399              	.LVL43:
 400              	.L31:
 401              	.LBB71:
 402              	.LBB72:
 403              		.loc 1 103 0
 404 0012 2068     		ldr	r0, [r4, #0]
 405 0014 1449     		ldr	r1, .L36+4
 406              	.LBE72:
 407              	.LBE71:
 408              		.loc 1 528 0
 409 0016 6B6F     		ldr	r3, [r5, #116]
 410              	.LVL44:
 411              	.LBB74:
 412              	.LBB73:
 413              		.loc 1 103 0
 414 0018 B1FBF0F2 		udiv	r2, r1, r0
 415 001c 1A81     		strh	r2, [r3, #8]	@ movhi
 416              		.loc 1 108 0
 417 001e A088     		ldrh	r0, [r4, #4]
 418              		.loc 1 106 0
 419 0020 E188     		ldrh	r1, [r4, #6]
 420              		.loc 1 107 0
 421 0022 B4F808C0 		ldrh	ip, [r4, #8]
 422              		.loc 1 108 0
 423 0026 40F40452 		orr	r2, r0, #8448
 424              		.loc 1 106 0
 425 002a 41F04000 		orr	r0, r1, #64
 426 002e 1882     		strh	r0, [r3, #16]	@ movhi
 427              		.loc 1 107 0
 428 0030 4CF00101 		orr	r1, ip, #1
 429              		.loc 1 111 0
 430 0034 0020     		movs	r0, #0
 431              		.loc 1 108 0
 432 0036 42F02C0C 		orr	ip, r2, #44
 433              		.loc 1 107 0
 434 003a 9982     		strh	r1, [r3, #20]	@ movhi
 435              		.loc 1 108 0
 436 003c A3F80CC0 		strh	ip, [r3, #12]	@ movhi
 437              		.loc 1 111 0
 438 0040 1880     		strh	r0, [r3, #0]	@ movhi
 439              		.loc 1 112 0
 440 0042 1A88     		ldrh	r2, [r3, #0]
 441              		.loc 1 113 0
 442 0044 9B88     		ldrh	r3, [r3, #4]
 443              	.LBE73:
 444              	.LBE74:
 445              		.loc 1 470 0
 446 0046 38BD     		pop	{r3, r4, r5, pc}
 447              	.LVL45:
 448              	.L35:
ARM GAS  C:\DOCUME~1\z_80\LOCALS~1\Temp\ccsurUE6.s 			page 9


 449              		.loc 1 434 0
 450 0048 0849     		ldr	r1, .L36+8
 451 004a 8842     		cmp	r0, r1
 452 004c E1D1     		bne	.L31
 453              		.loc 1 435 0
 454 004e 084B     		ldr	r3, .L36+12
 455              		.loc 1 436 0
 456 0050 2620     		movs	r0, #38
 457              		.loc 1 435 0
 458 0052 DA69     		ldr	r2, [r3, #28]
 459              		.loc 1 436 0
 460 0054 C021     		movs	r1, #192
 461              		.loc 1 435 0
 462 0056 42F40032 		orr	r2, r2, #131072
 463 005a DA61     		str	r2, [r3, #28]
 464              		.loc 1 436 0
 465 005c FFF7FEFF 		bl	nvicEnableVector
 466 0060 D7E7     		b	.L31
 467              	.L37:
 468 0062 00BF     		.align	2
 469              	.L36:
 470 0064 00000000 		.word	.LANCHOR1
 471 0068 00366E01 		.word	24000000
 472 006c 00000000 		.word	.LANCHOR0
 473 0070 00100240 		.word	1073876992
 474              		.cfi_endproc
 475              	.LFE70:
 476              		.size	sd_lld_start, .-sd_lld_start
 477 0074 AFF30080 		.section	.text.sd_lld_stop,"ax",%progbits
 477      AFF30080 
 477      AFF30080 
 478              		.align	2
 479              		.p2align 4,,15
 480              		.global	sd_lld_stop
 481              		.thumb
 482              		.thumb_func
 483              		.type	sd_lld_stop, %function
 484              	sd_lld_stop:
 485              	.LFB71:
 486              		.loc 1 481 0
 487              		.cfi_startproc
 488              		@ args = 0, pretend = 0, frame = 0
 489              		@ frame_needed = 0, uses_anonymous_args = 0
 490              		@ link register save eliminated.
 491              	.LVL46:
 492              		.loc 1 483 0
 493 0000 037A     		ldrb	r3, [r0, #8]	@ zero_extendqisi2
 494 0002 022B     		cmp	r3, #2
 495 0004 00D0     		beq	.L40
 496              	.L38:
 497 0006 7047     		bx	lr
 498              	.LVL47:
 499              	.L40:
 500              		.loc 1 493 0
 501 0008 0749     		ldr	r1, .L41
 502              	.LVL48:
 503              		.loc 1 484 0
ARM GAS  C:\DOCUME~1\z_80\LOCALS~1\Temp\ccsurUE6.s 			page 10


 504 000a 436F     		ldr	r3, [r0, #116]
 505              	.LVL49:
 506              	.LBB75:
 507              	.LBB76:
 508              		.loc 1 124 0
 509 000c 0022     		movs	r2, #0
 510              	.LBE76:
 511              	.LBE75:
 512              		.loc 1 493 0
 513 000e 8842     		cmp	r0, r1
 514              	.LBB78:
 515              	.LBB77:
 516              		.loc 1 124 0
 517 0010 9A81     		strh	r2, [r3, #12]	@ movhi
 518              		.loc 1 125 0
 519 0012 1A82     		strh	r2, [r3, #16]	@ movhi
 520              		.loc 1 126 0
 521 0014 9A82     		strh	r2, [r3, #20]	@ movhi
 522              	.LBE77:
 523              	.LBE78:
 524              		.loc 1 493 0
 525 0016 F6D1     		bne	.L38
 526              		.loc 1 494 0
 527 0018 044B     		ldr	r3, .L41+4
 528              		.loc 1 495 0
 529 001a 2620     		movs	r0, #38
 530              	.LVL50:
 531              		.loc 1 494 0
 532 001c DA69     		ldr	r2, [r3, #28]
 533 001e 22F40031 		bic	r1, r2, #131072
 534 0022 D961     		str	r1, [r3, #28]
 535              		.loc 1 528 0
 536              		.loc 1 495 0
 537 0024 FFF7FEBF 		b	nvicDisableVector
 538              	.L42:
 539              		.align	2
 540              	.L41:
 541 0028 00000000 		.word	.LANCHOR0
 542 002c 00100240 		.word	1073876992
 543              		.cfi_endproc
 544              	.LFE71:
 545              		.size	sd_lld_stop, .-sd_lld_stop
 546              		.global	SD2
 547              		.section	.rodata.default_config,"a",%progbits
 548              		.align	2
 549              		.set	.LANCHOR1,. + 0
 550              		.type	default_config, %object
 551              		.size	default_config, 12
 552              	default_config:
 553 0000 00960000 		.word	38400
 554 0004 0000     		.short	0
 555 0006 0040     		.short	16384
 556 0008 0000     		.short	0
 557 000a 0000     		.space	2
 558              		.section	.bss.SD2,"aw",%nobits
 559              		.align	2
 560              		.set	.LANCHOR0,. + 0
ARM GAS  C:\DOCUME~1\z_80\LOCALS~1\Temp\ccsurUE6.s 			page 11


 561              		.type	SD2, %object
 562              		.size	SD2, 120
 563              	SD2:
 564 0000 00000000 		.space	120
 564      00000000 
 564      00000000 
 564      00000000 
 564      00000000 
 565              		.text
 566              	.Letext0: