ARM GAS  C:\DOCUME~1\z_80\LOCALS~1\Temp\cc2vLIRL.s 			page 1


   1              		.syntax unified
   2              		.cpu cortex-m3
   3              		.fpu softvfp
   4              		.eabi_attribute 20, 1
   5              		.eabi_attribute 21, 1
   6              		.eabi_attribute 23, 3
   7              		.eabi_attribute 24, 1
   8              		.eabi_attribute 25, 1
   9              		.eabi_attribute 26, 1
  10              		.eabi_attribute 30, 2
  11              		.eabi_attribute 18, 4
  12              		.thumb
  13              		.file	"serial.c"
  20 0000 A8030000 		.text
  20      02007C02 
  20      00000201 
  20      FB0E0D00 
  20      01010101 
  21              	.Ltext0:
  22              		.cfi_sections	.debug_frame
  23              		.section	.text.readt,"ax",%progbits
  24              		.align	2
  25              		.p2align 4,,15
  26              		.thumb
  27              		.thumb_func
  28              		.type	readt, %function
  29              	readt:
  30              	.LFB70:
  31              		.file 1 "../chibios_2.6.3/os/hal/src/serial.c"
  32              		.loc 1 99 0
  33              		.cfi_startproc
  34              		@ args = 0, pretend = 0, frame = 0
  35              		@ frame_needed = 0, uses_anonymous_args = 0
  36              		@ link register save eliminated.
  37              	.LVL0:
  38              		.loc 1 101 0
  39 0000 0C30     		adds	r0, r0, #12
  40              	.LVL1:
  41              		.loc 1 102 0
  42              		.loc 1 101 0
  43 0002 FFF7FEBF 		b	chIQReadTimeout
  44              		.cfi_endproc
  45              	.LFE70:
  46              		.size	readt, .-readt
  47 0006 00BFAFF3 		.section	.text.read,"ax",%progbits
  47      0080AFF3 
  47      0080
  48              		.align	2
  49              		.p2align 4,,15
  50              		.thumb
  51              		.thumb_func
ARM GAS  C:\DOCUME~1\z_80\LOCALS~1\Temp\cc2vLIRL.s 			page 2


  52              		.type	read, %function
  53              	read:
  54              	.LFB64:
  55              		.loc 1 68 0
  56              		.cfi_startproc
  57              		@ args = 0, pretend = 0, frame = 0
  58              		@ frame_needed = 0, uses_anonymous_args = 0
  59              		@ link register save eliminated.
  60              	.LVL2:
  61              		.loc 1 70 0
  62 0000 0C30     		adds	r0, r0, #12
  63              	.LVL3:
  64 0002 4FF0FF33 		mov	r3, #-1
  65              		.loc 1 72 0
  66              		.loc 1 70 0
  67 0006 FFF7FEBF 		b	chIQReadTimeout
  68              		.cfi_endproc
  69              	.LFE64:
  70              		.size	read, .-read
  71 000a 00BFAFF3 		.section	.text.writet,"ax",%progbits
  71      0080
  72              		.align	2
  73              		.p2align 4,,15
  74              		.thumb
  75              		.thumb_func
  76              		.type	writet, %function
  77              	writet:
  78              	.LFB69:
  79              		.loc 1 94 0
  80              		.cfi_startproc
  81              		@ args = 0, pretend = 0, frame = 0
  82              		@ frame_needed = 0, uses_anonymous_args = 0
  83              		@ link register save eliminated.
  84              	.LVL4:
  85              		.loc 1 96 0
  86 0000 3030     		adds	r0, r0, #48
  87              	.LVL5:
  88              		.loc 1 97 0
  89              		.loc 1 96 0
  90 0002 FFF7FEBF 		b	chOQWriteTimeout
  91              		.cfi_endproc
  92              	.LFE69:
  93              		.size	writet, .-writet
  94 0006 00BFAFF3 		.section	.text.write,"ax",%progbits
  94      0080AFF3 
  94      0080
  95              		.align	2
  96              		.p2align 4,,15
  97              		.thumb
  98              		.thumb_func
  99              		.type	write, %function
 100              	write:
 101              	.LFB63:
 102              		.loc 1 62 0
 103              		.cfi_startproc
 104              		@ args = 0, pretend = 0, frame = 0
 105              		@ frame_needed = 0, uses_anonymous_args = 0
ARM GAS  C:\DOCUME~1\z_80\LOCALS~1\Temp\cc2vLIRL.s 			page 3


 106              		@ link register save eliminated.
 107              	.LVL6:
 108              		.loc 1 64 0
 109 0000 3030     		adds	r0, r0, #48
 110              	.LVL7:
 111 0002 4FF0FF33 		mov	r3, #-1
 112              		.loc 1 66 0
 113              		.loc 1 64 0
 114 0006 FFF7FEBF 		b	chOQWriteTimeout
 115              		.cfi_endproc
 116              	.LFE63:
 117              		.size	write, .-write
 118 000a 00BFAFF3 		.section	.text.gett,"ax",%progbits
 118      0080
 119              		.align	2
 120              		.p2align 4,,15
 121              		.thumb
 122              		.thumb_func
 123              		.type	gett, %function
 124              	gett:
 125              	.LFB68:
 126              		.loc 1 89 0
 127              		.cfi_startproc
 128              		@ args = 0, pretend = 0, frame = 0
 129              		@ frame_needed = 0, uses_anonymous_args = 0
 130              		@ link register save eliminated.
 131              	.LVL8:
 132              		.loc 1 91 0
 133 0000 0C30     		adds	r0, r0, #12
 134              	.LVL9:
 135              		.loc 1 92 0
 136              		.loc 1 91 0
 137 0002 FFF7FEBF 		b	chIQGetTimeout
 138              		.cfi_endproc
 139              	.LFE68:
 140              		.size	gett, .-gett
 141 0006 00BFAFF3 		.section	.text.get,"ax",%progbits
 141      0080AFF3 
 141      0080
 142              		.align	2
 143              		.p2align 4,,15
 144              		.thumb
 145              		.thumb_func
 146              		.type	get, %function
 147              	get:
 148              	.LFB66:
 149              		.loc 1 79 0
 150              		.cfi_startproc
 151              		@ args = 0, pretend = 0, frame = 0
 152              		@ frame_needed = 0, uses_anonymous_args = 0
 153              		@ link register save eliminated.
 154              	.LVL10:
 155              		.loc 1 81 0
 156 0000 0C30     		adds	r0, r0, #12
 157              	.LVL11:
 158 0002 4FF0FF31 		mov	r1, #-1
 159              		.loc 1 82 0
ARM GAS  C:\DOCUME~1\z_80\LOCALS~1\Temp\cc2vLIRL.s 			page 4


 160              		.loc 1 81 0
 161 0006 FFF7FEBF 		b	chIQGetTimeout
 162              		.cfi_endproc
 163              	.LFE66:
 164              		.size	get, .-get
 165 000a 00BFAFF3 		.section	.text.putt,"ax",%progbits
 165      0080
 166              		.align	2
 167              		.p2align 4,,15
 168              		.thumb
 169              		.thumb_func
 170              		.type	putt, %function
 171              	putt:
 172              	.LFB67:
 173              		.loc 1 84 0
 174              		.cfi_startproc
 175              		@ args = 0, pretend = 0, frame = 0
 176              		@ frame_needed = 0, uses_anonymous_args = 0
 177              		@ link register save eliminated.
 178              	.LVL12:
 179              		.loc 1 86 0
 180 0000 3030     		adds	r0, r0, #48
 181              	.LVL13:
 182              		.loc 1 87 0
 183              		.loc 1 86 0
 184 0002 FFF7FEBF 		b	chOQPutTimeout
 185              		.cfi_endproc
 186              	.LFE67:
 187              		.size	putt, .-putt
 188 0006 00BFAFF3 		.section	.text.put,"ax",%progbits
 188      0080AFF3 
 188      0080
 189              		.align	2
 190              		.p2align 4,,15
 191              		.thumb
 192              		.thumb_func
 193              		.type	put, %function
 194              	put:
 195              	.LFB65:
 196              		.loc 1 74 0
 197              		.cfi_startproc
 198              		@ args = 0, pretend = 0, frame = 0
 199              		@ frame_needed = 0, uses_anonymous_args = 0
 200              		@ link register save eliminated.
 201              	.LVL14:
 202              		.loc 1 76 0
 203 0000 3030     		adds	r0, r0, #48
 204              	.LVL15:
 205 0002 4FF0FF32 		mov	r2, #-1
 206              		.loc 1 77 0
 207              		.loc 1 76 0
 208 0006 FFF7FEBF 		b	chOQPutTimeout
 209              		.cfi_endproc
 210              	.LFE65:
 211              		.size	put, .-put
 212 000a 00BFAFF3 		.section	.text.sdInit,"ax",%progbits
 212      0080
ARM GAS  C:\DOCUME~1\z_80\LOCALS~1\Temp\cc2vLIRL.s 			page 5


 213              		.align	2
 214              		.p2align 4,,15
 215              		.global	sdInit
 216              		.thumb
 217              		.thumb_func
 218              		.type	sdInit, %function
 219              	sdInit:
 220              	.LFB71:
 221              		.loc 1 120 0
 222              		.cfi_startproc
 223              		@ args = 0, pretend = 0, frame = 0
 224              		@ frame_needed = 0, uses_anonymous_args = 0
 225              		@ link register save eliminated.
 226              		.loc 1 123 0
 227              		.loc 1 122 0
 228 0000 FFF7FEBF 		b	sd_lld_init
 229              		.cfi_endproc
 230              	.LFE71:
 231              		.size	sdInit, .-sdInit
 232 0004 AFF30080 		.section	.text.sdObjectInit,"ax",%progbits
 232      AFF30080 
 232      AFF30080 
 233              		.align	2
 234              		.p2align 4,,15
 235              		.global	sdObjectInit
 236              		.thumb
 237              		.thumb_func
 238              		.type	sdObjectInit, %function
 239              	sdObjectInit:
 240              	.LFB72:
 241              		.loc 1 140 0
 242              		.cfi_startproc
 243              		@ args = 0, pretend = 0, frame = 0
 244              		@ frame_needed = 0, uses_anonymous_args = 0
 245              	.LVL16:
 246 0000 70B5     		push	{r4, r5, r6, lr}
 247              	.LCFI0:
 248              		.cfi_def_cfa_offset 16
 249 0002 0B46     		mov	r3, r1
 250              		.loc 1 142 0
 251 0004 0D49     		ldr	r1, .L11
 252              	.LVL17:
 253 0006 0646     		mov	r6, r0
 254              		.cfi_offset 14, -4
 255              		.cfi_offset 6, -8
 256              		.cfi_offset 5, -12
 257              		.cfi_offset 4, -16
 258              		.loc 1 140 0
 259 0008 0446     		mov	r4, r0
 260              		.loc 1 142 0
 261 000a 46F8041B 		str	r1, [r6], #4
 262              		.loc 1 143 0
 263 000e 6660     		str	r6, [r4, #4]
 264              		.loc 1 144 0
 265 0010 0126     		movs	r6, #1
 266              		.loc 1 140 0
 267 0012 82B0     		sub	sp, sp, #8
ARM GAS  C:\DOCUME~1\z_80\LOCALS~1\Temp\cc2vLIRL.s 			page 6


 268              	.LCFI1:
 269              		.cfi_def_cfa_offset 24
 270              		.loc 1 140 0
 271 0014 1546     		mov	r5, r2
 272              		.loc 1 145 0
 273 0016 0C30     		adds	r0, r0, #12
 274              	.LVL18:
 275 0018 04F15401 		add	r1, r4, #84
 276 001c 1022     		movs	r2, #16
 277              	.LVL19:
 278              		.loc 1 144 0
 279 001e 2672     		strb	r6, [r4, #8]
 280              		.loc 1 145 0
 281 0020 0094     		str	r4, [sp, #0]
 282 0022 FFF7FEFF 		bl	chIQInit
 283              	.LVL20:
 284              		.loc 1 146 0
 285 0026 04F13000 		add	r0, r4, #48
 286 002a 04F16401 		add	r1, r4, #100
 287 002e 1022     		movs	r2, #16
 288 0030 2B46     		mov	r3, r5
 289 0032 0094     		str	r4, [sp, #0]
 290 0034 FFF7FEFF 		bl	chOQInit
 291              		.loc 1 147 0
 292 0038 02B0     		add	sp, sp, #8
 293 003a 70BD     		pop	{r4, r5, r6, pc}
 294              	.L12:
 295              		.align	2
 296              	.L11:
 297 003c 00000000 		.word	.LANCHOR0
 298              		.cfi_endproc
 299              	.LFE72:
 300              		.size	sdObjectInit, .-sdObjectInit
 301              		.section	.text.sdStart,"ax",%progbits
 302              		.align	2
 303              		.p2align 4,,15
 304              		.global	sdStart
 305              		.thumb
 306              		.thumb_func
 307              		.type	sdStart, %function
 308              	sdStart:
 309              	.LFB73:
 310              		.loc 1 159 0
 311              		.cfi_startproc
 312              		@ args = 0, pretend = 0, frame = 0
 313              		@ frame_needed = 0, uses_anonymous_args = 0
 314              	.LVL21:
 315 0000 10B5     		push	{r4, lr}
 316              	.LCFI2:
 317              		.cfi_def_cfa_offset 8
 318              	.LBB2:
 319              		.loc 1 163 0
 320 0002 2023     		movs	r3, #32
 321              	.LVL22:
 322              	.LBE2:
 323              		.loc 1 159 0
 324 0004 0446     		mov	r4, r0
ARM GAS  C:\DOCUME~1\z_80\LOCALS~1\Temp\cc2vLIRL.s 			page 7


 325              		.cfi_offset 14, -4
 326              		.cfi_offset 4, -8
 327              	.LBB3:
 328              		.loc 1 163 0
 329              	@ 163 "../chibios_2.6.3/os/hal/src/serial.c" 1
 330 0006 83F31188 		msr     BASEPRI, r3
 331              	@ 0 "" 2
 332              	.LVL23:
 333              		.thumb
 334              	.LBE3:
 335              		.loc 1 167 0
 336 000a FFF7FEFF 		bl	sd_lld_start
 337              	.LVL24:
 338              		.loc 1 168 0
 339 000e 0223     		movs	r3, #2
 340 0010 2372     		strb	r3, [r4, #8]
 341              	.LBB4:
 342              		.loc 1 169 0
 343 0012 0023     		movs	r3, #0
 344              	.LVL25:
 345              	@ 169 "../chibios_2.6.3/os/hal/src/serial.c" 1
 346 0014 83F31188 		msr     BASEPRI, r3
 347              	@ 0 "" 2
 348              	.LVL26:
 349              		.thumb
 350              	.LBE4:
 351              		.loc 1 170 0
 352 0018 10BD     		pop	{r4, pc}
 353              		.cfi_endproc
 354              	.LFE73:
 355              		.size	sdStart, .-sdStart
 356 001a 00BFAFF3 		.section	.text.sdStop,"ax",%progbits
 356      0080
 357              		.align	2
 358              		.p2align 4,,15
 359              		.global	sdStop
 360              		.thumb
 361              		.thumb_func
 362              		.type	sdStop, %function
 363              	sdStop:
 364              	.LFB74:
 365              		.loc 1 181 0
 366              		.cfi_startproc
 367              		@ args = 0, pretend = 0, frame = 0
 368              		@ frame_needed = 0, uses_anonymous_args = 0
 369              	.LVL27:
 370 0000 10B5     		push	{r4, lr}
 371              	.LCFI3:
 372              		.cfi_def_cfa_offset 8
 373              	.LBB5:
 374              		.loc 1 185 0
 375 0002 2023     		movs	r3, #32
 376              	.LVL28:
 377              	.LBE5:
 378              		.loc 1 181 0
 379 0004 0446     		mov	r4, r0
 380              		.cfi_offset 14, -4
ARM GAS  C:\DOCUME~1\z_80\LOCALS~1\Temp\cc2vLIRL.s 			page 8


 381              		.cfi_offset 4, -8
 382              	.LBB6:
 383              		.loc 1 185 0
 384              	@ 185 "../chibios_2.6.3/os/hal/src/serial.c" 1
 385 0006 83F31188 		msr     BASEPRI, r3
 386              	@ 0 "" 2
 387              	.LVL29:
 388              		.thumb
 389              	.LBE6:
 390              		.loc 1 189 0
 391 000a FFF7FEFF 		bl	sd_lld_stop
 392              	.LVL30:
 393              		.loc 1 190 0
 394 000e 0123     		movs	r3, #1
 395 0010 2372     		strb	r3, [r4, #8]
 396              		.loc 1 191 0
 397 0012 04F13000 		add	r0, r4, #48
 398 0016 FFF7FEFF 		bl	chOQResetI
 399              		.loc 1 192 0
 400 001a 04F10C00 		add	r0, r4, #12
 401 001e FFF7FEFF 		bl	chIQResetI
 402              		.loc 1 193 0
 403 0022 FFF7FEFF 		bl	chSchRescheduleS
 404              	.LBB7:
 405              		.loc 1 194 0
 406 0026 0023     		movs	r3, #0
 407              	.LVL31:
 408              	@ 194 "../chibios_2.6.3/os/hal/src/serial.c" 1
 409 0028 83F31188 		msr     BASEPRI, r3
 410              	@ 0 "" 2
 411              	.LVL32:
 412              		.thumb
 413              	.LBE7:
 414              		.loc 1 195 0
 415 002c 10BD     		pop	{r4, pc}
 416              		.cfi_endproc
 417              	.LFE74:
 418              		.size	sdStop, .-sdStop
 419 002e 00BF     		.section	.text.sdIncomingDataI,"ax",%progbits
 420              		.align	2
 421              		.p2align 4,,15
 422              		.global	sdIncomingDataI
 423              		.thumb
 424              		.thumb_func
 425              		.type	sdIncomingDataI, %function
 426              	sdIncomingDataI:
 427              	.LFB75:
 428              		.loc 1 213 0
 429              		.cfi_startproc
 430              		@ args = 0, pretend = 0, frame = 0
 431              		@ frame_needed = 0, uses_anonymous_args = 0
 432              	.LVL33:
 433              		.loc 1 218 0
 434 0000 4369     		ldr	r3, [r0, #20]
 435              		.loc 1 213 0
 436 0002 70B5     		push	{r4, r5, r6, lr}
 437              	.LCFI4:
ARM GAS  C:\DOCUME~1\z_80\LOCALS~1\Temp\cc2vLIRL.s 			page 9


 438              		.cfi_def_cfa_offset 16
 439              		.loc 1 213 0
 440 0004 0446     		mov	r4, r0
 441              		.cfi_offset 14, -4
 442              		.cfi_offset 6, -8
 443              		.cfi_offset 5, -12
 444              		.cfi_offset 4, -16
 445 0006 0D46     		mov	r5, r1
 446              		.loc 1 218 0
 447 0008 3BB1     		cbz	r3, .L19
 448              		.loc 1 220 0
 449 000a 04F10C00 		add	r0, r4, #12
 450              	.LVL34:
 451 000e 2946     		mov	r1, r5
 452              	.LVL35:
 453 0010 FFF7FEFF 		bl	chIQPutI
 454 0014 0028     		cmp	r0, #0
 455 0016 0BDB     		blt	.L20
 456              	.L15:
 457 0018 70BD     		pop	{r4, r5, r6, pc}
 458              	.LVL36:
 459              	.L19:
 460              		.loc 1 219 0
 461 001a 0430     		adds	r0, r0, #4
 462 001c 0421     		movs	r1, #4
 463              	.LVL37:
 464 001e FFF7FEFF 		bl	chEvtBroadcastFlagsI
 465              		.loc 1 220 0
 466 0022 04F10C00 		add	r0, r4, #12
 467 0026 2946     		mov	r1, r5
 468 0028 FFF7FEFF 		bl	chIQPutI
 469 002c 0028     		cmp	r0, #0
 470 002e F3DA     		bge	.L15
 471              	.L20:
 472              		.loc 1 221 0
 473 0030 201D     		adds	r0, r4, #4
 474 0032 8021     		movs	r1, #128
 475              		.loc 1 222 0
 476 0034 BDE87040 		pop	{r4, r5, r6, lr}
 477              		.loc 1 221 0
 478 0038 FFF7FEBF 		b	chEvtBroadcastFlagsI
 479              		.cfi_endproc
 480              	.LFE75:
 481              		.size	sdIncomingDataI, .-sdIncomingDataI
 482 003c AFF30080 		.section	.text.sdRequestDataI,"ax",%progbits
 483              		.align	2
 484              		.p2align 4,,15
 485              		.global	sdRequestDataI
 486              		.thumb
 487              		.thumb_func
 488              		.type	sdRequestDataI, %function
 489              	sdRequestDataI:
 490              	.LFB76:
 491              		.loc 1 239 0
 492              		.cfi_startproc
 493              		@ args = 0, pretend = 0, frame = 0
 494              		@ frame_needed = 0, uses_anonymous_args = 0
ARM GAS  C:\DOCUME~1\z_80\LOCALS~1\Temp\cc2vLIRL.s 			page 10


 495              	.LVL38:
 496 0000 38B5     		push	{r3, r4, r5, lr}
 497              	.LCFI5:
 498              		.cfi_def_cfa_offset 16
 499              		.loc 1 239 0
 500 0002 0546     		mov	r5, r0
 501              		.cfi_offset 14, -4
 502              		.cfi_offset 5, -8
 503              		.cfi_offset 4, -12
 504              		.cfi_offset 3, -16
 505              		.loc 1 245 0
 506 0004 3030     		adds	r0, r0, #48
 507              	.LVL39:
 508 0006 FFF7FEFF 		bl	chOQGetI
 509              	.LVL40:
 510              		.loc 1 246 0
 511 000a 041E     		subs	r4, r0, #0
 512 000c 01DB     		blt	.L23
 513              		.loc 1 249 0
 514 000e 2046     		mov	r0, r4
 515 0010 38BD     		pop	{r3, r4, r5, pc}
 516              	.L23:
 517              		.loc 1 247 0
 518 0012 281D     		adds	r0, r5, #4
 519              	.LVL41:
 520 0014 0821     		movs	r1, #8
 521 0016 FFF7FEFF 		bl	chEvtBroadcastFlagsI
 522              		.loc 1 249 0
 523 001a 2046     		mov	r0, r4
 524 001c 38BD     		pop	{r3, r4, r5, pc}
 525              		.cfi_endproc
 526              	.LFE76:
 527              		.size	sdRequestDataI, .-sdRequestDataI
 528 001e 00BF     		.section	.rodata.vmt,"a",%progbits
 529              		.align	2
 530              		.set	.LANCHOR0,. + 0
 531              		.type	vmt, %object
 532              		.size	vmt, 32
 533              	vmt:
 534 0000 00000000 		.word	write
 535 0004 00000000 		.word	read
 536 0008 00000000 		.word	put
 537 000c 00000000 		.word	get
 538 0010 00000000 		.word	putt
 539 0014 00000000 		.word	gett
 540 0018 00000000 		.word	writet
 541 001c 00000000 		.word	readt
 542              		.text
 543              	.Letext0: