ARM GAS  C:\DOCUME~1\z_80\LOCALS~1\Temp\cctp207y.s 			page 1


   1              		.syntax unified
   2              		.cpu cortex-m3
   3              		.fpu softvfp
   4              		.eabi_attribute 20, 1
   5              		.eabi_attribute 21, 1
   6              		.eabi_attribute 23, 3
   7              		.eabi_attribute 24, 1
   8              		.eabi_attribute 25, 1
   9              		.eabi_attribute 26, 1
  10              		.eabi_attribute 30, 2
  11              		.eabi_attribute 18, 4
  12              		.thumb
  13              		.file	"testmtx.c"
  20 0000 A7040000 		.text
  20      02006701 
  20      00000201 
  20      FB0E0D00 
  20      01010101 
  21              	.Ltext0:
  22              		.cfi_sections	.debug_frame
  23              		.section	.text.mtx8_execute,"ax",%progbits
  24              		.align	2
  25              		.p2align 4,,15
  26              		.thumb
  27              		.thumb_func
  28              		.type	mtx8_execute, %function
  29              	mtx8_execute:
  30              	.LFB36:
  31              		.file 1 "../chibios_2.6.3/test/testmtx.c"
  32              		.loc 1 596 0
  33              		.cfi_startproc
  34              		@ args = 0, pretend = 0, frame = 0
  35              		@ frame_needed = 0, uses_anonymous_args = 0
  36              		.loc 1 598 0
  37 0000 1B48     		ldr	r0, .L2
  38              		.loc 1 596 0
  39 0002 F0B5     		push	{r4, r5, r6, r7, lr}
  40              	.LCFI0:
  41              		.cfi_def_cfa_offset 20
  42              		.loc 1 598 0
  43 0004 8369     		ldr	r3, [r0, #24]
  44              		.loc 1 599 0
  45 0006 1B4E     		ldr	r6, .L2+4
  46              		.cfi_offset 14, -4
  47              		.cfi_offset 7, -8
  48              		.cfi_offset 6, -12
  49              		.cfi_offset 5, -16
  50              		.cfi_offset 4, -20
  51              		.loc 1 598 0
  52 0008 9D68     		ldr	r5, [r3, #8]
  53              	.LVL0:
ARM GAS  C:\DOCUME~1\z_80\LOCALS~1\Temp\cctp207y.s 			page 2


  54              		.loc 1 599 0
  55 000a 1B4C     		ldr	r4, .L2+8
  56              		.loc 1 596 0
  57 000c 83B0     		sub	sp, sp, #12
  58              	.LCFI1:
  59              		.cfi_def_cfa_offset 32
  60              		.loc 1 599 0
  61 000e 6A1C     		adds	r2, r5, #1
  62 0010 3068     		ldr	r0, [r6, #0]
  63              	.LVL1:
  64 0012 4FF49871 		mov	r1, #304
  65 0016 194B     		ldr	r3, .L2+12
  66              	.LVL2:
  67 0018 0094     		str	r4, [sp, #0]
  68 001a FFF7FEFF 		bl	chThdCreateStatic
  69 001e 184C     		ldr	r4, .L2+16
  70              		.loc 1 600 0
  71 0020 7768     		ldr	r7, [r6, #4]
  72              		.loc 1 599 0
  73 0022 2060     		str	r0, [r4, #0]
  74              		.loc 1 600 0
  75 0024 3846     		mov	r0, r7
  76 0026 174F     		ldr	r7, .L2+20
  77 0028 AA1C     		adds	r2, r5, #2
  78 002a 4FF49871 		mov	r1, #304
  79 002e 164B     		ldr	r3, .L2+24
  80 0030 0097     		str	r7, [sp, #0]
  81 0032 FFF7FEFF 		bl	chThdCreateStatic
  82              		.loc 1 601 0
  83 0036 B668     		ldr	r6, [r6, #8]
  84 0038 EA1C     		adds	r2, r5, #3
  85 003a 144D     		ldr	r5, .L2+28
  86              	.LVL3:
  87 003c 4FF49871 		mov	r1, #304
  88 0040 134B     		ldr	r3, .L2+32
  89              		.loc 1 600 0
  90 0042 6060     		str	r0, [r4, #4]
  91              		.loc 1 601 0
  92 0044 3046     		mov	r0, r6
  93 0046 0095     		str	r5, [sp, #0]
  94 0048 FFF7FEFF 		bl	chThdCreateStatic
  95              	.LVL4:
  96              		.loc 1 602 0
  97 004c 114D     		ldr	r5, .L2+36
  98              		.loc 1 601 0
  99 004e A060     		str	r0, [r4, #8]
 100              		.loc 1 602 0
 101 0050 2846     		mov	r0, r5
 102 0052 FFF7FEFF 		bl	chCondSignal
 103              		.loc 1 603 0
 104 0056 2846     		mov	r0, r5
 105 0058 FFF7FEFF 		bl	chCondSignal
 106              		.loc 1 604 0
 107 005c FFF7FEFF 		bl	test_wait_threads
 108              		.loc 1 605 0
 109 0060 0D49     		ldr	r1, .L2+40
 110 0062 0120     		movs	r0, #1
ARM GAS  C:\DOCUME~1\z_80\LOCALS~1\Temp\cctp207y.s 			page 3


 111              		.loc 1 606 0
 112 0064 03B0     		add	sp, sp, #12
 113 0066 BDE8F040 		pop	{r4, r5, r6, r7, lr}
 114              		.loc 1 605 0
 115 006a FFF7FEBF 		b	_test_assert_sequence
 116              	.L3:
 117 006e 00BF     		.align	2
 118              	.L2:
 119 0070 00000000 		.word	rlist
 120 0074 00000000 		.word	wa
 121 0078 00000000 		.word	.LC0
 122 007c 00000000 		.word	thread11
 123 0080 00000000 		.word	threads
 124 0084 04000000 		.word	.LC1
 125 0088 00000000 		.word	thread10
 126 008c 08000000 		.word	.LC2
 127 0090 00000000 		.word	thread12
 128 0094 00000000 		.word	.LANCHOR0
 129 0098 0C000000 		.word	.LC3
 130              		.cfi_endproc
 131              	.LFE36:
 132              		.size	mtx8_execute, .-mtx8_execute
 133 009c AFF30080 		.section	.text.thread12,"ax",%progbits
 134              		.align	2
 135              		.p2align 4,,15
 136              		.thumb
 137              		.thumb_func
 138              		.type	thread12, %function
 139              	thread12:
 140              	.LFB35:
 141              		.loc 1 588 0
 142              		.cfi_startproc
 143              		@ args = 0, pretend = 0, frame = 0
 144              		@ frame_needed = 0, uses_anonymous_args = 0
 145              	.LVL5:
 146 0000 10B5     		push	{r4, lr}
 147              	.LCFI2:
 148              		.cfi_def_cfa_offset 8
 149              		.loc 1 588 0
 150 0002 0446     		mov	r4, r0
 151              		.cfi_offset 14, -4
 152              		.cfi_offset 4, -8
 153              		.loc 1 590 0
 154 0004 0448     		ldr	r0, .L5
 155              	.LVL6:
 156 0006 FFF7FEFF 		bl	chMtxLock
 157              		.loc 1 591 0
 158 000a 2078     		ldrb	r0, [r4, #0]	@ zero_extendqisi2
 159 000c FFF7FEFF 		bl	test_emit_token
 160              		.loc 1 592 0
 161 0010 FFF7FEFF 		bl	chMtxUnlock
 162              		.loc 1 594 0
 163 0014 0020     		movs	r0, #0
 164 0016 10BD     		pop	{r4, pc}
 165              	.L6:
 166              		.align	2
 167              	.L5:
ARM GAS  C:\DOCUME~1\z_80\LOCALS~1\Temp\cctp207y.s 			page 4


 168 0018 00000000 		.word	.LANCHOR1
 169              		.cfi_endproc
 170              	.LFE35:
 171              		.size	thread12, .-thread12
 172 001c AFF30080 		.section	.text.thread1,"ax",%progbits
 173              		.align	2
 174              		.p2align 4,,15
 175              		.thumb
 176              		.thumb_func
 177              		.type	thread1, %function
 178              	thread1:
 179              	.LFB8:
 180              		.loc 1 89 0
 181              		.cfi_startproc
 182              		@ args = 0, pretend = 0, frame = 0
 183              		@ frame_needed = 0, uses_anonymous_args = 0
 184              	.LVL7:
 185 0000 10B5     		push	{r4, lr}
 186              	.LCFI3:
 187              		.cfi_def_cfa_offset 8
 188              		.loc 1 89 0
 189 0002 0446     		mov	r4, r0
 190              		.cfi_offset 14, -4
 191              		.cfi_offset 4, -8
 192              		.loc 1 91 0
 193 0004 0448     		ldr	r0, .L8
 194              	.LVL8:
 195 0006 FFF7FEFF 		bl	chMtxLock
 196              		.loc 1 92 0
 197 000a 2078     		ldrb	r0, [r4, #0]	@ zero_extendqisi2
 198 000c FFF7FEFF 		bl	test_emit_token
 199              		.loc 1 93 0
 200 0010 FFF7FEFF 		bl	chMtxUnlock
 201              		.loc 1 95 0
 202 0014 0020     		movs	r0, #0
 203 0016 10BD     		pop	{r4, pc}
 204              	.L9:
 205              		.align	2
 206              	.L8:
 207 0018 00000000 		.word	.LANCHOR2
 208              		.cfi_endproc
 209              	.LFE8:
 210              		.size	thread1, .-thread1
 211 001c AFF30080 		.section	.text.thread10,"ax",%progbits
 212              		.align	2
 213              		.p2align 4,,15
 214              		.thumb
 215              		.thumb_func
 216              		.type	thread10, %function
 217              	thread10:
 218              	.LFB29:
 219              		.loc 1 485 0
 220              		.cfi_startproc
 221              		@ args = 0, pretend = 0, frame = 0
 222              		@ frame_needed = 0, uses_anonymous_args = 0
 223              	.LVL9:
 224 0000 10B5     		push	{r4, lr}
ARM GAS  C:\DOCUME~1\z_80\LOCALS~1\Temp\cctp207y.s 			page 5


 225              	.LCFI4:
 226              		.cfi_def_cfa_offset 8
 227              		.loc 1 485 0
 228 0002 0446     		mov	r4, r0
 229              		.cfi_offset 14, -4
 230              		.cfi_offset 4, -8
 231              		.loc 1 487 0
 232 0004 0648     		ldr	r0, .L11
 233              	.LVL10:
 234 0006 FFF7FEFF 		bl	chMtxLock
 235              		.loc 1 488 0
 236 000a 0648     		ldr	r0, .L11+4
 237 000c FFF7FEFF 		bl	chCondWait
 238              		.loc 1 489 0
 239 0010 2078     		ldrb	r0, [r4, #0]	@ zero_extendqisi2
 240 0012 FFF7FEFF 		bl	test_emit_token
 241              		.loc 1 490 0
 242 0016 FFF7FEFF 		bl	chMtxUnlock
 243              		.loc 1 492 0
 244 001a 0020     		movs	r0, #0
 245 001c 10BD     		pop	{r4, pc}
 246              	.L12:
 247 001e 00BF     		.align	2
 248              	.L11:
 249 0020 00000000 		.word	.LANCHOR2
 250 0024 00000000 		.word	.LANCHOR0
 251              		.cfi_endproc
 252              	.LFE29:
 253              		.size	thread10, .-thread10
 254 0028 AFF30080 		.section	.text.thread11,"ax",%progbits
 254      AFF30080 
 255              		.align	2
 256              		.p2align 4,,15
 257              		.thumb
 258              		.thumb_func
 259              		.type	thread11, %function
 260              	thread11:
 261              	.LFB34:
 262              		.loc 1 573 0
 263              		.cfi_startproc
 264              		@ args = 0, pretend = 0, frame = 0
 265              		@ frame_needed = 0, uses_anonymous_args = 0
 266              	.LVL11:
 267 0000 10B5     		push	{r4, lr}
 268              	.LCFI5:
 269              		.cfi_def_cfa_offset 8
 270              		.loc 1 573 0
 271 0002 0446     		mov	r4, r0
 272              		.cfi_offset 14, -4
 273              		.cfi_offset 4, -8
 274              		.loc 1 575 0
 275 0004 0948     		ldr	r0, .L14
 276              	.LVL12:
 277 0006 FFF7FEFF 		bl	chMtxLock
 278              		.loc 1 576 0
 279 000a 0948     		ldr	r0, .L14+4
 280 000c FFF7FEFF 		bl	chMtxLock
ARM GAS  C:\DOCUME~1\z_80\LOCALS~1\Temp\cctp207y.s 			page 6


 281              		.loc 1 578 0
 282 0010 4FF0FF31 		mov	r1, #-1
 283 0014 0748     		ldr	r0, .L14+8
 284 0016 FFF7FEFF 		bl	chCondWaitTimeout
 285              		.loc 1 582 0
 286 001a 2078     		ldrb	r0, [r4, #0]	@ zero_extendqisi2
 287 001c FFF7FEFF 		bl	test_emit_token
 288              		.loc 1 583 0
 289 0020 FFF7FEFF 		bl	chMtxUnlock
 290              		.loc 1 584 0
 291 0024 FFF7FEFF 		bl	chMtxUnlock
 292              		.loc 1 586 0
 293 0028 0020     		movs	r0, #0
 294 002a 10BD     		pop	{r4, pc}
 295              	.L15:
 296              		.align	2
 297              	.L14:
 298 002c 00000000 		.word	.LANCHOR1
 299 0030 00000000 		.word	.LANCHOR2
 300 0034 00000000 		.word	.LANCHOR0
 301              		.cfi_endproc
 302              	.LFE34:
 303              		.size	thread11, .-thread11
 304 0038 AFF30080 		.section	.text.mtx8_setup,"ax",%progbits
 304      AFF30080 
 305              		.align	2
 306              		.p2align 4,,15
 307              		.thumb
 308              		.thumb_func
 309              		.type	mtx8_setup, %function
 310              	mtx8_setup:
 311              	.LFB33:
 312              		.loc 1 566 0
 313              		.cfi_startproc
 314              		@ args = 0, pretend = 0, frame = 0
 315              		@ frame_needed = 0, uses_anonymous_args = 0
 316 0000 10B5     		push	{r4, lr}
 317              	.LCFI6:
 318              		.cfi_def_cfa_offset 8
 319              		.loc 1 568 0
 320 0002 0548     		ldr	r0, .L17
 321              		.cfi_offset 14, -4
 322              		.cfi_offset 4, -8
 323 0004 FFF7FEFF 		bl	chCondInit
 324              		.loc 1 569 0
 325 0008 0448     		ldr	r0, .L17+4
 326 000a FFF7FEFF 		bl	chMtxInit
 327              		.loc 1 570 0
 328 000e 0448     		ldr	r0, .L17+8
 329              		.loc 1 571 0
 330 0010 BDE81040 		pop	{r4, lr}
 331              		.loc 1 570 0
 332 0014 FFF7FEBF 		b	chMtxInit
 333              	.L18:
 334              		.align	2
 335              	.L17:
 336 0018 00000000 		.word	.LANCHOR0
ARM GAS  C:\DOCUME~1\z_80\LOCALS~1\Temp\cctp207y.s 			page 7


 337 001c 00000000 		.word	.LANCHOR2
 338 0020 00000000 		.word	.LANCHOR1
 339              		.cfi_endproc
 340              	.LFE33:
 341              		.size	mtx8_setup, .-mtx8_setup
 342 0024 AFF30080 		.section	.text.mtx7_setup,"ax",%progbits
 342      AFF30080 
 342      AFF30080 
 343              		.align	2
 344              		.p2align 4,,15
 345              		.thumb
 346              		.thumb_func
 347              		.type	mtx7_setup, %function
 348              	mtx7_setup:
 349              	.LFB31:
 350              		.loc 1 531 0
 351              		.cfi_startproc
 352              		@ args = 0, pretend = 0, frame = 0
 353              		@ frame_needed = 0, uses_anonymous_args = 0
 354 0000 10B5     		push	{r4, lr}
 355              	.LCFI7:
 356              		.cfi_def_cfa_offset 8
 357              		.loc 1 533 0
 358 0002 0448     		ldr	r0, .L20
 359              		.cfi_offset 14, -4
 360              		.cfi_offset 4, -8
 361 0004 FFF7FEFF 		bl	chCondInit
 362              		.loc 1 534 0
 363 0008 0348     		ldr	r0, .L20+4
 364              		.loc 1 535 0
 365 000a BDE81040 		pop	{r4, lr}
 366              		.loc 1 534 0
 367 000e FFF7FEBF 		b	chMtxInit
 368              	.L21:
 369 0012 00BF     		.align	2
 370              	.L20:
 371 0014 00000000 		.word	.LANCHOR0
 372 0018 00000000 		.word	.LANCHOR2
 373              		.cfi_endproc
 374              	.LFE31:
 375              		.size	mtx7_setup, .-mtx7_setup
 376 001c AFF30080 		.section	.text.mtx6_setup,"ax",%progbits
 377              		.align	2
 378              		.p2align 4,,15
 379              		.thumb
 380              		.thumb_func
 381              		.type	mtx6_setup, %function
 382              	mtx6_setup:
 383              	.LFB28:
 384              		.loc 1 479 0
 385              		.cfi_startproc
 386              		@ args = 0, pretend = 0, frame = 0
 387              		@ frame_needed = 0, uses_anonymous_args = 0
 388 0000 10B5     		push	{r4, lr}
 389              	.LCFI8:
 390              		.cfi_def_cfa_offset 8
 391              		.loc 1 481 0
ARM GAS  C:\DOCUME~1\z_80\LOCALS~1\Temp\cctp207y.s 			page 8


 392 0002 0448     		ldr	r0, .L23
 393              		.cfi_offset 14, -4
 394              		.cfi_offset 4, -8
 395 0004 FFF7FEFF 		bl	chCondInit
 396              		.loc 1 482 0
 397 0008 0348     		ldr	r0, .L23+4
 398              		.loc 1 483 0
 399 000a BDE81040 		pop	{r4, lr}
 400              		.loc 1 482 0
 401 000e FFF7FEBF 		b	chMtxInit
 402              	.L24:
 403 0012 00BF     		.align	2
 404              	.L23:
 405 0014 00000000 		.word	.LANCHOR0
 406 0018 00000000 		.word	.LANCHOR2
 407              		.cfi_endproc
 408              	.LFE28:
 409              		.size	mtx6_setup, .-mtx6_setup
 410 001c AFF30080 		.section	.text.mtx5_setup,"ax",%progbits
 411              		.align	2
 412              		.p2align 4,,15
 413              		.thumb
 414              		.thumb_func
 415              		.type	mtx5_setup, %function
 416              	mtx5_setup:
 417              	.LFB26:
 418              		.loc 1 429 0
 419              		.cfi_startproc
 420              		@ args = 0, pretend = 0, frame = 0
 421              		@ frame_needed = 0, uses_anonymous_args = 0
 422              		@ link register save eliminated.
 423              		.loc 1 431 0
 424 0000 0148     		ldr	r0, .L26
 425              		.loc 1 432 0
 426              		.loc 1 431 0
 427 0002 FFF7FEBF 		b	chMtxInit
 428              	.L27:
 429 0006 00BF     		.align	2
 430              	.L26:
 431 0008 00000000 		.word	.LANCHOR2
 432              		.cfi_endproc
 433              	.LFE26:
 434              		.size	mtx5_setup, .-mtx5_setup
 435 000c AFF30080 		.section	.text.mtx4_setup,"ax",%progbits
 436              		.align	2
 437              		.p2align 4,,15
 438              		.thumb
 439              		.thumb_func
 440              		.type	mtx4_setup, %function
 441              	mtx4_setup:
 442              	.LFB22:
 443              		.loc 1 341 0
 444              		.cfi_startproc
 445              		@ args = 0, pretend = 0, frame = 0
 446              		@ frame_needed = 0, uses_anonymous_args = 0
 447 0000 10B5     		push	{r4, lr}
 448              	.LCFI9:
ARM GAS  C:\DOCUME~1\z_80\LOCALS~1\Temp\cctp207y.s 			page 9


 449              		.cfi_def_cfa_offset 8
 450              		.loc 1 343 0
 451 0002 0448     		ldr	r0, .L29
 452              		.cfi_offset 14, -4
 453              		.cfi_offset 4, -8
 454 0004 FFF7FEFF 		bl	chMtxInit
 455              		.loc 1 344 0
 456 0008 0348     		ldr	r0, .L29+4
 457              		.loc 1 345 0
 458 000a BDE81040 		pop	{r4, lr}
 459              		.loc 1 344 0
 460 000e FFF7FEBF 		b	chMtxInit
 461              	.L30:
 462 0012 00BF     		.align	2
 463              	.L29:
 464 0014 00000000 		.word	.LANCHOR2
 465 0018 00000000 		.word	.LANCHOR1
 466              		.cfi_endproc
 467              	.LFE22:
 468              		.size	mtx4_setup, .-mtx4_setup
 469 001c AFF30080 		.section	.text.mtx3_setup,"ax",%progbits
 470              		.align	2
 471              		.p2align 4,,15
 472              		.thumb
 473              		.thumb_func
 474              		.type	mtx3_setup, %function
 475              	mtx3_setup:
 476              	.LFB15:
 477              		.loc 1 241 0
 478              		.cfi_startproc
 479              		@ args = 0, pretend = 0, frame = 0
 480              		@ frame_needed = 0, uses_anonymous_args = 0
 481 0000 10B5     		push	{r4, lr}
 482              	.LCFI10:
 483              		.cfi_def_cfa_offset 8
 484              		.loc 1 243 0
 485 0002 0448     		ldr	r0, .L32
 486              		.cfi_offset 14, -4
 487              		.cfi_offset 4, -8
 488 0004 FFF7FEFF 		bl	chMtxInit
 489              		.loc 1 244 0
 490 0008 0348     		ldr	r0, .L32+4
 491              		.loc 1 245 0
 492 000a BDE81040 		pop	{r4, lr}
 493              		.loc 1 244 0
 494 000e FFF7FEBF 		b	chMtxInit
 495              	.L33:
 496 0012 00BF     		.align	2
 497              	.L32:
 498 0014 00000000 		.word	.LANCHOR2
 499 0018 00000000 		.word	.LANCHOR1
 500              		.cfi_endproc
 501              	.LFE15:
 502              		.size	mtx3_setup, .-mtx3_setup
 503 001c AFF30080 		.section	.text.mtx2_setup,"ax",%progbits
 504              		.align	2
 505              		.p2align 4,,15
ARM GAS  C:\DOCUME~1\z_80\LOCALS~1\Temp\cctp207y.s 			page 10


 506              		.thumb
 507              		.thumb_func
 508              		.type	mtx2_setup, %function
 509              	mtx2_setup:
 510              	.LFB10:
 511              		.loc 1 151 0
 512              		.cfi_startproc
 513              		@ args = 0, pretend = 0, frame = 0
 514              		@ frame_needed = 0, uses_anonymous_args = 0
 515              		@ link register save eliminated.
 516              		.loc 1 153 0
 517 0000 0148     		ldr	r0, .L35
 518              		.loc 1 154 0
 519              		.loc 1 153 0
 520 0002 FFF7FEBF 		b	chMtxInit
 521              	.L36:
 522 0006 00BF     		.align	2
 523              	.L35:
 524 0008 00000000 		.word	.LANCHOR2
 525              		.cfi_endproc
 526              	.LFE10:
 527              		.size	mtx2_setup, .-mtx2_setup
 528 000c AFF30080 		.section	.text.mtx1_setup,"ax",%progbits
 529              		.align	2
 530              		.p2align 4,,15
 531              		.thumb
 532              		.thumb_func
 533              		.type	mtx1_setup, %function
 534              	mtx1_setup:
 535              	.LFB7:
 536              		.loc 1 84 0
 537              		.cfi_startproc
 538              		@ args = 0, pretend = 0, frame = 0
 539              		@ frame_needed = 0, uses_anonymous_args = 0
 540              		@ link register save eliminated.
 541              		.loc 1 86 0
 542 0000 0148     		ldr	r0, .L38
 543              		.loc 1 87 0
 544              		.loc 1 86 0
 545 0002 FFF7FEBF 		b	chMtxInit
 546              	.L39:
 547 0006 00BF     		.align	2
 548              	.L38:
 549 0008 00000000 		.word	.LANCHOR2
 550              		.cfi_endproc
 551              	.LFE7:
 552              		.size	mtx1_setup, .-mtx1_setup
 553 000c AFF30080 		.section	.text.mtx7_execute,"ax",%progbits
 554              		.align	2
 555              		.p2align 4,,15
 556              		.thumb
 557              		.thumb_func
 558              		.type	mtx7_execute, %function
 559              	mtx7_execute:
 560              	.LFB32:
 561              		.loc 1 537 0
 562              		.cfi_startproc
ARM GAS  C:\DOCUME~1\z_80\LOCALS~1\Temp\cctp207y.s 			page 11


 563              		@ args = 0, pretend = 0, frame = 0
 564              		@ frame_needed = 0, uses_anonymous_args = 0
 565              		.loc 1 539 0
 566 0000 2948     		ldr	r0, .L41
 567              		.loc 1 537 0
 568 0002 F0B5     		push	{r4, r5, r6, r7, lr}
 569              	.LCFI11:
 570              		.cfi_def_cfa_offset 20
 571              		.loc 1 539 0
 572 0004 8369     		ldr	r3, [r0, #24]
 573              		.loc 1 540 0
 574 0006 294D     		ldr	r5, .L41+4
 575              		.cfi_offset 14, -4
 576              		.cfi_offset 7, -8
 577              		.cfi_offset 6, -12
 578              		.cfi_offset 5, -16
 579              		.cfi_offset 4, -20
 580              		.loc 1 539 0
 581 0008 9E68     		ldr	r6, [r3, #8]
 582              	.LVL13:
 583              		.loc 1 540 0
 584 000a 294F     		ldr	r7, .L41+8
 585 000c 294C     		ldr	r4, .L41+12
 586              		.loc 1 537 0
 587 000e 83B0     		sub	sp, sp, #12
 588              	.LCFI12:
 589              		.cfi_def_cfa_offset 32
 590              		.loc 1 540 0
 591 0010 721C     		adds	r2, r6, #1
 592 0012 2B46     		mov	r3, r5
 593 0014 3868     		ldr	r0, [r7, #0]
 594              	.LVL14:
 595 0016 4FF49871 		mov	r1, #304
 596 001a 0094     		str	r4, [sp, #0]
 597 001c FFF7FEFF 		bl	chThdCreateStatic
 598 0020 254C     		ldr	r4, .L41+16
 599              		.loc 1 541 0
 600 0022 D7F804C0 		ldr	ip, [r7, #4]
 601 0026 DFF8A0E0 		ldr	lr, .L41+32
 602              		.loc 1 540 0
 603 002a 2060     		str	r0, [r4, #0]
 604              		.loc 1 541 0
 605 002c B21C     		adds	r2, r6, #2
 606 002e 2B46     		mov	r3, r5
 607 0030 4FF49871 		mov	r1, #304
 608 0034 6046     		mov	r0, ip
 609 0036 CDF800E0 		str	lr, [sp, #0]
 610 003a FFF7FEFF 		bl	chThdCreateStatic
 611              		.loc 1 542 0
 612 003e D7F808C0 		ldr	ip, [r7, #8]
 613 0042 DFF888E0 		ldr	lr, .L41+36
 614              		.loc 1 541 0
 615 0046 6060     		str	r0, [r4, #4]
 616              		.loc 1 542 0
 617 0048 F21C     		adds	r2, r6, #3
 618 004a 2B46     		mov	r3, r5
 619 004c 4FF49871 		mov	r1, #304
ARM GAS  C:\DOCUME~1\z_80\LOCALS~1\Temp\cctp207y.s 			page 12


 620 0050 6046     		mov	r0, ip
 621 0052 CDF800E0 		str	lr, [sp, #0]
 622 0056 FFF7FEFF 		bl	chThdCreateStatic
 623              		.loc 1 543 0
 624 005a D7F80CC0 		ldr	ip, [r7, #12]
 625 005e DFF870E0 		ldr	lr, .L41+40
 626              		.loc 1 542 0
 627 0062 A060     		str	r0, [r4, #8]
 628              		.loc 1 543 0
 629 0064 321D     		adds	r2, r6, #4
 630 0066 6046     		mov	r0, ip
 631 0068 2B46     		mov	r3, r5
 632 006a 4FF49871 		mov	r1, #304
 633 006e CDF800E0 		str	lr, [sp, #0]
 634 0072 FFF7FEFF 		bl	chThdCreateStatic
 635              		.loc 1 544 0
 636 0076 3F69     		ldr	r7, [r7, #16]
 637 0078 2B46     		mov	r3, r5
 638 007a 104D     		ldr	r5, .L41+20
 639 007c 4FF49871 		mov	r1, #304
 640 0080 721D     		adds	r2, r6, #5
 641              		.loc 1 543 0
 642 0082 E060     		str	r0, [r4, #12]
 643              		.loc 1 544 0
 644 0084 3846     		mov	r0, r7
 645 0086 0095     		str	r5, [sp, #0]
 646 0088 FFF7FEFF 		bl	chThdCreateStatic
 647 008c 2061     		str	r0, [r4, #16]
 648              		.loc 1 545 0
 649 008e 0C48     		ldr	r0, .L41+24
 650 0090 FFF7FEFF 		bl	chCondBroadcast
 651              		.loc 1 546 0
 652 0094 FFF7FEFF 		bl	test_wait_threads
 653              		.loc 1 547 0
 654 0098 0A49     		ldr	r1, .L41+28
 655 009a 0120     		movs	r0, #1
 656              		.loc 1 548 0
 657 009c 03B0     		add	sp, sp, #12
 658 009e BDE8F040 		pop	{r4, r5, r6, r7, lr}
 659              		.loc 1 547 0
 660 00a2 FFF7FEBF 		b	_test_assert_sequence
 661              	.L42:
 662 00a6 00BF     		.align	2
 663              	.L41:
 664 00a8 00000000 		.word	rlist
 665 00ac 00000000 		.word	thread10
 666 00b0 00000000 		.word	wa
 667 00b4 10000000 		.word	.LC4
 668 00b8 00000000 		.word	threads
 669 00bc 00000000 		.word	.LC0
 670 00c0 00000000 		.word	.LANCHOR0
 671 00c4 18000000 		.word	.LC6
 672 00c8 14000000 		.word	.LC5
 673 00cc 04000000 		.word	.LC1
 674 00d0 08000000 		.word	.LC2
 675              		.cfi_endproc
 676              	.LFE32:
ARM GAS  C:\DOCUME~1\z_80\LOCALS~1\Temp\cctp207y.s 			page 13


 677              		.size	mtx7_execute, .-mtx7_execute
 678 00d4 AFF30080 		.section	.text.mtx6_execute,"ax",%progbits
 678      AFF30080 
 678      AFF30080 
 679              		.align	2
 680              		.p2align 4,,15
 681              		.thumb
 682              		.thumb_func
 683              		.type	mtx6_execute, %function
 684              	mtx6_execute:
 685              	.LFB30:
 686              		.loc 1 494 0
 687              		.cfi_startproc
 688              		@ args = 0, pretend = 0, frame = 0
 689              		@ frame_needed = 0, uses_anonymous_args = 0
 690              		.loc 1 496 0
 691 0000 3248     		ldr	r0, .L44
 692              		.loc 1 494 0
 693 0002 F0B5     		push	{r4, r5, r6, r7, lr}
 694              	.LCFI13:
 695              		.cfi_def_cfa_offset 20
 696              		.loc 1 496 0
 697 0004 8369     		ldr	r3, [r0, #24]
 698              		.loc 1 497 0
 699 0006 324F     		ldr	r7, .L44+4
 700              		.cfi_offset 14, -4
 701              		.cfi_offset 7, -8
 702              		.cfi_offset 6, -12
 703              		.cfi_offset 5, -16
 704              		.cfi_offset 4, -20
 705              		.loc 1 496 0
 706 0008 9D68     		ldr	r5, [r3, #8]
 707              	.LVL15:
 708              		.loc 1 497 0
 709 000a 324E     		ldr	r6, .L44+8
 710 000c 324C     		ldr	r4, .L44+12
 711              		.loc 1 494 0
 712 000e 83B0     		sub	sp, sp, #12
 713              	.LCFI14:
 714              		.cfi_def_cfa_offset 32
 715              		.loc 1 497 0
 716 0010 6A1C     		adds	r2, r5, #1
 717 0012 3346     		mov	r3, r6
 718 0014 3868     		ldr	r0, [r7, #0]
 719              	.LVL16:
 720 0016 4FF49871 		mov	r1, #304
 721 001a 0094     		str	r4, [sp, #0]
 722 001c FFF7FEFF 		bl	chThdCreateStatic
 723 0020 2E4C     		ldr	r4, .L44+16
 724              		.loc 1 498 0
 725 0022 7968     		ldr	r1, [r7, #4]
 726 0024 DFF8C4E0 		ldr	lr, .L44+32
 727              		.loc 1 497 0
 728 0028 2060     		str	r0, [r4, #0]
 729              		.loc 1 498 0
 730 002a AA1C     		adds	r2, r5, #2
 731 002c 3346     		mov	r3, r6
ARM GAS  C:\DOCUME~1\z_80\LOCALS~1\Temp\cctp207y.s 			page 14


 732 002e 0846     		mov	r0, r1
 733 0030 4FF49871 		mov	r1, #304
 734 0034 CDF800E0 		str	lr, [sp, #0]
 735 0038 FFF7FEFF 		bl	chThdCreateStatic
 736              		.loc 1 499 0
 737 003c B968     		ldr	r1, [r7, #8]
 738 003e DFF8B0C0 		ldr	ip, .L44+36
 739              		.loc 1 498 0
 740 0042 6060     		str	r0, [r4, #4]
 741              		.loc 1 499 0
 742 0044 EA1C     		adds	r2, r5, #3
 743 0046 3346     		mov	r3, r6
 744 0048 0846     		mov	r0, r1
 745 004a 4FF49871 		mov	r1, #304
 746 004e CDF800C0 		str	ip, [sp, #0]
 747 0052 FFF7FEFF 		bl	chThdCreateStatic
 748              		.loc 1 500 0
 749 0056 F968     		ldr	r1, [r7, #12]
 750 0058 DFF898E0 		ldr	lr, .L44+40
 751              		.loc 1 499 0
 752 005c A060     		str	r0, [r4, #8]
 753              		.loc 1 500 0
 754 005e 2A1D     		adds	r2, r5, #4
 755 0060 3346     		mov	r3, r6
 756 0062 0846     		mov	r0, r1
 757 0064 4FF49871 		mov	r1, #304
 758 0068 CDF800E0 		str	lr, [sp, #0]
 759 006c FFF7FEFF 		bl	chThdCreateStatic
 760              		.loc 1 501 0
 761 0070 3A69     		ldr	r2, [r7, #16]
 762              		.loc 1 500 0
 763 0072 E060     		str	r0, [r4, #12]
 764              		.loc 1 501 0
 765 0074 1046     		mov	r0, r2
 766 0076 6A1D     		adds	r2, r5, #5
 767 0078 194D     		ldr	r5, .L44+20
 768              	.LVL17:
 769 007a 3346     		mov	r3, r6
 770 007c 4FF49871 		mov	r1, #304
 771 0080 0095     		str	r5, [sp, #0]
 772 0082 FFF7FEFF 		bl	chThdCreateStatic
 773              	.LVL18:
 774              	.LBB2:
 775              		.loc 1 502 0
 776 0086 2023     		movs	r3, #32
 777              	.LVL19:
 778              	.LBE2:
 779              		.loc 1 501 0
 780 0088 2061     		str	r0, [r4, #16]
 781              	.LBB3:
 782              		.loc 1 502 0
 783              	@ 502 "../chibios_2.6.3/test/testmtx.c" 1
 784 008a 83F31188 		msr     BASEPRI, r3
 785              	@ 0 "" 2
 786              	.LVL20:
 787              		.thumb
 788              	.LBE3:
ARM GAS  C:\DOCUME~1\z_80\LOCALS~1\Temp\cctp207y.s 			page 15


 789              		.loc 1 503 0
 790 008e 154C     		ldr	r4, .L44+24
 791 0090 2046     		mov	r0, r4
 792 0092 FFF7FEFF 		bl	chCondSignalI
 793              	.LVL21:
 794              		.loc 1 504 0
 795 0096 2046     		mov	r0, r4
 796 0098 FFF7FEFF 		bl	chCondSignalI
 797              		.loc 1 505 0
 798 009c 2046     		mov	r0, r4
 799 009e FFF7FEFF 		bl	chCondSignalI
 800              		.loc 1 506 0
 801 00a2 2046     		mov	r0, r4
 802 00a4 FFF7FEFF 		bl	chCondSignalI
 803              		.loc 1 507 0
 804 00a8 2046     		mov	r0, r4
 805 00aa FFF7FEFF 		bl	chCondSignalI
 806              		.loc 1 508 0
 807 00ae FFF7FEFF 		bl	chSchRescheduleS
 808              	.LBB4:
 809              		.loc 1 509 0
 810 00b2 0023     		movs	r3, #0
 811              	.LVL22:
 812              	@ 509 "../chibios_2.6.3/test/testmtx.c" 1
 813 00b4 83F31188 		msr     BASEPRI, r3
 814              	@ 0 "" 2
 815              	.LVL23:
 816              		.thumb
 817              	.LBE4:
 818              		.loc 1 510 0
 819 00b8 FFF7FEFF 		bl	test_wait_threads
 820              	.LVL24:
 821              		.loc 1 511 0
 822 00bc 0A49     		ldr	r1, .L44+28
 823 00be 0120     		movs	r0, #1
 824              		.loc 1 512 0
 825 00c0 03B0     		add	sp, sp, #12
 826 00c2 BDE8F040 		pop	{r4, r5, r6, r7, lr}
 827              		.loc 1 511 0
 828 00c6 FFF7FEBF 		b	_test_assert_sequence
 829              	.L45:
 830 00ca 00BF     		.align	2
 831              	.L44:
 832 00cc 00000000 		.word	rlist
 833 00d0 00000000 		.word	wa
 834 00d4 00000000 		.word	thread10
 835 00d8 10000000 		.word	.LC4
 836 00dc 00000000 		.word	threads
 837 00e0 00000000 		.word	.LC0
 838 00e4 00000000 		.word	.LANCHOR0
 839 00e8 18000000 		.word	.LC6
 840 00ec 14000000 		.word	.LC5
 841 00f0 04000000 		.word	.LC1
 842 00f4 08000000 		.word	.LC2
 843              		.cfi_endproc
 844              	.LFE30:
 845              		.size	mtx6_execute, .-mtx6_execute
ARM GAS  C:\DOCUME~1\z_80\LOCALS~1\Temp\cctp207y.s 			page 16


 846 00f8 AFF30080 		.section	.text.mtx1_execute,"ax",%progbits
 846      AFF30080 
 847              		.align	2
 848              		.p2align 4,,15
 849              		.thumb
 850              		.thumb_func
 851              		.type	mtx1_execute, %function
 852              	mtx1_execute:
 853              	.LFB9:
 854              		.loc 1 97 0
 855              		.cfi_startproc
 856              		@ args = 0, pretend = 0, frame = 0
 857              		@ frame_needed = 0, uses_anonymous_args = 0
 858 0000 F0B5     		push	{r4, r5, r6, r7, lr}
 859              	.LCFI15:
 860              		.cfi_def_cfa_offset 20
 861              		.loc 1 99 0
 862 0002 2F4F     		ldr	r7, .L50
 863              		.cfi_offset 14, -4
 864              		.cfi_offset 7, -8
 865              		.cfi_offset 6, -12
 866              		.cfi_offset 5, -16
 867              		.cfi_offset 4, -20
 868              		.loc 1 101 0
 869 0004 2F4E     		ldr	r6, .L50+4
 870              		.loc 1 99 0
 871 0006 BC69     		ldr	r4, [r7, #24]
 872              		.loc 1 97 0
 873 0008 83B0     		sub	sp, sp, #12
 874              	.LCFI16:
 875              		.cfi_def_cfa_offset 32
 876              		.loc 1 99 0
 877 000a A468     		ldr	r4, [r4, #8]
 878              	.LVL25:
 879              		.loc 1 100 0
 880 000c 2E48     		ldr	r0, .L50+8
 881              		.loc 1 101 0
 882 000e 2F4D     		ldr	r5, .L50+12
 883              		.loc 1 100 0
 884 0010 FFF7FEFF 		bl	chMtxLock
 885              	.LVL26:
 886              		.loc 1 101 0
 887 0014 621C     		adds	r2, r4, #1
 888 0016 3068     		ldr	r0, [r6, #0]
 889 0018 4FF49871 		mov	r1, #304
 890 001c 2C4B     		ldr	r3, .L50+16
 891 001e 0095     		str	r5, [sp, #0]
 892 0020 FFF7FEFF 		bl	chThdCreateStatic
 893 0024 2B4D     		ldr	r5, .L50+20
 894              		.loc 1 102 0
 895 0026 D6F804C0 		ldr	ip, [r6, #4]
 896 002a DFF8B4E0 		ldr	lr, .L50+32
 897              		.loc 1 101 0
 898 002e 2860     		str	r0, [r5, #0]
 899              		.loc 1 102 0
 900 0030 A21C     		adds	r2, r4, #2
 901 0032 4FF49871 		mov	r1, #304
ARM GAS  C:\DOCUME~1\z_80\LOCALS~1\Temp\cctp207y.s 			page 17


 902 0036 264B     		ldr	r3, .L50+16
 903 0038 6046     		mov	r0, ip
 904 003a CDF800E0 		str	lr, [sp, #0]
 905 003e FFF7FEFF 		bl	chThdCreateStatic
 906              		.loc 1 103 0
 907 0042 D6F808C0 		ldr	ip, [r6, #8]
 908 0046 DFF89CE0 		ldr	lr, .L50+36
 909              		.loc 1 102 0
 910 004a 6860     		str	r0, [r5, #4]
 911              		.loc 1 103 0
 912 004c E21C     		adds	r2, r4, #3
 913 004e 4FF49871 		mov	r1, #304
 914 0052 1F4B     		ldr	r3, .L50+16
 915 0054 6046     		mov	r0, ip
 916 0056 CDF800E0 		str	lr, [sp, #0]
 917 005a FFF7FEFF 		bl	chThdCreateStatic
 918              		.loc 1 104 0
 919 005e D6F80CC0 		ldr	ip, [r6, #12]
 920 0062 DFF884E0 		ldr	lr, .L50+40
 921              		.loc 1 103 0
 922 0066 A860     		str	r0, [r5, #8]
 923              		.loc 1 104 0
 924 0068 221D     		adds	r2, r4, #4
 925 006a 6046     		mov	r0, ip
 926 006c 4FF49871 		mov	r1, #304
 927 0070 174B     		ldr	r3, .L50+16
 928 0072 CDF800E0 		str	lr, [sp, #0]
 929 0076 FFF7FEFF 		bl	chThdCreateStatic
 930              		.loc 1 105 0
 931 007a 3669     		ldr	r6, [r6, #16]
 932              		.loc 1 104 0
 933 007c E860     		str	r0, [r5, #12]
 934              		.loc 1 105 0
 935 007e 3046     		mov	r0, r6
 936 0080 154E     		ldr	r6, .L50+24
 937 0082 621D     		adds	r2, r4, #5
 938 0084 4FF49871 		mov	r1, #304
 939 0088 114B     		ldr	r3, .L50+16
 940 008a 0096     		str	r6, [sp, #0]
 941 008c FFF7FEFF 		bl	chThdCreateStatic
 942 0090 2861     		str	r0, [r5, #16]
 943              		.loc 1 106 0
 944 0092 FFF7FEFF 		bl	chMtxUnlock
 945              		.loc 1 107 0
 946 0096 FFF7FEFF 		bl	test_wait_threads
 947              		.loc 1 108 0
 948 009a B969     		ldr	r1, [r7, #24]
 949 009c 0120     		movs	r0, #1
 950 009e 8A68     		ldr	r2, [r1, #8]
 951 00a0 131B     		subs	r3, r2, r4
 952 00a2 5942     		rsbs	r1, r3, #0
 953 00a4 41EB0301 		adc	r1, r1, r3
 954 00a8 FFF7FEFF 		bl	_test_assert
 955 00ac 08B1     		cbz	r0, .L49
 956              		.loc 1 110 0
 957 00ae 03B0     		add	sp, sp, #12
 958 00b0 F0BD     		pop	{r4, r5, r6, r7, pc}
ARM GAS  C:\DOCUME~1\z_80\LOCALS~1\Temp\cctp207y.s 			page 18


 959              	.L49:
 960              		.loc 1 109 0
 961 00b2 0A49     		ldr	r1, .L50+28
 962 00b4 0220     		movs	r0, #2
 963              		.loc 1 110 0
 964 00b6 03B0     		add	sp, sp, #12
 965 00b8 BDE8F040 		pop	{r4, r5, r6, r7, lr}
 966              		.loc 1 109 0
 967 00bc FFF7FEBF 		b	_test_assert_sequence
 968              	.L51:
 969              		.align	2
 970              	.L50:
 971 00c0 00000000 		.word	rlist
 972 00c4 00000000 		.word	wa
 973 00c8 00000000 		.word	.LANCHOR2
 974 00cc 10000000 		.word	.LC4
 975 00d0 00000000 		.word	thread1
 976 00d4 00000000 		.word	threads
 977 00d8 00000000 		.word	.LC0
 978 00dc 18000000 		.word	.LC6
 979 00e0 14000000 		.word	.LC5
 980 00e4 04000000 		.word	.LC1
 981 00e8 08000000 		.word	.LC2
 982              		.cfi_endproc
 983              	.LFE9:
 984              		.size	mtx1_execute, .-mtx1_execute
 985 00ec AFF30080 		.section	.text.mtx5_execute,"ax",%progbits
 986              		.align	2
 987              		.p2align 4,,15
 988              		.thumb
 989              		.thumb_func
 990              		.type	mtx5_execute, %function
 991              	mtx5_execute:
 992              	.LFB27:
 993              		.loc 1 434 0
 994              		.cfi_startproc
 995              		@ args = 0, pretend = 0, frame = 0
 996              		@ frame_needed = 0, uses_anonymous_args = 0
 997 0000 2DE9F041 		push	{r4, r5, r6, r7, r8, lr}
 998              	.LCFI17:
 999              		.cfi_def_cfa_offset 24
 1000              		.loc 1 438 0
 1001 0004 2F4D     		ldr	r5, .L55
 1002              		.cfi_offset 14, -4
 1003              		.cfi_offset 8, -8
 1004              		.cfi_offset 7, -12
 1005              		.cfi_offset 6, -16
 1006              		.cfi_offset 5, -20
 1007              		.cfi_offset 4, -24
 1008              		.loc 1 440 0
 1009 0006 304C     		ldr	r4, .L55+4
 1010              		.loc 1 438 0
 1011 0008 AB69     		ldr	r3, [r5, #24]
 1012              		.loc 1 440 0
 1013 000a 2046     		mov	r0, r4
 1014              		.loc 1 438 0
 1015 000c 9E68     		ldr	r6, [r3, #8]
ARM GAS  C:\DOCUME~1\z_80\LOCALS~1\Temp\cctp207y.s 			page 19


 1016              	.LVL27:
 1017              		.loc 1 440 0
 1018 000e FFF7FEFF 		bl	chMtxTryLock
 1019              	.LVL28:
 1020 0012 0146     		mov	r1, r0
 1021              	.LVL29:
 1022              		.loc 1 441 0
 1023 0014 0120     		movs	r0, #1
 1024              	.LVL30:
 1025 0016 FFF7FEFF 		bl	_test_assert
 1026              	.LVL31:
 1027 001a 08B1     		cbz	r0, .L54
 1028              	.L52:
 1029 001c BDE8F081 		pop	{r4, r5, r6, r7, r8, pc}
 1030              	.L54:
 1031              		.loc 1 443 0
 1032 0020 2046     		mov	r0, r4
 1033 0022 FFF7FEFF 		bl	chMtxTryLock
 1034              	.LVL32:
 1035              		.loc 1 444 0
 1036 0026 D0F10101 		rsbs	r1, r0, #1
 1037 002a 38BF     		it	cc
 1038 002c 0021     		movcc	r1, #0
 1039 002e 0220     		movs	r0, #2
 1040              	.LVL33:
 1041 0030 FFF7FEFF 		bl	_test_assert
 1042 0034 0746     		mov	r7, r0
 1043 0036 0028     		cmp	r0, #0
 1044 0038 F0D1     		bne	.L52
 1045              	.LBB5:
 1046              		.loc 1 446 0
 1047 003a 2023     		movs	r3, #32
 1048              	.LVL34:
 1049              	@ 446 "../chibios_2.6.3/test/testmtx.c" 1
 1050 003c 83F31188 		msr     BASEPRI, r3
 1051              	@ 0 "" 2
 1052              	.LVL35:
 1053              		.thumb
 1054              	.LBE5:
 1055              		.loc 1 447 0
 1056 0040 FFF7FEFF 		bl	chMtxUnlockS
 1057              	.LVL36:
 1058              	.LBB6:
 1059              		.loc 1 448 0
 1060 0044 3B46     		mov	r3, r7
 1061              	.LVL37:
 1062              	@ 448 "../chibios_2.6.3/test/testmtx.c" 1
 1063 0046 83F31188 		msr     BASEPRI, r3
 1064              	@ 0 "" 2
 1065              	.LVL38:
 1066              		.thumb
 1067              	.LBE6:
 1068              		.loc 1 450 0
 1069 004a 2268     		ldr	r2, [r4, #0]
 1070 004c 0320     		movs	r0, #3
 1071 004e C4EB020C 		rsb	ip, r4, r2
 1072 0052 DCF10001 		rsbs	r1, ip, #0
ARM GAS  C:\DOCUME~1\z_80\LOCALS~1\Temp\cctp207y.s 			page 20


 1073 0056 41EB0C01 		adc	r1, r1, ip
 1074 005a FFF7FEFF 		bl	_test_assert
 1075              	.LVL39:
 1076 005e 0028     		cmp	r0, #0
 1077 0060 DCD1     		bne	.L52
 1078              		.loc 1 451 0
 1079 0062 A368     		ldr	r3, [r4, #8]
 1080 0064 0420     		movs	r0, #4
 1081 0066 D3F10101 		rsbs	r1, r3, #1
 1082 006a 38BF     		it	cc
 1083 006c 0021     		movcc	r1, #0
 1084 006e FFF7FEFF 		bl	_test_assert
 1085 0072 0028     		cmp	r0, #0
 1086 0074 D2D1     		bne	.L52
 1087              		.loc 1 452 0
 1088 0076 AB69     		ldr	r3, [r5, #24]
 1089 0078 0520     		movs	r0, #5
 1090 007a 9A68     		ldr	r2, [r3, #8]
 1091 007c C6EB020E 		rsb	lr, r6, r2
 1092 0080 DEF10001 		rsbs	r1, lr, #0
 1093 0084 41EB0E01 		adc	r1, r1, lr
 1094 0088 FFF7FEFF 		bl	_test_assert
 1095 008c 0028     		cmp	r0, #0
 1096 008e C5D1     		bne	.L52
 1097              		.loc 1 454 0
 1098 0090 2046     		mov	r0, r4
 1099 0092 FFF7FEFF 		bl	chMtxLock
 1100              		.loc 1 455 0
 1101 0096 FFF7FEFF 		bl	chMtxUnlockAll
 1102              		.loc 1 456 0
 1103 009a 2268     		ldr	r2, [r4, #0]
 1104 009c 0620     		movs	r0, #6
 1105 009e A11A     		subs	r1, r4, r2
 1106 00a0 D1F1000C 		rsbs	ip, r1, #0
 1107 00a4 4CEB0101 		adc	r1, ip, r1
 1108 00a8 FFF7FEFF 		bl	_test_assert
 1109 00ac 0028     		cmp	r0, #0
 1110 00ae B5D1     		bne	.L52
 1111              		.loc 1 457 0
 1112 00b0 A368     		ldr	r3, [r4, #8]
 1113 00b2 0720     		movs	r0, #7
 1114 00b4 D3F10101 		rsbs	r1, r3, #1
 1115 00b8 38BF     		it	cc
 1116 00ba 0021     		movcc	r1, #0
 1117              		.loc 1 458 0
 1118 00bc BDE8F041 		pop	{r4, r5, r6, r7, r8, lr}
 1119              		.loc 1 457 0
 1120 00c0 FFF7FEBF 		b	_test_assert
 1121              	.L56:
 1122              		.align	2
 1123              	.L55:
 1124 00c4 00000000 		.word	rlist
 1125 00c8 00000000 		.word	.LANCHOR2
 1126              		.cfi_endproc
 1127              	.LFE27:
 1128              		.size	mtx5_execute, .-mtx5_execute
 1129 00cc AFF30080 		.section	.text.mtx4_execute,"ax",%progbits
ARM GAS  C:\DOCUME~1\z_80\LOCALS~1\Temp\cctp207y.s 			page 21


 1130              		.align	2
 1131              		.p2align 4,,15
 1132              		.thumb
 1133              		.thumb_func
 1134              		.type	mtx4_execute, %function
 1135              	mtx4_execute:
 1136              	.LFB25:
 1137              		.loc 1 365 0
 1138              		.cfi_startproc
 1139              		@ args = 0, pretend = 0, frame = 0
 1140              		@ frame_needed = 0, uses_anonymous_args = 0
 1141 0000 2DE9F047 		push	{r4, r5, r6, r7, r8, r9, sl, lr}
 1142              	.LCFI18:
 1143              		.cfi_def_cfa_offset 32
 1144              		.loc 1 368 0
 1145 0004 954D     		ldr	r5, .L60
 1146              		.cfi_offset 14, -4
 1147              		.cfi_offset 10, -8
 1148              		.cfi_offset 9, -12
 1149              		.cfi_offset 8, -16
 1150              		.cfi_offset 7, -20
 1151              		.cfi_offset 6, -24
 1152              		.cfi_offset 5, -28
 1153              		.cfi_offset 4, -32
 1154              		.loc 1 371 0
 1155 0006 964F     		ldr	r7, .L60+4
 1156              		.loc 1 368 0
 1157 0008 A869     		ldr	r0, [r5, #24]
 1158              		.loc 1 371 0
 1159 000a D7F800A0 		ldr	sl, [r7, #0]
 1160              		.loc 1 368 0
 1161 000e 8468     		ldr	r4, [r0, #8]
 1162              	.LVL40:
 1163              		.loc 1 371 0
 1164 0010 944E     		ldr	r6, .L60+8
 1165              		.loc 1 369 0
 1166 0012 04F10108 		add	r8, r4, #1
 1167              	.LVL41:
 1168              		.loc 1 365 0
 1169 0016 82B0     		sub	sp, sp, #8
 1170              	.LCFI19:
 1171              		.cfi_def_cfa_offset 40
 1172              		.loc 1 371 0
 1173 0018 4FF49871 		mov	r1, #304
 1174 001c 4246     		mov	r2, r8
 1175 001e 924B     		ldr	r3, .L60+12
 1176 0020 5046     		mov	r0, sl
 1177 0022 0096     		str	r6, [sp, #0]
 1178 0024 FFF7FEFF 		bl	chThdCreateStatic
 1179              	.LVL42:
 1180 0028 904E     		ldr	r6, .L60+16
 1181              		.loc 1 372 0
 1182 002a D7F80490 		ldr	r9, [r7, #4]
 1183 002e DFF84CE2 		ldr	lr, .L60+32
 1184              		.loc 1 370 0
 1185 0032 A71C     		adds	r7, r4, #2
 1186              	.LVL43:
ARM GAS  C:\DOCUME~1\z_80\LOCALS~1\Temp\cctp207y.s 			page 22


 1187              		.loc 1 372 0
 1188 0034 4FF49871 		mov	r1, #304
 1189              		.loc 1 371 0
 1190 0038 3060     		str	r0, [r6, #0]
 1191              		.loc 1 372 0
 1192 003a 3A46     		mov	r2, r7
 1193 003c 8C4B     		ldr	r3, .L60+20
 1194 003e 4846     		mov	r0, r9
 1195 0040 CDF800E0 		str	lr, [sp, #0]
 1196 0044 FFF7FEFF 		bl	chThdCreateStatic
 1197 0048 7060     		str	r0, [r6, #4]
 1198              		.loc 1 373 0
 1199 004a 8A48     		ldr	r0, .L60+24
 1200 004c FFF7FEFF 		bl	chMtxLock
 1201              		.loc 1 374 0
 1202 0050 A969     		ldr	r1, [r5, #24]
 1203 0052 0120     		movs	r0, #1
 1204 0054 8B68     		ldr	r3, [r1, #8]
 1205 0056 1A1B     		subs	r2, r3, r4
 1206 0058 5142     		rsbs	r1, r2, #0
 1207 005a 41EB0201 		adc	r1, r1, r2
 1208 005e FFF7FEFF 		bl	_test_assert
 1209 0062 10B1     		cbz	r0, .L59
 1210              	.L57:
 1211              		.loc 1 410 0
 1212 0064 02B0     		add	sp, sp, #8
 1213 0066 BDE8F087 		pop	{r4, r5, r6, r7, r8, r9, sl, pc}
 1214              	.L59:
 1215              		.loc 1 375 0
 1216 006a 6420     		movs	r0, #100
 1217 006c FFF7FEFF 		bl	chThdSleep
 1218              		.loc 1 376 0
 1219 0070 A969     		ldr	r1, [r5, #24]
 1220 0072 0220     		movs	r0, #2
 1221 0074 8B68     		ldr	r3, [r1, #8]
 1222 0076 C8EB0302 		rsb	r2, r8, r3
 1223 007a D2F1000C 		rsbs	ip, r2, #0
 1224 007e 4CEB0201 		adc	r1, ip, r2
 1225 0082 FFF7FEFF 		bl	_test_assert
 1226 0086 0028     		cmp	r0, #0
 1227 0088 ECD1     		bne	.L57
 1228              		.loc 1 377 0
 1229 008a 7B48     		ldr	r0, .L60+28
 1230 008c FFF7FEFF 		bl	chMtxLock
 1231              		.loc 1 378 0
 1232 0090 A969     		ldr	r1, [r5, #24]
 1233 0092 0320     		movs	r0, #3
 1234 0094 8B68     		ldr	r3, [r1, #8]
 1235 0096 C8EB030C 		rsb	ip, r8, r3
 1236 009a DCF10002 		rsbs	r2, ip, #0
 1237 009e 42EB0C01 		adc	r1, r2, ip
 1238 00a2 FFF7FEFF 		bl	_test_assert
 1239 00a6 0028     		cmp	r0, #0
 1240 00a8 DCD1     		bne	.L57
 1241              		.loc 1 379 0
 1242 00aa 6420     		movs	r0, #100
 1243 00ac FFF7FEFF 		bl	chThdSleep
ARM GAS  C:\DOCUME~1\z_80\LOCALS~1\Temp\cctp207y.s 			page 23


 1244              		.loc 1 380 0
 1245 00b0 A969     		ldr	r1, [r5, #24]
 1246 00b2 0420     		movs	r0, #4
 1247 00b4 8B68     		ldr	r3, [r1, #8]
 1248 00b6 C7EB030E 		rsb	lr, r7, r3
 1249 00ba DEF10002 		rsbs	r2, lr, #0
 1250 00be 42EB0E01 		adc	r1, r2, lr
 1251 00c2 FFF7FEFF 		bl	_test_assert
 1252 00c6 0028     		cmp	r0, #0
 1253 00c8 CCD1     		bne	.L57
 1254              		.loc 1 381 0
 1255 00ca FFF7FEFF 		bl	chMtxUnlock
 1256              		.loc 1 382 0
 1257 00ce A969     		ldr	r1, [r5, #24]
 1258 00d0 0520     		movs	r0, #5
 1259 00d2 8B68     		ldr	r3, [r1, #8]
 1260 00d4 C8EB0302 		rsb	r2, r8, r3
 1261 00d8 D2F1000C 		rsbs	ip, r2, #0
 1262 00dc 4CEB0201 		adc	r1, ip, r2
 1263 00e0 FFF7FEFF 		bl	_test_assert
 1264 00e4 0028     		cmp	r0, #0
 1265 00e6 BDD1     		bne	.L57
 1266              		.loc 1 383 0
 1267 00e8 6420     		movs	r0, #100
 1268 00ea FFF7FEFF 		bl	chThdSleep
 1269              		.loc 1 384 0
 1270 00ee A969     		ldr	r1, [r5, #24]
 1271 00f0 0620     		movs	r0, #6
 1272 00f2 8B68     		ldr	r3, [r1, #8]
 1273 00f4 C8EB0302 		rsb	r2, r8, r3
 1274 00f8 D2F1000C 		rsbs	ip, r2, #0
 1275 00fc 4CEB0201 		adc	r1, ip, r2
 1276 0100 FFF7FEFF 		bl	_test_assert
 1277 0104 0028     		cmp	r0, #0
 1278 0106 ADD1     		bne	.L57
 1279              		.loc 1 385 0
 1280 0108 FFF7FEFF 		bl	chMtxUnlockAll
 1281              		.loc 1 386 0
 1282 010c A969     		ldr	r1, [r5, #24]
 1283 010e 0720     		movs	r0, #7
 1284 0110 8B68     		ldr	r3, [r1, #8]
 1285 0112 C4EB030C 		rsb	ip, r4, r3
 1286 0116 DCF10002 		rsbs	r2, ip, #0
 1287 011a 42EB0C01 		adc	r1, r2, ip
 1288 011e FFF7FEFF 		bl	_test_assert
 1289 0122 0028     		cmp	r0, #0
 1290 0124 9ED1     		bne	.L57
 1291              		.loc 1 387 0
 1292 0126 FFF7FEFF 		bl	test_wait_threads
 1293              		.loc 1 390 0
 1294 012a DFF854E1 		ldr	lr, .L60+36
 1295 012e 4FF49871 		mov	r1, #304
 1296 0132 4246     		mov	r2, r8
 1297 0134 4C4B     		ldr	r3, .L60+12
 1298 0136 5046     		mov	r0, sl
 1299 0138 CDF800E0 		str	lr, [sp, #0]
 1300 013c FFF7FEFF 		bl	chThdCreateStatic
ARM GAS  C:\DOCUME~1\z_80\LOCALS~1\Temp\cctp207y.s 			page 24


 1301              		.loc 1 391 0
 1302 0140 DFF840C1 		ldr	ip, .L60+40
 1303 0144 4FF49871 		mov	r1, #304
 1304              		.loc 1 390 0
 1305 0148 3060     		str	r0, [r6, #0]
 1306              		.loc 1 391 0
 1307 014a 3A46     		mov	r2, r7
 1308 014c 484B     		ldr	r3, .L60+20
 1309 014e 4846     		mov	r0, r9
 1310 0150 CDF800C0 		str	ip, [sp, #0]
 1311 0154 FFF7FEFF 		bl	chThdCreateStatic
 1312 0158 7060     		str	r0, [r6, #4]
 1313              		.loc 1 392 0
 1314 015a 4648     		ldr	r0, .L60+24
 1315 015c FFF7FEFF 		bl	chMtxLock
 1316              		.loc 1 393 0
 1317 0160 A969     		ldr	r1, [r5, #24]
 1318 0162 0820     		movs	r0, #8
 1319 0164 8B68     		ldr	r3, [r1, #8]
 1320 0166 C4EB030E 		rsb	lr, r4, r3
 1321 016a DEF10002 		rsbs	r2, lr, #0
 1322 016e 42EB0E01 		adc	r1, r2, lr
 1323 0172 FFF7FEFF 		bl	_test_assert
 1324 0176 0028     		cmp	r0, #0
 1325 0178 7FF474AF 		bne	.L57
 1326              		.loc 1 394 0
 1327 017c 6430     		adds	r0, r0, #100
 1328 017e FFF7FEFF 		bl	chThdSleep
 1329              		.loc 1 395 0
 1330 0182 AB69     		ldr	r3, [r5, #24]
 1331 0184 0920     		movs	r0, #9
 1332 0186 9968     		ldr	r1, [r3, #8]
 1333 0188 C8EB0102 		rsb	r2, r8, r1
 1334 018c 5342     		rsbs	r3, r2, #0
 1335 018e 43EB0201 		adc	r1, r3, r2
 1336 0192 FFF7FEFF 		bl	_test_assert
 1337 0196 0028     		cmp	r0, #0
 1338 0198 7FF464AF 		bne	.L57
 1339              		.loc 1 396 0
 1340 019c 3648     		ldr	r0, .L60+28
 1341 019e FFF7FEFF 		bl	chMtxLock
 1342              		.loc 1 397 0
 1343 01a2 AB69     		ldr	r3, [r5, #24]
 1344 01a4 0A20     		movs	r0, #10
 1345 01a6 9968     		ldr	r1, [r3, #8]
 1346 01a8 C8EB0102 		rsb	r2, r8, r1
 1347 01ac D2F1000C 		rsbs	ip, r2, #0
 1348 01b0 4CEB0201 		adc	r1, ip, r2
 1349 01b4 FFF7FEFF 		bl	_test_assert
 1350 01b8 0028     		cmp	r0, #0
 1351 01ba 7FF453AF 		bne	.L57
 1352              		.loc 1 398 0
 1353 01be 6430     		adds	r0, r0, #100
 1354 01c0 FFF7FEFF 		bl	chThdSleep
 1355              		.loc 1 399 0
 1356 01c4 A969     		ldr	r1, [r5, #24]
 1357 01c6 0B20     		movs	r0, #11
ARM GAS  C:\DOCUME~1\z_80\LOCALS~1\Temp\cctp207y.s 			page 25


 1358 01c8 8A68     		ldr	r2, [r1, #8]
 1359 01ca C7EB020C 		rsb	ip, r7, r2
 1360 01ce DCF10006 		rsbs	r6, ip, #0
 1361 01d2 46EB0C01 		adc	r1, r6, ip
 1362 01d6 FFF7FEFF 		bl	_test_assert
 1363 01da 0646     		mov	r6, r0
 1364 01dc 0028     		cmp	r0, #0
 1365 01de 7FF441AF 		bne	.L57
 1366              	.LBB7:
 1367              		.loc 1 400 0
 1368 01e2 2023     		movs	r3, #32
 1369              	.LVL44:
 1370              	@ 400 "../chibios_2.6.3/test/testmtx.c" 1
 1371 01e4 83F31188 		msr     BASEPRI, r3
 1372              	@ 0 "" 2
 1373              	.LVL45:
 1374              		.thumb
 1375              	.LBE7:
 1376              		.loc 1 401 0
 1377 01e8 FFF7FEFF 		bl	chMtxUnlockS
 1378              	.LVL46:
 1379              		.loc 1 402 0
 1380 01ec FFF7FEFF 		bl	chSchRescheduleS
 1381              	.LBB8:
 1382              		.loc 1 403 0
 1383 01f0 3346     		mov	r3, r6
 1384              	.LVL47:
 1385              	@ 403 "../chibios_2.6.3/test/testmtx.c" 1
 1386 01f2 83F31188 		msr     BASEPRI, r3
 1387              	@ 0 "" 2
 1388              	.LVL48:
 1389              		.thumb
 1390              	.LBE8:
 1391              		.loc 1 404 0
 1392 01f6 A969     		ldr	r1, [r5, #24]
 1393 01f8 0C20     		movs	r0, #12
 1394 01fa 8A68     		ldr	r2, [r1, #8]
 1395 01fc C8EB020E 		rsb	lr, r8, r2
 1396 0200 DEF10003 		rsbs	r3, lr, #0
 1397              	.LVL49:
 1398 0204 43EB0E01 		adc	r1, r3, lr
 1399 0208 FFF7FEFF 		bl	_test_assert
 1400 020c 0028     		cmp	r0, #0
 1401 020e 7FF429AF 		bne	.L57
 1402              		.loc 1 405 0
 1403 0212 6430     		adds	r0, r0, #100
 1404 0214 FFF7FEFF 		bl	chThdSleep
 1405              		.loc 1 406 0
 1406 0218 A969     		ldr	r1, [r5, #24]
 1407 021a 0D20     		movs	r0, #13
 1408 021c 8A68     		ldr	r2, [r1, #8]
 1409 021e C8EB0203 		rsb	r3, r8, r2
 1410 0222 D3F1000C 		rsbs	ip, r3, #0
 1411 0226 4CEB0301 		adc	r1, ip, r3
 1412 022a FFF7FEFF 		bl	_test_assert
 1413 022e 0028     		cmp	r0, #0
 1414 0230 7FF418AF 		bne	.L57
ARM GAS  C:\DOCUME~1\z_80\LOCALS~1\Temp\cctp207y.s 			page 26


 1415              		.loc 1 407 0
 1416 0234 FFF7FEFF 		bl	chMtxUnlockAll
 1417              		.loc 1 408 0
 1418 0238 A969     		ldr	r1, [r5, #24]
 1419 023a 0E20     		movs	r0, #14
 1420 023c 8A68     		ldr	r2, [r1, #8]
 1421 023e 131B     		subs	r3, r2, r4
 1422 0240 D3F1000C 		rsbs	ip, r3, #0
 1423 0244 4CEB0301 		adc	r1, ip, r3
 1424 0248 FFF7FEFF 		bl	_test_assert
 1425 024c 0028     		cmp	r0, #0
 1426 024e 7FF409AF 		bne	.L57
 1427              		.loc 1 410 0
 1428 0252 02B0     		add	sp, sp, #8
 1429 0254 BDE8F047 		pop	{r4, r5, r6, r7, r8, r9, sl, lr}
 1430              		.loc 1 409 0
 1431 0258 FFF7FEBF 		b	test_wait_threads
 1432              	.L61:
 1433              		.align	2
 1434              	.L60:
 1435 025c 00000000 		.word	rlist
 1436 0260 00000000 		.word	wa
 1437 0264 08000000 		.word	.LC2
 1438 0268 00000000 		.word	thread4a
 1439 026c 00000000 		.word	threads
 1440 0270 00000000 		.word	thread4b
 1441 0274 00000000 		.word	.LANCHOR1
 1442 0278 00000000 		.word	.LANCHOR2
 1443 027c 00000000 		.word	.LC0
 1444 0280 14000000 		.word	.LC5
 1445 0284 04000000 		.word	.LC1
 1446              		.cfi_endproc
 1447              	.LFE25:
 1448              		.size	mtx4_execute, .-mtx4_execute
 1449 0288 AFF30080 		.section	.text.thread4b,"ax",%progbits
 1449      AFF30080 
 1450              		.align	2
 1451              		.p2align 4,,15
 1452              		.thumb
 1453              		.thumb_func
 1454              		.type	thread4b, %function
 1455              	thread4b:
 1456              	.LFB24:
 1457              		.loc 1 356 0
 1458              		.cfi_startproc
 1459              		@ args = 0, pretend = 0, frame = 0
 1460              		@ frame_needed = 0, uses_anonymous_args = 0
 1461              	.LVL50:
 1462 0000 08B5     		push	{r3, lr}
 1463              	.LCFI20:
 1464              		.cfi_def_cfa_offset 8
 1465              		.loc 1 359 0
 1466 0002 9620     		movs	r0, #150
 1467              	.LVL51:
 1468              		.cfi_offset 14, -4
 1469              		.cfi_offset 3, -8
 1470 0004 FFF7FEFF 		bl	chThdSleep
ARM GAS  C:\DOCUME~1\z_80\LOCALS~1\Temp\cctp207y.s 			page 27


 1471              		.loc 1 360 0
 1472 0008 0348     		ldr	r0, .L63
 1473 000a FFF7FEFF 		bl	chMtxLock
 1474              		.loc 1 361 0
 1475 000e FFF7FEFF 		bl	chMtxUnlock
 1476              		.loc 1 363 0
 1477 0012 0020     		movs	r0, #0
 1478 0014 08BD     		pop	{r3, pc}
 1479              	.L64:
 1480 0016 00BF     		.align	2
 1481              	.L63:
 1482 0018 00000000 		.word	.LANCHOR2
 1483              		.cfi_endproc
 1484              	.LFE24:
 1485              		.size	thread4b, .-thread4b
 1486 001c AFF30080 		.section	.text.thread4a,"ax",%progbits
 1487              		.align	2
 1488              		.p2align 4,,15
 1489              		.thumb
 1490              		.thumb_func
 1491              		.type	thread4a, %function
 1492              	thread4a:
 1493              	.LFB23:
 1494              		.loc 1 347 0
 1495              		.cfi_startproc
 1496              		@ args = 0, pretend = 0, frame = 0
 1497              		@ frame_needed = 0, uses_anonymous_args = 0
 1498              	.LVL52:
 1499 0000 08B5     		push	{r3, lr}
 1500              	.LCFI21:
 1501              		.cfi_def_cfa_offset 8
 1502              		.loc 1 350 0
 1503 0002 3220     		movs	r0, #50
 1504              	.LVL53:
 1505              		.cfi_offset 14, -4
 1506              		.cfi_offset 3, -8
 1507 0004 FFF7FEFF 		bl	chThdSleep
 1508              		.loc 1 351 0
 1509 0008 0348     		ldr	r0, .L66
 1510 000a FFF7FEFF 		bl	chMtxLock
 1511              		.loc 1 352 0
 1512 000e FFF7FEFF 		bl	chMtxUnlock
 1513              		.loc 1 354 0
 1514 0012 0020     		movs	r0, #0
 1515 0014 08BD     		pop	{r3, pc}
 1516              	.L67:
 1517 0016 00BF     		.align	2
 1518              	.L66:
 1519 0018 00000000 		.word	.LANCHOR1
 1520              		.cfi_endproc
 1521              	.LFE23:
 1522              		.size	thread4a, .-thread4a
 1523 001c AFF30080 		.section	.text.mtx3_execute,"ax",%progbits
 1524              		.align	2
 1525              		.p2align 4,,15
 1526              		.thumb
 1527              		.thumb_func
ARM GAS  C:\DOCUME~1\z_80\LOCALS~1\Temp\cctp207y.s 			page 28


 1528              		.type	mtx3_execute, %function
 1529              	mtx3_execute:
 1530              	.LFB21:
 1531              		.loc 1 308 0
 1532              		.cfi_startproc
 1533              		@ args = 0, pretend = 0, frame = 0
 1534              		@ frame_needed = 0, uses_anonymous_args = 0
 1535 0000 2DE9F041 		push	{r4, r5, r6, r7, r8, lr}
 1536              	.LCFI22:
 1537              		.cfi_def_cfa_offset 24
 1538              		.loc 1 313 0
 1539 0004 2D4F     		ldr	r7, .L71
 1540              		.cfi_offset 14, -4
 1541              		.cfi_offset 8, -8
 1542              		.cfi_offset 7, -12
 1543              		.cfi_offset 6, -16
 1544              		.cfi_offset 5, -20
 1545              		.cfi_offset 4, -24
 1546              		.loc 1 308 0
 1547 0006 82B0     		sub	sp, sp, #8
 1548              	.LCFI23:
 1549              		.cfi_def_cfa_offset 32
 1550              		.loc 1 311 0
 1551 0008 FFF7FEFF 		bl	test_wait_tick
 1552              		.loc 1 313 0
 1553 000c BD69     		ldr	r5, [r7, #24]
 1554 000e 2C4E     		ldr	r6, .L71+4
 1555 0010 AA68     		ldr	r2, [r5, #8]
 1556              		.loc 1 312 0
 1557 0012 2C4C     		ldr	r4, .L71+8
 1558              		.loc 1 313 0
 1559 0014 0025     		movs	r5, #0
 1560 0016 3068     		ldr	r0, [r6, #0]
 1561 0018 4FF49871 		mov	r1, #304
 1562 001c 053A     		subs	r2, r2, #5
 1563 001e 2A4B     		ldr	r3, .L71+12
 1564              		.loc 1 312 0
 1565 0020 D4F80C80 		ldr	r8, [r4, #12]
 1566              	.LVL54:
 1567              		.loc 1 313 0
 1568 0024 0095     		str	r5, [sp, #0]
 1569 0026 FFF7FEFF 		bl	chThdCreateStatic
 1570              		.loc 1 314 0
 1571 002a B969     		ldr	r1, [r7, #24]
 1572              		.loc 1 313 0
 1573 002c 274C     		ldr	r4, .L71+16
 1574              		.loc 1 314 0
 1575 002e 8B68     		ldr	r3, [r1, #8]
 1576 0030 D6F804E0 		ldr	lr, [r6, #4]
 1577              		.loc 1 313 0
 1578 0034 2060     		str	r0, [r4, #0]
 1579              		.loc 1 314 0
 1580 0036 1A1F     		subs	r2, r3, #4
 1581 0038 7046     		mov	r0, lr
 1582 003a 4FF49871 		mov	r1, #304
 1583 003e 244B     		ldr	r3, .L71+20
 1584 0040 0095     		str	r5, [sp, #0]
ARM GAS  C:\DOCUME~1\z_80\LOCALS~1\Temp\cctp207y.s 			page 29


 1585 0042 FFF7FEFF 		bl	chThdCreateStatic
 1586              		.loc 1 315 0
 1587 0046 BA69     		ldr	r2, [r7, #24]
 1588 0048 D6F808C0 		ldr	ip, [r6, #8]
 1589 004c 9368     		ldr	r3, [r2, #8]
 1590 004e 4FF49871 		mov	r1, #304
 1591              		.loc 1 314 0
 1592 0052 6060     		str	r0, [r4, #4]
 1593              		.loc 1 315 0
 1594 0054 DA1E     		subs	r2, r3, #3
 1595 0056 6046     		mov	r0, ip
 1596 0058 1E4B     		ldr	r3, .L71+24
 1597 005a 0095     		str	r5, [sp, #0]
 1598 005c FFF7FEFF 		bl	chThdCreateStatic
 1599              		.loc 1 316 0
 1600 0060 B969     		ldr	r1, [r7, #24]
 1601 0062 D6F80CE0 		ldr	lr, [r6, #12]
 1602 0066 8A68     		ldr	r2, [r1, #8]
 1603 0068 1B4B     		ldr	r3, .L71+28
 1604              		.loc 1 315 0
 1605 006a A060     		str	r0, [r4, #8]
 1606              		.loc 1 316 0
 1607 006c 4FF49871 		mov	r1, #304
 1608 0070 7046     		mov	r0, lr
 1609 0072 023A     		subs	r2, r2, #2
 1610 0074 0095     		str	r5, [sp, #0]
 1611 0076 FFF7FEFF 		bl	chThdCreateStatic
 1612              		.loc 1 317 0
 1613 007a BB69     		ldr	r3, [r7, #24]
 1614 007c 3669     		ldr	r6, [r6, #16]
 1615 007e 9A68     		ldr	r2, [r3, #8]
 1616 0080 4FF49871 		mov	r1, #304
 1617              		.loc 1 316 0
 1618 0084 E060     		str	r0, [r4, #12]
 1619              		.loc 1 317 0
 1620 0086 013A     		subs	r2, r2, #1
 1621 0088 144B     		ldr	r3, .L71+32
 1622 008a 3046     		mov	r0, r6
 1623 008c 0095     		str	r5, [sp, #0]
 1624 008e FFF7FEFF 		bl	chThdCreateStatic
 1625 0092 2061     		str	r0, [r4, #16]
 1626              		.loc 1 318 0
 1627 0094 FFF7FEFF 		bl	test_wait_threads
 1628              		.loc 1 319 0
 1629 0098 0120     		movs	r0, #1
 1630 009a 1149     		ldr	r1, .L71+36
 1631 009c FFF7FEFF 		bl	_test_assert_sequence
 1632 00a0 10B1     		cbz	r0, .L70
 1633              		.loc 1 321 0
 1634 00a2 02B0     		add	sp, sp, #8
 1635 00a4 BDE8F081 		pop	{r4, r5, r6, r7, r8, pc}
 1636              	.L70:
 1637              		.loc 1 320 0
 1638 00a8 0220     		movs	r0, #2
 1639 00aa 08F16E01 		add	r1, r8, #110
 1640 00ae 08F17302 		add	r2, r8, #115
 1641              		.loc 1 321 0
ARM GAS  C:\DOCUME~1\z_80\LOCALS~1\Temp\cctp207y.s 			page 30


 1642 00b2 02B0     		add	sp, sp, #8
 1643 00b4 BDE8F041 		pop	{r4, r5, r6, r7, r8, lr}
 1644              		.loc 1 320 0
 1645 00b8 FFF7FEBF 		b	_test_assert_time_window
 1646              	.L72:
 1647              		.align	2
 1648              	.L71:
 1649 00bc 00000000 		.word	rlist
 1650 00c0 00000000 		.word	wa
 1651 00c4 00000000 		.word	vtlist
 1652 00c8 00000000 		.word	thread3LL
 1653 00cc 00000000 		.word	threads
 1654 00d0 00000000 		.word	thread3L
 1655 00d4 00000000 		.word	thread3M
 1656 00d8 00000000 		.word	thread3H
 1657 00dc 00000000 		.word	thread3HH
 1658 00e0 18000000 		.word	.LC6
 1659              		.cfi_endproc
 1660              	.LFE21:
 1661              		.size	mtx3_execute, .-mtx3_execute
 1662 00e4 AFF30080 		.section	.text.mtx2_execute,"ax",%progbits
 1662      AFF30080 
 1662      AFF30080 
 1663              		.align	2
 1664              		.p2align 4,,15
 1665              		.thumb
 1666              		.thumb_func
 1667              		.type	mtx2_execute, %function
 1668              	mtx2_execute:
 1669              	.LFB14:
 1670              		.loc 1 190 0
 1671              		.cfi_startproc
 1672              		@ args = 0, pretend = 0, frame = 0
 1673              		@ frame_needed = 0, uses_anonymous_args = 0
 1674 0000 2DE9F041 		push	{r4, r5, r6, r7, r8, lr}
 1675              	.LCFI24:
 1676              		.cfi_def_cfa_offset 24
 1677              		.loc 1 195 0
 1678 0004 204F     		ldr	r7, .L76
 1679              		.cfi_offset 14, -4
 1680              		.cfi_offset 8, -8
 1681              		.cfi_offset 7, -12
 1682              		.cfi_offset 6, -16
 1683              		.cfi_offset 5, -20
 1684              		.cfi_offset 4, -24
 1685              		.loc 1 190 0
 1686 0006 82B0     		sub	sp, sp, #8
 1687              	.LCFI25:
 1688              		.cfi_def_cfa_offset 32
 1689              		.loc 1 193 0
 1690 0008 FFF7FEFF 		bl	test_wait_tick
 1691              		.loc 1 195 0
 1692 000c BD69     		ldr	r5, [r7, #24]
 1693 000e 1F4E     		ldr	r6, .L76+4
 1694 0010 AB68     		ldr	r3, [r5, #8]
 1695              		.loc 1 194 0
 1696 0012 1F4C     		ldr	r4, .L76+8
ARM GAS  C:\DOCUME~1\z_80\LOCALS~1\Temp\cctp207y.s 			page 31


 1697              		.loc 1 195 0
 1698 0014 0025     		movs	r5, #0
 1699 0016 5A1E     		subs	r2, r3, #1
 1700 0018 3068     		ldr	r0, [r6, #0]
 1701 001a 4FF49871 		mov	r1, #304
 1702 001e 1D4B     		ldr	r3, .L76+12
 1703              		.loc 1 194 0
 1704 0020 D4F80C80 		ldr	r8, [r4, #12]
 1705              	.LVL55:
 1706              		.loc 1 195 0
 1707 0024 0095     		str	r5, [sp, #0]
 1708 0026 FFF7FEFF 		bl	chThdCreateStatic
 1709              		.loc 1 196 0
 1710 002a B969     		ldr	r1, [r7, #24]
 1711 002c D6F804E0 		ldr	lr, [r6, #4]
 1712 0030 8A68     		ldr	r2, [r1, #8]
 1713              		.loc 1 195 0
 1714 0032 194C     		ldr	r4, .L76+16
 1715              		.loc 1 196 0
 1716 0034 4FF49871 		mov	r1, #304
 1717              		.loc 1 195 0
 1718 0038 2060     		str	r0, [r4, #0]
 1719              		.loc 1 196 0
 1720 003a 023A     		subs	r2, r2, #2
 1721 003c 7046     		mov	r0, lr
 1722 003e 174B     		ldr	r3, .L76+20
 1723 0040 0095     		str	r5, [sp, #0]
 1724 0042 FFF7FEFF 		bl	chThdCreateStatic
 1725              		.loc 1 197 0
 1726 0046 BB69     		ldr	r3, [r7, #24]
 1727 0048 B668     		ldr	r6, [r6, #8]
 1728 004a 9A68     		ldr	r2, [r3, #8]
 1729 004c 4FF49871 		mov	r1, #304
 1730              		.loc 1 196 0
 1731 0050 6060     		str	r0, [r4, #4]
 1732              		.loc 1 197 0
 1733 0052 033A     		subs	r2, r2, #3
 1734 0054 124B     		ldr	r3, .L76+24
 1735 0056 3046     		mov	r0, r6
 1736 0058 0095     		str	r5, [sp, #0]
 1737 005a FFF7FEFF 		bl	chThdCreateStatic
 1738 005e A060     		str	r0, [r4, #8]
 1739              		.loc 1 198 0
 1740 0060 FFF7FEFF 		bl	test_wait_threads
 1741              		.loc 1 199 0
 1742 0064 0120     		movs	r0, #1
 1743 0066 0F49     		ldr	r1, .L76+28
 1744 0068 FFF7FEFF 		bl	_test_assert_sequence
 1745 006c 10B1     		cbz	r0, .L75
 1746              		.loc 1 201 0
 1747 006e 02B0     		add	sp, sp, #8
 1748 0070 BDE8F081 		pop	{r4, r5, r6, r7, r8, pc}
 1749              	.L75:
 1750              		.loc 1 200 0
 1751 0074 0220     		movs	r0, #2
 1752 0076 08F16401 		add	r1, r8, #100
 1753 007a 08F16902 		add	r2, r8, #105
ARM GAS  C:\DOCUME~1\z_80\LOCALS~1\Temp\cctp207y.s 			page 32


 1754              		.loc 1 201 0
 1755 007e 02B0     		add	sp, sp, #8
 1756 0080 BDE8F041 		pop	{r4, r5, r6, r7, r8, lr}
 1757              		.loc 1 200 0
 1758 0084 FFF7FEBF 		b	_test_assert_time_window
 1759              	.L77:
 1760              		.align	2
 1761              	.L76:
 1762 0088 00000000 		.word	rlist
 1763 008c 00000000 		.word	wa
 1764 0090 00000000 		.word	vtlist
 1765 0094 00000000 		.word	thread2H
 1766 0098 00000000 		.word	threads
 1767 009c 00000000 		.word	thread2M
 1768 00a0 00000000 		.word	thread2L
 1769 00a4 0C000000 		.word	.LC3
 1770              		.cfi_endproc
 1771              	.LFE14:
 1772              		.size	mtx2_execute, .-mtx2_execute
 1773 00a8 AFF30080 		.section	.text.thread3HH,"ax",%progbits
 1773      AFF30080 
 1774              		.align	2
 1775              		.p2align 4,,15
 1776              		.thumb
 1777              		.thumb_func
 1778              		.type	thread3HH, %function
 1779              	thread3HH:
 1780              	.LFB20:
 1781              		.loc 1 297 0
 1782              		.cfi_startproc
 1783              		@ args = 0, pretend = 0, frame = 0
 1784              		@ frame_needed = 0, uses_anonymous_args = 0
 1785              	.LVL56:
 1786 0000 08B5     		push	{r3, lr}
 1787              	.LCFI26:
 1788              		.cfi_def_cfa_offset 8
 1789              		.loc 1 300 0
 1790 0002 3220     		movs	r0, #50
 1791              	.LVL57:
 1792              		.cfi_offset 14, -4
 1793              		.cfi_offset 3, -8
 1794 0004 FFF7FEFF 		bl	chThdSleep
 1795              		.loc 1 301 0
 1796 0008 0648     		ldr	r0, .L79
 1797 000a FFF7FEFF 		bl	chMtxLock
 1798              		.loc 1 302 0
 1799 000e 0A20     		movs	r0, #10
 1800 0010 FFF7FEFF 		bl	test_cpu_pulse
 1801              		.loc 1 303 0
 1802 0014 FFF7FEFF 		bl	chMtxUnlock
 1803              		.loc 1 304 0
 1804 0018 4120     		movs	r0, #65
 1805 001a FFF7FEFF 		bl	test_emit_token
 1806              		.loc 1 306 0
 1807 001e 0020     		movs	r0, #0
 1808 0020 08BD     		pop	{r3, pc}
 1809              	.L80:
ARM GAS  C:\DOCUME~1\z_80\LOCALS~1\Temp\cctp207y.s 			page 33


 1810 0022 00BF     		.align	2
 1811              	.L79:
 1812 0024 00000000 		.word	.LANCHOR1
 1813              		.cfi_endproc
 1814              	.LFE20:
 1815              		.size	thread3HH, .-thread3HH
 1816 0028 AFF30080 		.section	.text.thread3H,"ax",%progbits
 1816      AFF30080 
 1817              		.align	2
 1818              		.p2align 4,,15
 1819              		.thumb
 1820              		.thumb_func
 1821              		.type	thread3H, %function
 1822              	thread3H:
 1823              	.LFB19:
 1824              		.loc 1 287 0
 1825              		.cfi_startproc
 1826              		@ args = 0, pretend = 0, frame = 0
 1827              		@ frame_needed = 0, uses_anonymous_args = 0
 1828              	.LVL58:
 1829 0000 08B5     		push	{r3, lr}
 1830              	.LCFI27:
 1831              		.cfi_def_cfa_offset 8
 1832              		.loc 1 290 0
 1833 0002 2820     		movs	r0, #40
 1834              	.LVL59:
 1835              		.cfi_offset 14, -4
 1836              		.cfi_offset 3, -8
 1837 0004 FFF7FEFF 		bl	chThdSleep
 1838              		.loc 1 291 0
 1839 0008 1420     		movs	r0, #20
 1840 000a FFF7FEFF 		bl	test_cpu_pulse
 1841              		.loc 1 292 0
 1842 000e 4220     		movs	r0, #66
 1843 0010 FFF7FEFF 		bl	test_emit_token
 1844              		.loc 1 294 0
 1845 0014 0020     		movs	r0, #0
 1846 0016 08BD     		pop	{r3, pc}
 1847              		.cfi_endproc
 1848              	.LFE19:
 1849              		.size	thread3H, .-thread3H
 1850 0018 AFF30080 		.section	.text.thread3M,"ax",%progbits
 1850      AFF30080 
 1851              		.align	2
 1852              		.p2align 4,,15
 1853              		.thumb
 1854              		.thumb_func
 1855              		.type	thread3M, %function
 1856              	thread3M:
 1857              	.LFB18:
 1858              		.loc 1 275 0
 1859              		.cfi_startproc
 1860              		@ args = 0, pretend = 0, frame = 0
 1861              		@ frame_needed = 0, uses_anonymous_args = 0
 1862              	.LVL60:
 1863 0000 08B5     		push	{r3, lr}
 1864              	.LCFI28:
ARM GAS  C:\DOCUME~1\z_80\LOCALS~1\Temp\cctp207y.s 			page 34


 1865              		.cfi_def_cfa_offset 8
 1866              		.loc 1 278 0
 1867 0002 1420     		movs	r0, #20
 1868              	.LVL61:
 1869              		.cfi_offset 14, -4
 1870              		.cfi_offset 3, -8
 1871 0004 FFF7FEFF 		bl	chThdSleep
 1872              		.loc 1 279 0
 1873 0008 0648     		ldr	r0, .L83
 1874 000a FFF7FEFF 		bl	chMtxLock
 1875              		.loc 1 280 0
 1876 000e 0A20     		movs	r0, #10
 1877 0010 FFF7FEFF 		bl	test_cpu_pulse
 1878              		.loc 1 281 0
 1879 0014 FFF7FEFF 		bl	chMtxUnlock
 1880              		.loc 1 282 0
 1881 0018 4320     		movs	r0, #67
 1882 001a FFF7FEFF 		bl	test_emit_token
 1883              		.loc 1 284 0
 1884 001e 0020     		movs	r0, #0
 1885 0020 08BD     		pop	{r3, pc}
 1886              	.L84:
 1887 0022 00BF     		.align	2
 1888              	.L83:
 1889 0024 00000000 		.word	.LANCHOR1
 1890              		.cfi_endproc
 1891              	.LFE18:
 1892              		.size	thread3M, .-thread3M
 1893 0028 AFF30080 		.section	.text.thread3L,"ax",%progbits
 1893      AFF30080 
 1894              		.align	2
 1895              		.p2align 4,,15
 1896              		.thumb
 1897              		.thumb_func
 1898              		.type	thread3L, %function
 1899              	thread3L:
 1900              	.LFB17:
 1901              		.loc 1 259 0
 1902              		.cfi_startproc
 1903              		@ args = 0, pretend = 0, frame = 0
 1904              		@ frame_needed = 0, uses_anonymous_args = 0
 1905              	.LVL62:
 1906 0000 08B5     		push	{r3, lr}
 1907              	.LCFI29:
 1908              		.cfi_def_cfa_offset 8
 1909              		.loc 1 262 0
 1910 0002 0A20     		movs	r0, #10
 1911              	.LVL63:
 1912              		.cfi_offset 14, -4
 1913              		.cfi_offset 3, -8
 1914 0004 FFF7FEFF 		bl	chThdSleep
 1915              		.loc 1 263 0
 1916 0008 0B48     		ldr	r0, .L86
 1917 000a FFF7FEFF 		bl	chMtxLock
 1918              		.loc 1 264 0
 1919 000e 1420     		movs	r0, #20
 1920 0010 FFF7FEFF 		bl	test_cpu_pulse
ARM GAS  C:\DOCUME~1\z_80\LOCALS~1\Temp\cctp207y.s 			page 35


 1921              		.loc 1 265 0
 1922 0014 0948     		ldr	r0, .L86+4
 1923 0016 FFF7FEFF 		bl	chMtxLock
 1924              		.loc 1 266 0
 1925 001a 0A20     		movs	r0, #10
 1926 001c FFF7FEFF 		bl	test_cpu_pulse
 1927              		.loc 1 267 0
 1928 0020 FFF7FEFF 		bl	chMtxUnlock
 1929              		.loc 1 268 0
 1930 0024 0A20     		movs	r0, #10
 1931 0026 FFF7FEFF 		bl	test_cpu_pulse
 1932              		.loc 1 269 0
 1933 002a FFF7FEFF 		bl	chMtxUnlock
 1934              		.loc 1 270 0
 1935 002e 4420     		movs	r0, #68
 1936 0030 FFF7FEFF 		bl	test_emit_token
 1937              		.loc 1 272 0
 1938 0034 0020     		movs	r0, #0
 1939 0036 08BD     		pop	{r3, pc}
 1940              	.L87:
 1941              		.align	2
 1942              	.L86:
 1943 0038 00000000 		.word	.LANCHOR1
 1944 003c 00000000 		.word	.LANCHOR2
 1945              		.cfi_endproc
 1946              	.LFE17:
 1947              		.size	thread3L, .-thread3L
 1948              		.section	.text.thread3LL,"ax",%progbits
 1949              		.align	2
 1950              		.p2align 4,,15
 1951              		.thumb
 1952              		.thumb_func
 1953              		.type	thread3LL, %function
 1954              	thread3LL:
 1955              	.LFB16:
 1956              		.loc 1 248 0
 1957              		.cfi_startproc
 1958              		@ args = 0, pretend = 0, frame = 0
 1959              		@ frame_needed = 0, uses_anonymous_args = 0
 1960              	.LVL64:
 1961 0000 08B5     		push	{r3, lr}
 1962              	.LCFI30:
 1963              		.cfi_def_cfa_offset 8
 1964              		.loc 1 251 0
 1965 0002 0648     		ldr	r0, .L89
 1966              	.LVL65:
 1967              		.cfi_offset 14, -4
 1968              		.cfi_offset 3, -8
 1969 0004 FFF7FEFF 		bl	chMtxLock
 1970              		.loc 1 252 0
 1971 0008 1E20     		movs	r0, #30
 1972 000a FFF7FEFF 		bl	test_cpu_pulse
 1973              		.loc 1 253 0
 1974 000e FFF7FEFF 		bl	chMtxUnlock
 1975              		.loc 1 254 0
 1976 0012 4520     		movs	r0, #69
 1977 0014 FFF7FEFF 		bl	test_emit_token
ARM GAS  C:\DOCUME~1\z_80\LOCALS~1\Temp\cctp207y.s 			page 36


 1978              		.loc 1 256 0
 1979 0018 0020     		movs	r0, #0
 1980 001a 08BD     		pop	{r3, pc}
 1981              	.L90:
 1982              		.align	2
 1983              	.L89:
 1984 001c 00000000 		.word	.LANCHOR2
 1985              		.cfi_endproc
 1986              	.LFE16:
 1987              		.size	thread3LL, .-thread3LL
 1988              		.section	.text.thread2L,"ax",%progbits
 1989              		.align	2
 1990              		.p2align 4,,15
 1991              		.thumb
 1992              		.thumb_func
 1993              		.type	thread2L, %function
 1994              	thread2L:
 1995              	.LFB11:
 1996              		.loc 1 157 0
 1997              		.cfi_startproc
 1998              		@ args = 0, pretend = 0, frame = 0
 1999              		@ frame_needed = 0, uses_anonymous_args = 0
 2000              	.LVL66:
 2001 0000 08B5     		push	{r3, lr}
 2002              	.LCFI31:
 2003              		.cfi_def_cfa_offset 8
 2004              		.loc 1 160 0
 2005 0002 0848     		ldr	r0, .L92
 2006              	.LVL67:
 2007              		.cfi_offset 14, -4
 2008              		.cfi_offset 3, -8
 2009 0004 FFF7FEFF 		bl	chMtxLock
 2010              		.loc 1 161 0
 2011 0008 2820     		movs	r0, #40
 2012 000a FFF7FEFF 		bl	test_cpu_pulse
 2013              		.loc 1 162 0
 2014 000e FFF7FEFF 		bl	chMtxUnlock
 2015              		.loc 1 163 0
 2016 0012 0A20     		movs	r0, #10
 2017 0014 FFF7FEFF 		bl	test_cpu_pulse
 2018              		.loc 1 164 0
 2019 0018 4320     		movs	r0, #67
 2020 001a FFF7FEFF 		bl	test_emit_token
 2021              		.loc 1 166 0
 2022 001e 0020     		movs	r0, #0
 2023 0020 08BD     		pop	{r3, pc}
 2024              	.L93:
 2025 0022 00BF     		.align	2
 2026              	.L92:
 2027 0024 00000000 		.word	.LANCHOR2
 2028              		.cfi_endproc
 2029              	.LFE11:
 2030              		.size	thread2L, .-thread2L
 2031 0028 AFF30080 		.section	.text.thread2M,"ax",%progbits
 2031      AFF30080 
 2032              		.align	2
 2033              		.p2align 4,,15
ARM GAS  C:\DOCUME~1\z_80\LOCALS~1\Temp\cctp207y.s 			page 37


 2034              		.thumb
 2035              		.thumb_func
 2036              		.type	thread2M, %function
 2037              	thread2M:
 2038              	.LFB12:
 2039              		.loc 1 169 0
 2040              		.cfi_startproc
 2041              		@ args = 0, pretend = 0, frame = 0
 2042              		@ frame_needed = 0, uses_anonymous_args = 0
 2043              	.LVL68:
 2044 0000 08B5     		push	{r3, lr}
 2045              	.LCFI32:
 2046              		.cfi_def_cfa_offset 8
 2047              		.loc 1 172 0
 2048 0002 1420     		movs	r0, #20
 2049              	.LVL69:
 2050              		.cfi_offset 14, -4
 2051              		.cfi_offset 3, -8
 2052 0004 FFF7FEFF 		bl	chThdSleep
 2053              		.loc 1 173 0
 2054 0008 2820     		movs	r0, #40
 2055 000a FFF7FEFF 		bl	test_cpu_pulse
 2056              		.loc 1 174 0
 2057 000e 4220     		movs	r0, #66
 2058 0010 FFF7FEFF 		bl	test_emit_token
 2059              		.loc 1 176 0
 2060 0014 0020     		movs	r0, #0
 2061 0016 08BD     		pop	{r3, pc}
 2062              		.cfi_endproc
 2063              	.LFE12:
 2064              		.size	thread2M, .-thread2M
 2065 0018 AFF30080 		.section	.text.thread2H,"ax",%progbits
 2065      AFF30080 
 2066              		.align	2
 2067              		.p2align 4,,15
 2068              		.thumb
 2069              		.thumb_func
 2070              		.type	thread2H, %function
 2071              	thread2H:
 2072              	.LFB13:
 2073              		.loc 1 179 0
 2074              		.cfi_startproc
 2075              		@ args = 0, pretend = 0, frame = 0
 2076              		@ frame_needed = 0, uses_anonymous_args = 0
 2077              	.LVL70:
 2078 0000 08B5     		push	{r3, lr}
 2079              	.LCFI33:
 2080              		.cfi_def_cfa_offset 8
 2081              		.loc 1 182 0
 2082 0002 2820     		movs	r0, #40
 2083              	.LVL71:
 2084              		.cfi_offset 14, -4
 2085              		.cfi_offset 3, -8
 2086 0004 FFF7FEFF 		bl	chThdSleep
 2087              		.loc 1 183 0
 2088 0008 0648     		ldr	r0, .L96
 2089 000a FFF7FEFF 		bl	chMtxLock
ARM GAS  C:\DOCUME~1\z_80\LOCALS~1\Temp\cctp207y.s 			page 38


 2090              		.loc 1 184 0
 2091 000e 0A20     		movs	r0, #10
 2092 0010 FFF7FEFF 		bl	test_cpu_pulse
 2093              		.loc 1 185 0
 2094 0014 FFF7FEFF 		bl	chMtxUnlock
 2095              		.loc 1 186 0
 2096 0018 4120     		movs	r0, #65
 2097 001a FFF7FEFF 		bl	test_emit_token
 2098              		.loc 1 188 0
 2099 001e 0020     		movs	r0, #0
 2100 0020 08BD     		pop	{r3, pc}
 2101              	.L97:
 2102 0022 00BF     		.align	2
 2103              	.L96:
 2104 0024 00000000 		.word	.LANCHOR2
 2105              		.cfi_endproc
 2106              	.LFE13:
 2107              		.size	thread2H, .-thread2H
 2108              		.global	testmtx1
 2109              		.global	testmtx2
 2110              		.global	testmtx3
 2111              		.global	testmtx4
 2112              		.global	testmtx5
 2113              		.global	testmtx6
 2114              		.global	testmtx7
 2115              		.global	testmtx8
 2116              		.global	patternmtx
 2117 0028 AFF30080 		.section	.rodata.testmtx5,"a",%progbits
 2117      AFF30080 
 2118              		.align	2
 2119              		.type	testmtx5, %object
 2120              		.size	testmtx5, 16
 2121              	testmtx5:
 2122 0000 B8000000 		.word	.LC11
 2123 0004 00000000 		.word	mtx5_setup
 2124 0008 00000000 		.word	0
 2125 000c 00000000 		.word	mtx5_execute
 2126              		.section	.rodata.testmtx6,"a",%progbits
 2127              		.align	2
 2128              		.type	testmtx6, %object
 2129              		.size	testmtx6, 16
 2130              	testmtx6:
 2131 0000 C8000000 		.word	.LC12
 2132 0004 00000000 		.word	mtx6_setup
 2133 0008 00000000 		.word	0
 2134 000c 00000000 		.word	mtx6_execute
 2135              		.section	.rodata.testmtx7,"a",%progbits
 2136              		.align	2
 2137              		.type	testmtx7, %object
 2138              		.size	testmtx7, 16
 2139              	testmtx7:
 2140 0000 E0000000 		.word	.LC13
 2141 0004 00000000 		.word	mtx7_setup
 2142 0008 00000000 		.word	0
 2143 000c 00000000 		.word	mtx7_execute
 2144              		.section	.rodata.testmtx8,"a",%progbits
 2145              		.align	2
ARM GAS  C:\DOCUME~1\z_80\LOCALS~1\Temp\cctp207y.s 			page 39


 2146              		.type	testmtx8, %object
 2147              		.size	testmtx8, 16
 2148              	testmtx8:
 2149 0000 F8000000 		.word	.LC14
 2150 0004 00000000 		.word	mtx8_setup
 2151 0008 00000000 		.word	0
 2152 000c 00000000 		.word	mtx8_execute
 2153              		.section	.data.m1,"aw",%progbits
 2154              		.align	2
 2155              		.set	.LANCHOR2,. + 0
 2156              		.type	m1, %object
 2157              		.size	m1, 16
 2158              	m1:
 2159 0000 00000000 		.word	m1
 2160 0004 00000000 		.word	m1
 2161 0008 00000000 		.word	0
 2162 000c 00000000 		.word	0
 2163              		.section	.data.m2,"aw",%progbits
 2164              		.align	2
 2165              		.set	.LANCHOR1,. + 0
 2166              		.type	m2, %object
 2167              		.size	m2, 16
 2168              	m2:
 2169 0000 00000000 		.word	m2
 2170 0004 00000000 		.word	m2
 2171 0008 00000000 		.word	0
 2172 000c 00000000 		.word	0
 2173              		.section	.rodata.str1.4,"aMS",%progbits,1
 2174              		.align	2
 2175              	.LC0:
 2176 0000 4100     		.ascii	"A\000"
 2177 0002 0000     		.space	2
 2178              	.LC1:
 2179 0004 4300     		.ascii	"C\000"
 2180 0006 0000     		.space	2
 2181              	.LC2:
 2182 0008 4200     		.ascii	"B\000"
 2183 000a 0000     		.space	2
 2184              	.LC3:
 2185 000c 41424300 		.ascii	"ABC\000"
 2186              	.LC4:
 2187 0010 4500     		.ascii	"E\000"
 2188 0012 0000     		.space	2
 2189              	.LC5:
 2190 0014 4400     		.ascii	"D\000"
 2191 0016 0000     		.space	2
 2192              	.LC6:
 2193 0018 41424344 		.ascii	"ABCDE\000"
 2193      4500
 2194 001e 0000     		.space	2
 2195              	.LC7:
 2196 0020 4D757465 		.ascii	"Mutexes, priority enqueuing test\000"
 2196      7865732C 
 2196      20707269 
 2196      6F726974 
 2196      7920656E 
 2197 0041 000000   		.space	3
ARM GAS  C:\DOCUME~1\z_80\LOCALS~1\Temp\cctp207y.s 			page 40


 2198              	.LC8:
 2199 0044 4D757465 		.ascii	"Mutexes, priority inheritance, simple case\000"
 2199      7865732C 
 2199      20707269 
 2199      6F726974 
 2199      7920696E 
 2200 006f 00       		.space	1
 2201              	.LC9:
 2202 0070 4D757465 		.ascii	"Mutexes, priority inheritance, complex case\000"
 2202      7865732C 
 2202      20707269 
 2202      6F726974 
 2202      7920696E 
 2203              	.LC10:
 2204 009c 4D757465 		.ascii	"Mutexes, priority return\000"
 2204      7865732C 
 2204      20707269 
 2204      6F726974 
 2204      79207265 
 2205 00b5 000000   		.space	3
 2206              	.LC11:
 2207 00b8 4D757465 		.ascii	"Mutexes, status\000"
 2207      7865732C 
 2207      20737461 
 2207      74757300 
 2208              	.LC12:
 2209 00c8 436F6E64 		.ascii	"CondVar, signal test\000"
 2209      5661722C 
 2209      20736967 
 2209      6E616C20 
 2209      74657374 
 2210 00dd 000000   		.space	3
 2211              	.LC13:
 2212 00e0 436F6E64 		.ascii	"CondVar, broadcast test\000"
 2212      5661722C 
 2212      2062726F 
 2212      61646361 
 2212      73742074 
 2213              	.LC14:
 2214 00f8 436F6E64 		.ascii	"CondVar, boost test\000"
 2214      5661722C 
 2214      20626F6F 
 2214      73742074 
 2214      65737400 
 2215              		.section	.rodata.patternmtx,"a",%progbits
 2216              		.align	2
 2217              		.type	patternmtx, %object
 2218              		.size	patternmtx, 36
 2219              	patternmtx:
 2220 0000 00000000 		.word	testmtx1
 2221 0004 00000000 		.word	testmtx2
 2222 0008 00000000 		.word	testmtx3
 2223 000c 00000000 		.word	testmtx4
 2224 0010 00000000 		.word	testmtx5
 2225 0014 00000000 		.word	testmtx6
 2226 0018 00000000 		.word	testmtx7
 2227 001c 00000000 		.word	testmtx8
ARM GAS  C:\DOCUME~1\z_80\LOCALS~1\Temp\cctp207y.s 			page 41


 2228 0020 00000000 		.word	0
 2229              		.section	.data.c1,"aw",%progbits
 2230              		.align	2
 2231              		.set	.LANCHOR0,. + 0
 2232              		.type	c1, %object
 2233              		.size	c1, 8
 2234              	c1:
 2235 0000 00000000 		.word	c1
 2236 0004 00000000 		.word	c1
 2237              		.section	.rodata.testmtx1,"a",%progbits
 2238              		.align	2
 2239              		.type	testmtx1, %object
 2240              		.size	testmtx1, 16
 2241              	testmtx1:
 2242 0000 20000000 		.word	.LC7
 2243 0004 00000000 		.word	mtx1_setup
 2244 0008 00000000 		.word	0
 2245 000c 00000000 		.word	mtx1_execute
 2246              		.section	.rodata.testmtx2,"a",%progbits
 2247              		.align	2
 2248              		.type	testmtx2, %object
 2249              		.size	testmtx2, 16
 2250              	testmtx2:
 2251 0000 44000000 		.word	.LC8
 2252 0004 00000000 		.word	mtx2_setup
 2253 0008 00000000 		.word	0
 2254 000c 00000000 		.word	mtx2_execute
 2255              		.section	.rodata.testmtx3,"a",%progbits
 2256              		.align	2
 2257              		.type	testmtx3, %object
 2258              		.size	testmtx3, 16
 2259              	testmtx3:
 2260 0000 70000000 		.word	.LC9
 2261 0004 00000000 		.word	mtx3_setup
 2262 0008 00000000 		.word	0
 2263 000c 00000000 		.word	mtx3_execute
 2264              		.section	.rodata.testmtx4,"a",%progbits
 2265              		.align	2
 2266              		.type	testmtx4, %object
 2267              		.size	testmtx4, 16
 2268              	testmtx4:
 2269 0000 9C000000 		.word	.LC10
 2270 0004 00000000 		.word	mtx4_setup
 2271 0008 00000000 		.word	0
 2272 000c 00000000 		.word	mtx4_execute
 2273              		.text
 2274              	.Letext0: