ARM GAS  C:\DOCUME~1\z_80\LOCALS~1\Temp\ccR6lMq5.s 			page 1


   1              		.syntax unified
   2              		.cpu cortex-m3
   3              		.fpu softvfp
   4              		.eabi_attribute 20, 1
   5              		.eabi_attribute 21, 1
   6              		.eabi_attribute 23, 3
   7              		.eabi_attribute 24, 1
   8              		.eabi_attribute 25, 1
   9              		.eabi_attribute 26, 1
  10              		.eabi_attribute 30, 2
  11              		.eabi_attribute 18, 4
  12              		.thumb
  13              		.file	"test.c"
  20 0000 DF040000 		.text
  20      0200A002 
  20      00000201 
  20      FB0E0D00 
  20      01010101 
  21              	.Ltext0:
  22              		.cfi_sections	.debug_frame
  23              		.section	.text.tmr,"ax",%progbits
  24              		.align	2
  25              		.p2align 4,,15
  26              		.thumb
  27              		.thumb_func
  28              		.type	tmr, %function
  29              	tmr:
  30              	.LFB77:
  31              		.file 1 "../chibios_2.6.3/test/test.c"
  32              		.loc 1 261 0
  33              		.cfi_startproc
  34              		@ args = 0, pretend = 0, frame = 0
  35              		@ frame_needed = 0, uses_anonymous_args = 0
  36              		@ link register save eliminated.
  37              	.LVL0:
  38              		.loc 1 264 0
  39 0000 014B     		ldr	r3, .L2
  40 0002 0122     		movs	r2, #1
  41 0004 1A70     		strb	r2, [r3, #0]
  42              		.loc 1 265 0
  43 0006 7047     		bx	lr
  44              	.L3:
  45              		.align	2
  46              	.L2:
  47 0008 00000000 		.word	.LANCHOR0
  48              		.cfi_endproc
  49              	.LFE77:
  50              		.size	tmr, .-tmr
  51 000c AFF30080 		.section	.text.print_line,"ax",%progbits
  52              		.align	2
  53              		.p2align 4,,15
ARM GAS  C:\DOCUME~1\z_80\LOCALS~1\Temp\ccR6lMq5.s 			page 2


  54              		.thumb
  55              		.thumb_func
  56              		.type	print_line, %function
  57              	print_line:
  58              	.LFB80:
  59              		.loc 1 300 0
  60              		.cfi_startproc
  61              		@ args = 0, pretend = 0, frame = 0
  62              		@ frame_needed = 0, uses_anonymous_args = 0
  63              	.LVL1:
  64 0000 38B5     		push	{r3, r4, r5, lr}
  65              	.LCFI0:
  66              		.cfi_def_cfa_offset 16
  67 0002 0B4D     		ldr	r5, .L9
  68              		.cfi_offset 14, -4
  69              		.cfi_offset 5, -8
  70              		.cfi_offset 4, -12
  71              		.cfi_offset 3, -16
  72              		.loc 1 300 0
  73 0004 4C24     		movs	r4, #76
  74              	.LVL2:
  75              	.L5:
  76              		.loc 1 304 0 discriminator 2
  77 0006 2868     		ldr	r0, [r5, #0]
  78 0008 2D21     		movs	r1, #45
  79 000a 0368     		ldr	r3, [r0, #0]
  80 000c 013C     		subs	r4, r4, #1
  81 000e 9A68     		ldr	r2, [r3, #8]
  82 0010 9047     		blx	r2
  83 0012 2868     		ldr	r0, [r5, #0]
  84 0014 0168     		ldr	r1, [r0, #0]
  85 0016 8B68     		ldr	r3, [r1, #8]
  86 0018 2D21     		movs	r1, #45
  87 001a 9847     		blx	r3
  88              		.loc 1 303 0 discriminator 2
  89 001c 013C     		subs	r4, r4, #1
  90 001e F2D1     		bne	.L5
  91              		.loc 1 305 0
  92 0020 0348     		ldr	r0, .L9
  93 0022 0449     		ldr	r1, .L9+4
  94 0024 0068     		ldr	r0, [r0, #0]
  95 0026 0268     		ldr	r2, [r0, #0]
  96 0028 1368     		ldr	r3, [r2, #0]
  97 002a 0222     		movs	r2, #2
  98 002c 9847     		blx	r3
  99              		.loc 1 306 0
 100 002e 38BD     		pop	{r3, r4, r5, pc}
 101              	.L10:
 102              		.align	2
 103              	.L9:
 104 0030 00000000 		.word	.LANCHOR1
 105 0034 00000000 		.word	.LC0
 106              		.cfi_endproc
 107              	.LFE80:
 108              		.size	print_line, .-print_line
 109 0038 AFF30080 		.section	.text.test_printn,"ax",%progbits
 109      AFF30080 
ARM GAS  C:\DOCUME~1\z_80\LOCALS~1\Temp\ccR6lMq5.s 			page 3


 110              		.align	2
 111              		.p2align 4,,15
 112              		.global	test_printn
 113              		.thumb
 114              		.thumb_func
 115              		.type	test_printn, %function
 116              	test_printn:
 117              	.LFB63:
 118              		.loc 1 91 0
 119              		.cfi_startproc
 120              		@ args = 0, pretend = 0, frame = 16
 121              		@ frame_needed = 0, uses_anonymous_args = 0
 122              	.LVL3:
 123 0000 F0B5     		push	{r4, r5, r6, r7, lr}
 124              	.LCFI1:
 125              		.cfi_def_cfa_offset 20
 126 0002 85B0     		sub	sp, sp, #20
 127              	.LCFI2:
 128              		.cfi_def_cfa_offset 40
 129              		.loc 1 94 0
 130 0004 0028     		cmp	r0, #0
 131 0006 31D0     		beq	.L24
 132              		.cfi_offset 14, -4
 133              		.cfi_offset 7, -8
 134              		.cfi_offset 6, -12
 135              		.cfi_offset 5, -16
 136              		.cfi_offset 4, -20
 137              		.loc 1 99 0
 138 0008 1C49     		ldr	r1, .L25
 139              		.loc 1 97 0
 140 000a 6E46     		mov	r6, sp
 141 000c 6F46     		mov	r7, sp
 142              	.LVL4:
 143              	.L14:
 144              		.loc 1 99 0
 145 000e A1FB0023 		umull	r2, r3, r1, r0
 146 0012 DB08     		lsrs	r3, r3, #3
 147 0014 03EB830C 		add	ip, r3, r3, lsl #2
 148 0018 A0EB4C02 		sub	r2, r0, ip, lsl #1
 149 001c 02F1300C 		add	ip, r2, #48
 150              		.loc 1 98 0
 151 0020 1846     		mov	r0, r3
 152              		.loc 1 99 0
 153 0022 07F801CB 		strb	ip, [r7], #1
 154              	.LVL5:
 155              		.loc 1 98 0
 156 0026 002B     		cmp	r3, #0
 157 0028 F1D1     		bne	.L14
 158              		.loc 1 100 0
 159 002a B742     		cmp	r7, r6
 160 002c 1CD9     		bls	.L11
 161 002e 144D     		ldr	r5, .L25+4
 162              		.loc 1 101 0
 163 0030 3C46     		mov	r4, r7
 164 0032 2868     		ldr	r0, [r5, #0]
 165              	.LVL6:
 166 0034 F21B     		subs	r2, r6, r7
ARM GAS  C:\DOCUME~1\z_80\LOCALS~1\Temp\ccR6lMq5.s 			page 4


 167 0036 0368     		ldr	r3, [r0, #0]
 168 0038 14F8011D 		ldrb	r1, [r4, #-1]!	@ zero_extendqisi2
 169 003c D743     		mvns	r7, r2
 170 003e 9A68     		ldr	r2, [r3, #8]
 171 0040 9047     		blx	r2
 172              		.loc 1 100 0
 173 0042 B442     		cmp	r4, r6
 174 0044 07F00107 		and	r7, r7, #1
 175 0048 0ED0     		beq	.L11
 176 004a 2FB9     		cbnz	r7, .L23
 177              	.L15:
 178              		.loc 1 101 0
 179 004c 2868     		ldr	r0, [r5, #0]
 180 004e 14F8011D 		ldrb	r1, [r4, #-1]!	@ zero_extendqisi2
 181 0052 0268     		ldr	r2, [r0, #0]
 182 0054 9368     		ldr	r3, [r2, #8]
 183 0056 9847     		blx	r3
 184              	.L23:
 185 0058 2868     		ldr	r0, [r5, #0]
 186 005a 14F8011D 		ldrb	r1, [r4, #-1]!	@ zero_extendqisi2
 187 005e 0268     		ldr	r2, [r0, #0]
 188 0060 9368     		ldr	r3, [r2, #8]
 189 0062 9847     		blx	r3
 190              		.loc 1 100 0
 191 0064 B442     		cmp	r4, r6
 192 0066 F1D1     		bne	.L15
 193              	.L11:
 194              		.loc 1 103 0
 195 0068 05B0     		add	sp, sp, #20
 196 006a F0BD     		pop	{r4, r5, r6, r7, pc}
 197              	.LVL7:
 198              	.L24:
 199              		.loc 1 95 0
 200 006c 0448     		ldr	r0, .L25+4
 201              	.LVL8:
 202 006e 3021     		movs	r1, #48
 203 0070 0068     		ldr	r0, [r0, #0]
 204 0072 0268     		ldr	r2, [r0, #0]
 205 0074 9368     		ldr	r3, [r2, #8]
 206 0076 9847     		blx	r3
 207 0078 F6E7     		b	.L11
 208              	.L26:
 209 007a 00BF     		.align	2
 210              	.L25:
 211 007c CDCCCCCC 		.word	-858993459
 212 0080 00000000 		.word	.LANCHOR1
 213              		.cfi_endproc
 214              	.LFE63:
 215              		.size	test_printn, .-test_printn
 216 0084 AFF30080 		.section	.text.test_print,"ax",%progbits
 216      AFF30080 
 216      AFF30080 
 217              		.align	2
 218              		.p2align 4,,15
 219              		.global	test_print
 220              		.thumb
 221              		.thumb_func
ARM GAS  C:\DOCUME~1\z_80\LOCALS~1\Temp\ccR6lMq5.s 			page 5


 222              		.type	test_print, %function
 223              	test_print:
 224              	.LFB64:
 225              		.loc 1 110 0
 226              		.cfi_startproc
 227              		@ args = 0, pretend = 0, frame = 0
 228              		@ frame_needed = 0, uses_anonymous_args = 0
 229              	.LVL9:
 230 0000 38B5     		push	{r3, r4, r5, lr}
 231              	.LCFI3:
 232              		.cfi_def_cfa_offset 16
 233              		.loc 1 112 0
 234 0002 0178     		ldrb	r1, [r0, #0]	@ zero_extendqisi2
 235 0004 49B1     		cbz	r1, .L27
 236              		.cfi_offset 14, -4
 237              		.cfi_offset 5, -8
 238              		.cfi_offset 4, -12
 239              		.cfi_offset 3, -16
 240 0006 054D     		ldr	r5, .L31
 241 0008 0446     		mov	r4, r0
 242              	.LVL10:
 243              	.L29:
 244              		.loc 1 113 0
 245 000a 2868     		ldr	r0, [r5, #0]
 246 000c 0268     		ldr	r2, [r0, #0]
 247 000e 9368     		ldr	r3, [r2, #8]
 248 0010 9847     		blx	r3
 249              		.loc 1 112 0
 250 0012 14F8011F 		ldrb	r1, [r4, #1]!	@ zero_extendqisi2
 251 0016 0029     		cmp	r1, #0
 252 0018 F7D1     		bne	.L29
 253              	.L27:
 254 001a 38BD     		pop	{r3, r4, r5, pc}
 255              	.L32:
 256              		.align	2
 257              	.L31:
 258 001c 00000000 		.word	.LANCHOR1
 259              		.cfi_endproc
 260              	.LFE64:
 261              		.size	test_print, .-test_print
 262              		.section	.text.test_println,"ax",%progbits
 263              		.align	2
 264              		.p2align 4,,15
 265              		.global	test_println
 266              		.thumb
 267              		.thumb_func
 268              		.type	test_println, %function
 269              	test_println:
 270              	.LFB65:
 271              		.loc 1 121 0
 272              		.cfi_startproc
 273              		@ args = 0, pretend = 0, frame = 0
 274              		@ frame_needed = 0, uses_anonymous_args = 0
 275              	.LVL11:
 276 0000 08B5     		push	{r3, lr}
 277              	.LCFI4:
 278              		.cfi_def_cfa_offset 8
ARM GAS  C:\DOCUME~1\z_80\LOCALS~1\Temp\ccR6lMq5.s 			page 6


 279              		.loc 1 123 0
 280              		.cfi_offset 14, -4
 281              		.cfi_offset 3, -8
 282 0002 FFF7FEFF 		bl	test_print
 283              	.LVL12:
 284              		.loc 1 124 0
 285 0006 0448     		ldr	r0, .L34
 286 0008 0449     		ldr	r1, .L34+4
 287 000a 0068     		ldr	r0, [r0, #0]
 288 000c 0222     		movs	r2, #2
 289 000e 0368     		ldr	r3, [r0, #0]
 290 0010 1B68     		ldr	r3, [r3, #0]
 291 0012 9847     		blx	r3
 292              		.loc 1 125 0
 293 0014 08BD     		pop	{r3, pc}
 294              	.L35:
 295 0016 00BF     		.align	2
 296              	.L34:
 297 0018 00000000 		.word	.LANCHOR1
 298 001c 00000000 		.word	.LC0
 299              		.cfi_endproc
 300              	.LFE65:
 301              		.size	test_println, .-test_println
 302              		.section	.text.test_emit_token,"ax",%progbits
 303              		.align	2
 304              		.p2align 4,,15
 305              		.global	test_emit_token
 306              		.thumb
 307              		.thumb_func
 308              		.type	test_emit_token, %function
 309              	test_emit_token:
 310              	.LFB68:
 311              		.loc 1 147 0
 312              		.cfi_startproc
 313              		@ args = 0, pretend = 0, frame = 0
 314              		@ frame_needed = 0, uses_anonymous_args = 0
 315              		@ link register save eliminated.
 316              	.LVL13:
 317              	.LBB22:
 318              		.loc 1 149 0
 319 0000 2023     		movs	r3, #32
 320              	.LVL14:
 321              	@ 149 "../chibios_2.6.3/test/test.c" 1
 322 0002 83F31188 		msr     BASEPRI, r3
 323              	@ 0 "" 2
 324              	.LVL15:
 325              		.thumb
 326              	.LBE22:
 327              		.loc 1 150 0
 328 0006 0449     		ldr	r1, .L37
 329              	.LBB23:
 330              		.loc 1 151 0
 331 0008 0023     		movs	r3, #0
 332              	.LVL16:
 333              	.LBE23:
 334              		.loc 1 150 0
 335 000a 0A68     		ldr	r2, [r1, #0]
ARM GAS  C:\DOCUME~1\z_80\LOCALS~1\Temp\ccR6lMq5.s 			page 7


 336 000c 02F8010B 		strb	r0, [r2], #1
 337 0010 0A60     		str	r2, [r1, #0]
 338              	.LBB24:
 339              		.loc 1 151 0
 340              	@ 151 "../chibios_2.6.3/test/test.c" 1
 341 0012 83F31188 		msr     BASEPRI, r3
 342              	@ 0 "" 2
 343              	.LVL17:
 344              		.thumb
 345              	.LBE24:
 346              		.loc 1 152 0
 347 0016 7047     		bx	lr
 348              	.L38:
 349              		.align	2
 350              	.L37:
 351 0018 00000000 		.word	.LANCHOR2
 352              		.cfi_endproc
 353              	.LFE68:
 354              		.size	test_emit_token, .-test_emit_token
 355 001c AFF30080 		.section	.text._test_fail,"ax",%progbits
 356              		.align	2
 357              		.p2align 4,,15
 358              		.global	_test_fail
 359              		.thumb
 360              		.thumb_func
 361              		.type	_test_fail, %function
 362              	_test_fail:
 363              	.LFB69:
 364              		.loc 1 157 0
 365              		.cfi_startproc
 366              		@ args = 0, pretend = 0, frame = 0
 367              		@ frame_needed = 0, uses_anonymous_args = 0
 368              		@ link register save eliminated.
 369              	.LVL18:
 370              		.loc 1 161 0
 371 0000 0449     		ldr	r1, .L40
 372              		.loc 1 160 0
 373 0002 054A     		ldr	r2, .L40+4
 374              		.loc 1 161 0
 375 0004 0860     		str	r0, [r1, #0]
 376              		.loc 1 159 0
 377 0006 0548     		ldr	r0, .L40+8
 378              	.LVL19:
 379 0008 0123     		movs	r3, #1
 380 000a 0370     		strb	r3, [r0, #0]
 381              		.loc 1 160 0
 382 000c 1370     		strb	r3, [r2, #0]
 383              		.loc 1 163 0
 384 000e 1846     		mov	r0, r3
 385 0010 7047     		bx	lr
 386              	.L41:
 387 0012 00BF     		.align	2
 388              	.L40:
 389 0014 00000000 		.word	.LANCHOR5
 390 0018 00000000 		.word	.LANCHOR4
 391 001c 00000000 		.word	.LANCHOR3
 392              		.cfi_endproc
ARM GAS  C:\DOCUME~1\z_80\LOCALS~1\Temp\ccR6lMq5.s 			page 8


 393              	.LFE69:
 394              		.size	_test_fail, .-_test_fail
 395              		.section	.text._test_assert,"ax",%progbits
 396              		.align	2
 397              		.p2align 4,,15
 398              		.global	_test_assert
 399              		.thumb
 400              		.thumb_func
 401              		.type	_test_assert, %function
 402              	_test_assert:
 403              	.LFB70:
 404              		.loc 1 165 0
 405              		.cfi_startproc
 406              		@ args = 0, pretend = 0, frame = 0
 407              		@ frame_needed = 0, uses_anonymous_args = 0
 408              		@ link register save eliminated.
 409              	.LVL20:
 410              		.loc 1 167 0
 411 0000 41B9     		cbnz	r1, .L44
 412              	.LVL21:
 413              	.LBB25:
 414              	.LBB26:
 415              		.loc 1 159 0
 416 0002 054A     		ldr	r2, .L45
 417 0004 0123     		movs	r3, #1
 418 0006 1370     		strb	r3, [r2, #0]
 419              		.loc 1 160 0
 420 0008 0449     		ldr	r1, .L45+4
 421              	.LVL22:
 422              		.loc 1 161 0
 423 000a 054A     		ldr	r2, .L45+8
 424              		.loc 1 160 0
 425 000c 0B70     		strb	r3, [r1, #0]
 426              		.loc 1 161 0
 427 000e 1060     		str	r0, [r2, #0]
 428              	.LBE26:
 429              	.LBE25:
 430              		.loc 1 168 0
 431 0010 1846     		mov	r0, r3
 432              	.LVL23:
 433 0012 7047     		bx	lr
 434              	.LVL24:
 435              	.L44:
 436              		.loc 1 169 0
 437 0014 0020     		movs	r0, #0
 438              	.LVL25:
 439              		.loc 1 170 0
 440 0016 7047     		bx	lr
 441              	.L46:
 442              		.align	2
 443              	.L45:
 444 0018 00000000 		.word	.LANCHOR3
 445 001c 00000000 		.word	.LANCHOR4
 446 0020 00000000 		.word	.LANCHOR5
 447              		.cfi_endproc
 448              	.LFE70:
 449              		.size	_test_assert, .-_test_assert
ARM GAS  C:\DOCUME~1\z_80\LOCALS~1\Temp\ccR6lMq5.s 			page 9


 450 0024 AFF30080 		.section	.text._test_assert_sequence,"ax",%progbits
 450      AFF30080 
 450      AFF30080 
 451              		.align	2
 452              		.p2align 4,,15
 453              		.global	_test_assert_sequence
 454              		.thumb
 455              		.thumb_func
 456              		.type	_test_assert_sequence, %function
 457              	_test_assert_sequence:
 458              	.LFB71:
 459              		.loc 1 172 0
 460              		.cfi_startproc
 461              		@ args = 0, pretend = 0, frame = 0
 462              		@ frame_needed = 0, uses_anonymous_args = 0
 463              		@ link register save eliminated.
 464              	.LVL26:
 465 0000 2DE9F001 		push	{r4, r5, r6, r7, r8}
 466              	.LCFI5:
 467              		.cfi_def_cfa_offset 20
 468              		.loc 1 181 0
 469 0004 194C     		ldr	r4, .L63
 470              		.cfi_offset 8, -4
 471              		.cfi_offset 7, -8
 472              		.cfi_offset 6, -12
 473              		.cfi_offset 5, -16
 474              		.cfi_offset 4, -20
 475              		.loc 1 173 0
 476 0006 1A4A     		ldr	r2, .L63+4
 477              		.loc 1 181 0
 478 0008 2368     		ldr	r3, [r4, #0]
 479              		.loc 1 173 0
 480 000a 1546     		mov	r5, r2
 481 000c 9E1A     		subs	r6, r3, r2
 482 000e 16F0010F 		tst	r6, #1
 483 0012 17D0     		beq	.L48
 484              	.LVL27:
 485              		.loc 1 174 0
 486 0014 9342     		cmp	r3, r2
 487 0016 19D9     		bls	.L60
 488              		.loc 1 175 0
 489 0018 1546     		mov	r5, r2
 490 001a 15F8017B 		ldrb	r7, [r5], #1	@ zero_extendqisi2
 491 001e 11F8016B 		ldrb	r6, [r1], #1	@ zero_extendqisi2
 492              	.LVL28:
 493 0022 B742     		cmp	r7, r6
 494 0024 0ED0     		beq	.L48
 495 0026 16E0     		b	.L62
 496              	.LVL29:
 497              	.L50:
 498 0028 17F8018B 		ldrb	r8, [r7], #1	@ zero_extendqisi2
 499 002c 16F801CB 		ldrb	ip, [r6], #1	@ zero_extendqisi2
 500              	.LVL30:
 501 0030 E045     		cmp	r8, ip
 502 0032 10D1     		bne	.L62
 503 0034 95F80180 		ldrb	r8, [r5, #1]	@ zero_extendqisi2
 504 0038 91F801C0 		ldrb	ip, [r1, #1]	@ zero_extendqisi2
ARM GAS  C:\DOCUME~1\z_80\LOCALS~1\Temp\ccR6lMq5.s 			page 10


 505 003c 7D1C     		adds	r5, r7, #1
 506 003e 711C     		adds	r1, r6, #1
 507 0040 E045     		cmp	r8, ip
 508 0042 08D1     		bne	.L62
 509              	.L48:
 510              	.LVL31:
 511              		.loc 1 174 0 discriminator 1
 512 0044 AB42     		cmp	r3, r5
 513              		.loc 1 175 0 discriminator 1
 514 0046 2F46     		mov	r7, r5
 515 0048 0E46     		mov	r6, r1
 516              		.loc 1 174 0 discriminator 1
 517 004a EDD8     		bhi	.L50
 518              	.L60:
 519              		.loc 1 178 0
 520 004c 0B78     		ldrb	r3, [r1, #0]	@ zero_extendqisi2
 521 004e 13B9     		cbnz	r3, .L62
 522              	.LBB27:
 523              	.LBB28:
 524              		.loc 1 132 0
 525 0050 2260     		str	r2, [r4, #0]
 526              	.LBE28:
 527              	.LBE27:
 528              		.loc 1 181 0
 529 0052 1846     		mov	r0, r3
 530              	.LVL32:
 531 0054 07E0     		b	.L49
 532              	.LVL33:
 533              	.L62:
 534              	.LBB29:
 535              	.LBB30:
 536              		.loc 1 159 0
 537 0056 074A     		ldr	r2, .L63+8
 538 0058 0123     		movs	r3, #1
 539 005a 1370     		strb	r3, [r2, #0]
 540              		.loc 1 160 0
 541 005c 0649     		ldr	r1, .L63+12
 542              		.loc 1 161 0
 543 005e 074A     		ldr	r2, .L63+16
 544              		.loc 1 160 0
 545 0060 0B70     		strb	r3, [r1, #0]
 546              		.loc 1 161 0
 547 0062 1060     		str	r0, [r2, #0]
 548              	.LBE30:
 549              	.LBE29:
 550              		.loc 1 179 0
 551 0064 1846     		mov	r0, r3
 552              	.LVL34:
 553              	.L49:
 554              		.loc 1 182 0
 555 0066 BDE8F001 		pop	{r4, r5, r6, r7, r8}
 556 006a 7047     		bx	lr
 557              	.L64:
 558              		.align	2
 559              	.L63:
 560 006c 00000000 		.word	.LANCHOR2
 561 0070 00000000 		.word	.LANCHOR6
ARM GAS  C:\DOCUME~1\z_80\LOCALS~1\Temp\ccR6lMq5.s 			page 11


 562 0074 00000000 		.word	.LANCHOR3
 563 0078 00000000 		.word	.LANCHOR4
 564 007c 00000000 		.word	.LANCHOR5
 565              		.cfi_endproc
 566              	.LFE71:
 567              		.size	_test_assert_sequence, .-_test_assert_sequence
 568              		.section	.text._test_assert_time_window,"ax",%progbits
 569              		.align	2
 570              		.p2align 4,,15
 571              		.global	_test_assert_time_window
 572              		.thumb
 573              		.thumb_func
 574              		.type	_test_assert_time_window, %function
 575              	_test_assert_time_window:
 576              	.LFB72:
 577              		.loc 1 184 0
 578              		.cfi_startproc
 579              		@ args = 0, pretend = 0, frame = 0
 580              		@ frame_needed = 0, uses_anonymous_args = 0
 581              		@ link register save eliminated.
 582              	.LVL35:
 583              		.loc 1 186 0
 584 0000 084B     		ldr	r3, .L68
 585 0002 521A     		subs	r2, r2, r1
 586              	.LVL36:
 587 0004 DB68     		ldr	r3, [r3, #12]
 588 0006 591A     		subs	r1, r3, r1
 589              	.LVL37:
 590              	.LBB31:
 591              	.LBB32:
 592              		.loc 1 167 0
 593 0008 9142     		cmp	r1, r2
 594 000a 08D3     		bcc	.L67
 595              	.LVL38:
 596              	.LBB33:
 597              	.LBB34:
 598              		.loc 1 159 0
 599 000c 064A     		ldr	r2, .L68+4
 600 000e 0121     		movs	r1, #1
 601 0010 1170     		strb	r1, [r2, #0]
 602              		.loc 1 160 0
 603 0012 064B     		ldr	r3, .L68+8
 604              		.loc 1 161 0
 605 0014 064A     		ldr	r2, .L68+12
 606              		.loc 1 160 0
 607 0016 1970     		strb	r1, [r3, #0]
 608              		.loc 1 161 0
 609 0018 1060     		str	r0, [r2, #0]
 610              		.loc 1 168 0
 611 001a 0846     		mov	r0, r1
 612              	.LVL39:
 613 001c 7047     		bx	lr
 614              	.LVL40:
 615              	.L67:
 616              	.LBE34:
 617              	.LBE33:
 618              		.loc 1 169 0
ARM GAS  C:\DOCUME~1\z_80\LOCALS~1\Temp\ccR6lMq5.s 			page 12


 619 001e 0020     		movs	r0, #0
 620              	.LVL41:
 621              	.LBE32:
 622              	.LBE31:
 623              		.loc 1 187 0
 624 0020 7047     		bx	lr
 625              	.L69:
 626 0022 00BF     		.align	2
 627              	.L68:
 628 0024 00000000 		.word	vtlist
 629 0028 00000000 		.word	.LANCHOR3
 630 002c 00000000 		.word	.LANCHOR4
 631 0030 00000000 		.word	.LANCHOR5
 632              		.cfi_endproc
 633              	.LFE72:
 634              		.size	_test_assert_time_window, .-_test_assert_time_window
 635 0034 AFF30080 		.section	.text.test_terminate_threads,"ax",%progbits
 635      AFF30080 
 635      AFF30080 
 636              		.align	2
 637              		.p2align 4,,15
 638              		.global	test_terminate_threads
 639              		.thumb
 640              		.thumb_func
 641              		.type	test_terminate_threads, %function
 642              	test_terminate_threads:
 643              	.LFB73:
 644              		.loc 1 196 0
 645              		.cfi_startproc
 646              		@ args = 0, pretend = 0, frame = 0
 647              		@ frame_needed = 0, uses_anonymous_args = 0
 648              	.LVL42:
 649 0000 10B5     		push	{r4, lr}
 650              	.LCFI6:
 651              		.cfi_def_cfa_offset 8
 652              		.loc 1 200 0
 653 0002 0C4C     		ldr	r4, .L76
 654              		.cfi_offset 14, -4
 655              		.cfi_offset 4, -8
 656 0004 2068     		ldr	r0, [r4, #0]
 657 0006 08B1     		cbz	r0, .L71
 658              		.loc 1 201 0
 659 0008 FFF7FEFF 		bl	chThdTerminate
 660              	.L71:
 661              	.LVL43:
 662              		.loc 1 200 0
 663 000c 6068     		ldr	r0, [r4, #4]
 664 000e 08B1     		cbz	r0, .L72
 665              		.loc 1 201 0
 666 0010 FFF7FEFF 		bl	chThdTerminate
 667              	.L72:
 668              	.LVL44:
 669              		.loc 1 200 0
 670 0014 A068     		ldr	r0, [r4, #8]
 671 0016 08B1     		cbz	r0, .L73
 672              		.loc 1 201 0
 673 0018 FFF7FEFF 		bl	chThdTerminate
ARM GAS  C:\DOCUME~1\z_80\LOCALS~1\Temp\ccR6lMq5.s 			page 13


 674              	.L73:
 675              	.LVL45:
 676              		.loc 1 200 0
 677 001c E068     		ldr	r0, [r4, #12]
 678 001e 08B1     		cbz	r0, .L74
 679              		.loc 1 201 0
 680 0020 FFF7FEFF 		bl	chThdTerminate
 681              	.L74:
 682              	.LVL46:
 683              		.loc 1 200 0
 684 0024 2069     		ldr	r0, [r4, #16]
 685 0026 18B1     		cbz	r0, .L70
 686              		.loc 1 202 0
 687 0028 BDE81040 		pop	{r4, lr}
 688              		.loc 1 201 0
 689 002c FFF7FEBF 		b	chThdTerminate
 690              	.L70:
 691 0030 10BD     		pop	{r4, pc}
 692              	.L77:
 693 0032 00BF     		.align	2
 694              	.L76:
 695 0034 00000000 		.word	.LANCHOR7
 696              		.cfi_endproc
 697              	.LFE73:
 698              		.size	test_terminate_threads, .-test_terminate_threads
 699 0038 AFF30080 		.section	.text.test_wait_threads,"ax",%progbits
 699      AFF30080 
 700              		.align	2
 701              		.p2align 4,,15
 702              		.global	test_wait_threads
 703              		.thumb
 704              		.thumb_func
 705              		.type	test_wait_threads, %function
 706              	test_wait_threads:
 707              	.LFB74:
 708              		.loc 1 207 0
 709              		.cfi_startproc
 710              		@ args = 0, pretend = 0, frame = 0
 711              		@ frame_needed = 0, uses_anonymous_args = 0
 712              	.LVL47:
 713 0000 10B5     		push	{r4, lr}
 714              	.LCFI7:
 715              		.cfi_def_cfa_offset 8
 716              		.loc 1 211 0
 717 0002 124C     		ldr	r4, .L84
 718              		.cfi_offset 14, -4
 719              		.cfi_offset 4, -8
 720 0004 2068     		ldr	r0, [r4, #0]
 721 0006 18B1     		cbz	r0, .L79
 722              		.loc 1 212 0
 723 0008 FFF7FEFF 		bl	chThdWait
 724              		.loc 1 213 0
 725 000c 0023     		movs	r3, #0
 726 000e 2360     		str	r3, [r4, #0]
 727              	.L79:
 728              	.LVL48:
 729              		.loc 1 211 0
ARM GAS  C:\DOCUME~1\z_80\LOCALS~1\Temp\ccR6lMq5.s 			page 14


 730 0010 6068     		ldr	r0, [r4, #4]
 731 0012 20B1     		cbz	r0, .L80
 732              		.loc 1 212 0
 733 0014 FFF7FEFF 		bl	chThdWait
 734              		.loc 1 213 0
 735 0018 0C48     		ldr	r0, .L84
 736 001a 0022     		movs	r2, #0
 737 001c 4260     		str	r2, [r0, #4]
 738              	.L80:
 739              	.LVL49:
 740              		.loc 1 211 0
 741 001e A068     		ldr	r0, [r4, #8]
 742 0020 20B1     		cbz	r0, .L81
 743              		.loc 1 212 0
 744 0022 FFF7FEFF 		bl	chThdWait
 745              		.loc 1 213 0
 746 0026 094B     		ldr	r3, .L84
 747 0028 0021     		movs	r1, #0
 748 002a 9960     		str	r1, [r3, #8]
 749              	.L81:
 750              	.LVL50:
 751              		.loc 1 211 0
 752 002c E068     		ldr	r0, [r4, #12]
 753 002e 20B1     		cbz	r0, .L82
 754              		.loc 1 212 0
 755 0030 FFF7FEFF 		bl	chThdWait
 756              		.loc 1 213 0
 757 0034 0548     		ldr	r0, .L84
 758 0036 0022     		movs	r2, #0
 759 0038 C260     		str	r2, [r0, #12]
 760              	.L82:
 761              	.LVL51:
 762              		.loc 1 211 0
 763 003a 2069     		ldr	r0, [r4, #16]
 764 003c 20B1     		cbz	r0, .L78
 765              		.loc 1 212 0
 766 003e FFF7FEFF 		bl	chThdWait
 767              		.loc 1 213 0
 768 0042 024B     		ldr	r3, .L84
 769 0044 0021     		movs	r1, #0
 770 0046 1961     		str	r1, [r3, #16]
 771              	.LVL52:
 772              	.L78:
 773 0048 10BD     		pop	{r4, pc}
 774              	.L85:
 775 004a 00BF     		.align	2
 776              	.L84:
 777 004c 00000000 		.word	.LANCHOR7
 778              		.cfi_endproc
 779              	.LFE74:
 780              		.size	test_wait_threads, .-test_wait_threads
 781              		.section	.text.test_cpu_pulse,"ax",%progbits
 782              		.align	2
 783              		.p2align 4,,15
 784              		.global	test_cpu_pulse
 785              		.thumb
 786              		.thumb_func
ARM GAS  C:\DOCUME~1\z_80\LOCALS~1\Temp\ccR6lMq5.s 			page 15


 787              		.type	test_cpu_pulse, %function
 788              	test_cpu_pulse:
 789              	.LFB75:
 790              		.loc 1 224 0
 791              		.cfi_startproc
 792              		@ args = 0, pretend = 0, frame = 0
 793              		@ frame_needed = 0, uses_anonymous_args = 0
 794              		@ link register save eliminated.
 795              	.LVL53:
 796              		.loc 1 228 0
 797 0000 4FF47A7C 		mov	ip, #1000
 798 0004 0CFB00F1 		mul	r1, ip, r0
 799              		.loc 1 224 0
 800 0008 10B4     		push	{r4}
 801              	.LCFI8:
 802              		.cfi_def_cfa_offset 4
 803              		.loc 1 227 0
 804 000a 0D4C     		ldr	r4, .L98
 805              		.cfi_offset 4, -4
 806              		.loc 1 228 0
 807 000c 0D4A     		ldr	r2, .L98+4
 808              		.loc 1 227 0
 809 000e A469     		ldr	r4, [r4, #24]
 810              		.loc 1 228 0
 811 0010 4B1E     		subs	r3, r1, #1
 812 0012 A2FB0331 		umull	r3, r1, r2, r3
 813              		.loc 1 227 0
 814 0016 226A     		ldr	r2, [r4, #32]
 815              	.LVL54:
 816              		.loc 1 228 0
 817 0018 501C     		adds	r0, r2, #1
 818              	.LVL55:
 819 001a 00EB9111 		add	r1, r0, r1, lsr #6
 820              	.LVL56:
 821              	.L96:
 822              		.loc 1 235 0
 823 001e 8A42     		cmp	r2, r1
 824              		.loc 1 230 0
 825 0020 236A     		ldr	r3, [r4, #32]
 826              	.LVL57:
 827              		.loc 1 235 0
 828 0022 03D2     		bcs	.L87
 829              		.loc 1 235 0 is_stmt 0 discriminator 1
 830 0024 9A42     		cmp	r2, r3
 831 0026 03D9     		bls	.L97
 832              	.LVL58:
 833              	.L95:
 834              		.loc 1 237 0 is_stmt 1
 835 0028 10BC     		pop	{r4}
 836 002a 7047     		bx	lr
 837              	.LVL59:
 838              	.L87:
 839              		.loc 1 235 0 discriminator 2
 840 002c 9A42     		cmp	r2, r3
 841 002e F6D9     		bls	.L96
 842              	.L97:
 843              		.loc 1 235 0 is_stmt 0
ARM GAS  C:\DOCUME~1\z_80\LOCALS~1\Temp\ccR6lMq5.s 			page 16


 844 0030 9942     		cmp	r1, r3
 845 0032 94BF     		ite	ls
 846 0034 0023     		movls	r3, #0
 847              	.LVL60:
 848 0036 0123     		movhi	r3, #1
 849              		.loc 1 236 0 is_stmt 1
 850 0038 002B     		cmp	r3, #0
 851 003a F0D1     		bne	.L96
 852 003c F4E7     		b	.L95
 853              	.L99:
 854 003e 00BF     		.align	2
 855              	.L98:
 856 0040 00000000 		.word	rlist
 857 0044 D34D6210 		.word	274877907
 858              		.cfi_endproc
 859              	.LFE75:
 860              		.size	test_cpu_pulse, .-test_cpu_pulse
 861 0048 AFF30080 		.section	.text.test_wait_tick,"ax",%progbits
 861      AFF30080 
 862              		.align	2
 863              		.p2align 4,,15
 864              		.global	test_wait_tick
 865              		.thumb
 866              		.thumb_func
 867              		.type	test_wait_tick, %function
 868              	test_wait_tick:
 869              	.LFB76:
 870              		.loc 1 245 0
 871              		.cfi_startproc
 872              		@ args = 0, pretend = 0, frame = 0
 873              		@ frame_needed = 0, uses_anonymous_args = 0
 874 0000 08B5     		push	{r3, lr}
 875              	.LCFI9:
 876              		.cfi_def_cfa_offset 8
 877              		.loc 1 247 0
 878 0002 0120     		movs	r0, #1
 879              		.cfi_offset 14, -4
 880              		.cfi_offset 3, -8
 881 0004 FFF7FEFF 		bl	chThdSleep
 882              		.loc 1 248 0
 883 0008 014B     		ldr	r3, .L101
 884 000a D868     		ldr	r0, [r3, #12]
 885              		.loc 1 249 0
 886 000c 08BD     		pop	{r3, pc}
 887              	.L102:
 888 000e 00BF     		.align	2
 889              	.L101:
 890 0010 00000000 		.word	vtlist
 891              		.cfi_endproc
 892              	.LFE76:
 893              		.size	test_wait_tick, .-test_wait_tick
 894 0014 AFF30080 		.section	.text.test_start_timer,"ax",%progbits
 894      AFF30080 
 894      AFF30080 
 895              		.align	2
 896              		.p2align 4,,15
 897              		.global	test_start_timer
ARM GAS  C:\DOCUME~1\z_80\LOCALS~1\Temp\ccR6lMq5.s 			page 17


 898              		.thumb
 899              		.thumb_func
 900              		.type	test_start_timer, %function
 901              	test_start_timer:
 902              	.LFB78:
 903              		.loc 1 272 0
 904              		.cfi_startproc
 905              		@ args = 0, pretend = 0, frame = 0
 906              		@ frame_needed = 0, uses_anonymous_args = 0
 907              	.LVL61:
 908              		.loc 1 275 0
 909 0000 0C4A     		ldr	r2, .L104
 910              		.loc 1 272 0
 911 0002 10B5     		push	{r4, lr}
 912              	.LCFI10:
 913              		.cfi_def_cfa_offset 8
 914              		.loc 1 275 0
 915 0004 0024     		movs	r4, #0
 916              		.cfi_offset 14, -4
 917              		.cfi_offset 4, -8
 918 0006 1470     		strb	r4, [r2, #0]
 919              	.LVL62:
 920              	.LBB35:
 921              		.loc 1 276 0
 922 0008 2023     		movs	r3, #32
 923              	.LVL63:
 924              	@ 276 "../chibios_2.6.3/test/test.c" 1
 925 000a 83F31188 		msr     BASEPRI, r3
 926              	@ 0 "" 2
 927              	.LVL64:
 928              		.thumb
 929              	.LBE35:
 930              		.loc 1 274 0
 931 000e 4FF47A7C 		mov	ip, #1000
 932 0012 0CFB00F1 		mul	r1, ip, r0
 933 0016 084B     		ldr	r3, .L104+4
 934              	.LVL65:
 935 0018 4A1E     		subs	r2, r1, #1
 936 001a A3FB0220 		umull	r2, r0, r3, r2
 937              	.LVL66:
 938 001e 8109     		lsrs	r1, r0, #6
 939              		.loc 1 276 0
 940 0020 2346     		mov	r3, r4
 941 0022 0648     		ldr	r0, .L104+8
 942 0024 0131     		adds	r1, r1, #1
 943 0026 064A     		ldr	r2, .L104+12
 944 0028 FFF7FEFF 		bl	chVTSetI
 945              	.LBB36:
 946 002c 2346     		mov	r3, r4
 947              	.LVL67:
 948              	@ 276 "../chibios_2.6.3/test/test.c" 1
 949 002e 83F31188 		msr     BASEPRI, r3
 950              	@ 0 "" 2
 951              	.LVL68:
 952              		.thumb
 953              	.LBE36:
 954              		.loc 1 277 0
ARM GAS  C:\DOCUME~1\z_80\LOCALS~1\Temp\ccR6lMq5.s 			page 18


 955 0032 10BD     		pop	{r4, pc}
 956              	.L105:
 957              		.align	2
 958              	.L104:
 959 0034 00000000 		.word	.LANCHOR0
 960 0038 D34D6210 		.word	274877907
 961 003c 00000000 		.word	.LANCHOR8
 962 0040 00000000 		.word	tmr
 963              		.cfi_endproc
 964              	.LFE78:
 965              		.size	test_start_timer, .-test_start_timer
 966 0044 AFF30080 		.section	.text.TestThread,"ax",%progbits
 966      AFF30080 
 966      AFF30080 
 967              		.align	2
 968              		.p2align 4,,15
 969              		.global	TestThread
 970              		.thumb
 971              		.thumb_func
 972              		.type	TestThread, %function
 973              	TestThread:
 974              	.LFB81:
 975              		.loc 1 314 0
 976              		.cfi_startproc
 977              		@ args = 0, pretend = 0, frame = 8
 978              		@ frame_needed = 0, uses_anonymous_args = 0
 979              	.LVL69:
 980 0000 2DE9F04F 		push	{r4, r5, r6, r7, r8, r9, sl, fp, lr}
 981              	.LCFI11:
 982              		.cfi_def_cfa_offset 36
 983              		.loc 1 317 0
 984 0004 6A4F     		ldr	r7, .L123
 985              		.cfi_offset 14, -4
 986              		.cfi_offset 11, -8
 987              		.cfi_offset 10, -12
 988              		.cfi_offset 9, -16
 989              		.cfi_offset 8, -20
 990              		.cfi_offset 7, -24
 991              		.cfi_offset 6, -28
 992              		.cfi_offset 5, -32
 993              		.cfi_offset 4, -36
 994              		.loc 1 314 0
 995 0006 83B0     		sub	sp, sp, #12
 996              	.LCFI12:
 997              		.cfi_def_cfa_offset 48
 998              		.loc 1 317 0
 999 0008 3860     		str	r0, [r7, #0]
 1000              		.loc 1 318 0
 1001 000a 6A48     		ldr	r0, .L123+4
 1002              	.LVL70:
 1003 000c FFF7FEFF 		bl	test_println
 1004              	.LVL71:
 1005              		.loc 1 319 0
 1006 0010 6948     		ldr	r0, .L123+8
 1007 0012 FFF7FEFF 		bl	test_println
 1008              		.loc 1 320 0
 1009 0016 6948     		ldr	r0, .L123+12
ARM GAS  C:\DOCUME~1\z_80\LOCALS~1\Temp\ccR6lMq5.s 			page 19


 1010 0018 FFF7FEFF 		bl	test_println
 1011              		.loc 1 321 0
 1012 001c 6848     		ldr	r0, .L123+16
 1013 001e FFF7FEFF 		bl	test_print
 1014              		.loc 1 322 0
 1015 0022 6848     		ldr	r0, .L123+20
 1016 0024 FFF7FEFF 		bl	test_println
 1017              		.loc 1 323 0
 1018 0028 6748     		ldr	r0, .L123+24
 1019 002a FFF7FEFF 		bl	test_print
 1020              		.loc 1 324 0
 1021 002e 6748     		ldr	r0, .L123+28
 1022 0030 FFF7FEFF 		bl	test_println
 1023              		.loc 1 326 0
 1024 0034 6648     		ldr	r0, .L123+32
 1025 0036 FFF7FEFF 		bl	test_print
 1026              		.loc 1 327 0
 1027 003a 6648     		ldr	r0, .L123+36
 1028 003c FFF7FEFF 		bl	test_println
 1029              		.loc 1 329 0
 1030 0040 6548     		ldr	r0, .L123+40
 1031 0042 FFF7FEFF 		bl	test_print
 1032              		.loc 1 330 0
 1033 0046 6548     		ldr	r0, .L123+44
 1034 0048 FFF7FEFF 		bl	test_println
 1035              		.loc 1 332 0
 1036 004c 6448     		ldr	r0, .L123+48
 1037 004e FFF7FEFF 		bl	test_print
 1038              		.loc 1 333 0
 1039 0052 6448     		ldr	r0, .L123+52
 1040 0054 FFF7FEFF 		bl	test_println
 1041              		.loc 1 336 0
 1042 0058 6348     		ldr	r0, .L123+56
 1043 005a FFF7FEFF 		bl	test_print
 1044              		.loc 1 337 0
 1045 005e 6348     		ldr	r0, .L123+60
 1046 0060 FFF7FEFF 		bl	test_println
 1047              		.loc 1 340 0
 1048 0064 6248     		ldr	r0, .L123+64
 1049 0066 FFF7FEFF 		bl	test_print
 1050              		.loc 1 341 0
 1051 006a 6248     		ldr	r0, .L123+68
 1052 006c FFF7FEFF 		bl	test_println
 1053              		.loc 1 344 0
 1054 0070 6148     		ldr	r0, .L123+72
 1055 0072 FFF7FEFF 		bl	test_print
 1056              		.loc 1 345 0
 1057 0076 6148     		ldr	r0, .L123+76
 1058 0078 FFF7FEFF 		bl	test_println
 1059              		.loc 1 347 0
 1060 007c 4D48     		ldr	r0, .L123+4
 1061 007e FFF7FEFF 		bl	test_println
 1062              		.loc 1 349 0
 1063 0082 5F4A     		ldr	r2, .L123+80
 1064 0084 0023     		movs	r3, #0
 1065 0086 5F4C     		ldr	r4, .L123+84
 1066 0088 DFF8B4B1 		ldr	fp, .L123+144
ARM GAS  C:\DOCUME~1\z_80\LOCALS~1\Temp\ccR6lMq5.s 			page 20


 1067              	.LBB37:
 1068              	.LBB39:
 1069              	.LBB40:
 1070              	.LBB41:
 1071              		.loc 1 132 0
 1072 008c 5E4D     		ldr	r5, .L123+88
 1073 008e DFF898A1 		ldr	sl, .L123+120
 1074              	.LBE41:
 1075              	.LBE40:
 1076              		.loc 1 287 0
 1077 0092 DFF8B091 		ldr	r9, .L123+148
 1078              		.loc 1 289 0
 1079 0096 DFF8B081 		ldr	r8, .L123+152
 1080              	.LBE39:
 1081              	.LBE37:
 1082              		.loc 1 349 0
 1083 009a 1370     		strb	r3, [r2, #0]
 1084              	.LVL72:
 1085              		.loc 1 350 0
 1086 009c 0193     		str	r3, [sp, #4]
 1087              	.LVL73:
 1088              	.L107:
 1089              		.loc 1 351 0 discriminator 1
 1090 009e 0199     		ldr	r1, [sp, #4]
 1091 00a0 4E1C     		adds	r6, r1, #1
 1092 00a2 0196     		str	r6, [sp, #4]
 1093              		.loc 1 314 0 discriminator 1
 1094 00a4 0026     		movs	r6, #0
 1095              	.LVL74:
 1096              		.loc 1 353 0 discriminator 1
 1097 00a6 54F82600 		ldr	r0, [r4, r6, lsl #2]
 1098 00aa B300     		lsls	r3, r6, #2
 1099 00ac 0028     		cmp	r0, #0
 1100 00ae 5DD0     		beq	.L120
 1101              	.LVL75:
 1102              	.L114:
 1103              		.loc 1 354 0
 1104 00b0 0093     		str	r3, [sp, #0]
 1105 00b2 FFF7FEFF 		bl	print_line
 1106              		.loc 1 355 0
 1107 00b6 5548     		ldr	r0, .L123+92
 1108 00b8 FFF7FEFF 		bl	test_print
 1109              		.loc 1 356 0
 1110 00bc 0198     		ldr	r0, [sp, #4]
 1111 00be FFF7FEFF 		bl	test_printn
 1112              		.loc 1 358 0
 1113 00c2 0136     		adds	r6, r6, #1
 1114              	.LVL76:
 1115              		.loc 1 357 0
 1116 00c4 5248     		ldr	r0, .L123+96
 1117 00c6 FFF7FEFF 		bl	test_print
 1118              		.loc 1 358 0
 1119 00ca 3046     		mov	r0, r6
 1120 00cc FFF7FEFF 		bl	test_printn
 1121              		.loc 1 359 0
 1122 00d0 5048     		ldr	r0, .L123+100
 1123 00d2 FFF7FEFF 		bl	test_print
ARM GAS  C:\DOCUME~1\z_80\LOCALS~1\Temp\ccR6lMq5.s 			page 21


 1124              		.loc 1 360 0
 1125 00d6 009A     		ldr	r2, [sp, #0]
 1126 00d8 A358     		ldr	r3, [r4, r2]
 1127 00da 1868     		ldr	r0, [r3, #0]
 1128 00dc FFF7FEFF 		bl	test_print
 1129              		.loc 1 361 0
 1130 00e0 4D48     		ldr	r0, .L123+104
 1131 00e2 FFF7FEFF 		bl	test_println
 1132              		.loc 1 363 0
 1133 00e6 C820     		movs	r0, #200
 1134 00e8 FFF7FEFF 		bl	chThdSleep
 1135              		.loc 1 365 0
 1136 00ec 0099     		ldr	r1, [sp, #0]
 1137              	.LBB45:
 1138              	.LBB38:
 1139              		.loc 1 287 0
 1140 00ee 0020     		movs	r0, #0
 1141              	.LBE38:
 1142              	.LBE45:
 1143              		.loc 1 365 0
 1144 00f0 6458     		ldr	r4, [r4, r1]
 1145              	.LVL77:
 1146              	.LBB46:
 1147              	.LBB44:
 1148              	.LBB43:
 1149              	.LBB42:
 1150              		.loc 1 132 0
 1151 00f2 C5F800A0 		str	sl, [r5, #0]
 1152              	.LBE42:
 1153              	.LBE43:
 1154              		.loc 1 291 0
 1155 00f6 6368     		ldr	r3, [r4, #4]
 1156              		.loc 1 287 0
 1157 00f8 89F80000 		strb	r0, [r9, #0]
 1158              	.LVL78:
 1159              		.loc 1 289 0
 1160 00fc C8F80000 		str	r0, [r8, #0]
 1161              	.LVL79:
 1162 0100 C8F80400 		str	r0, [r8, #4]
 1163              	.LVL80:
 1164 0104 C8F80800 		str	r0, [r8, #8]
 1165              	.LVL81:
 1166 0108 C8F80C00 		str	r0, [r8, #12]
 1167              	.LVL82:
 1168 010c C8F81000 		str	r0, [r8, #16]
 1169              	.LVL83:
 1170              		.loc 1 291 0
 1171 0110 03B1     		cbz	r3, .L108
 1172              		.loc 1 292 0
 1173 0112 9847     		blx	r3
 1174              	.L108:
 1175              		.loc 1 293 0
 1176 0114 E068     		ldr	r0, [r4, #12]
 1177 0116 8047     		blx	r0
 1178              		.loc 1 294 0
 1179 0118 A368     		ldr	r3, [r4, #8]
 1180 011a 03B1     		cbz	r3, .L109
ARM GAS  C:\DOCUME~1\z_80\LOCALS~1\Temp\ccR6lMq5.s 			page 22


 1181              		.loc 1 295 0
 1182 011c 9847     		blx	r3
 1183              	.L109:
 1184              		.loc 1 297 0
 1185 011e FFF7FEFF 		bl	test_wait_threads
 1186              	.LBE44:
 1187              	.LBE46:
 1188              		.loc 1 366 0
 1189 0122 99F80040 		ldrb	r4, [r9, #0]	@ zero_extendqisi2
 1190              	.LVL84:
 1191 0126 002C     		cmp	r4, #0
 1192 0128 37D0     		beq	.L110
 1193              		.loc 1 367 0
 1194 012a 3C48     		ldr	r0, .L123+108
 1195 012c FFF7FEFF 		bl	test_print
 1196              		.loc 1 368 0
 1197 0130 3B4B     		ldr	r3, .L123+112
 1198 0132 1868     		ldr	r0, [r3, #0]
 1199 0134 FFF7FEFF 		bl	test_printn
 1200              		.loc 1 369 0
 1201 0138 3A48     		ldr	r0, .L123+116
 1202 013a FFF7FEFF 		bl	test_print
 1203              	.LVL85:
 1204              	.LBB47:
 1205              	.LBB48:
 1206              		.loc 1 138 0
 1207 013e 2968     		ldr	r1, [r5, #0]
 1208 0140 5145     		cmp	r1, sl
 1209 0142 09D9     		bls	.L111
 1210 0144 384C     		ldr	r4, .L123+120
 1211              	.LVL86:
 1212              	.L112:
 1213              		.loc 1 139 0
 1214 0146 3868     		ldr	r0, [r7, #0]
 1215 0148 14F8011B 		ldrb	r1, [r4], #1	@ zero_extendqisi2
 1216              	.LVL87:
 1217 014c 0268     		ldr	r2, [r0, #0]
 1218 014e 9368     		ldr	r3, [r2, #8]
 1219 0150 9847     		blx	r3
 1220              	.LVL88:
 1221              		.loc 1 138 0
 1222 0152 2A68     		ldr	r2, [r5, #0]
 1223 0154 A242     		cmp	r2, r4
 1224 0156 F6D8     		bhi	.L112
 1225              	.LVL89:
 1226              	.L111:
 1227              	.LBE48:
 1228              	.LBE47:
 1229              		.loc 1 371 0
 1230 0158 3448     		ldr	r0, .L123+124
 1231 015a FFF7FEFF 		bl	test_println
 1232              	.LVL90:
 1233              		.loc 1 374 0
 1234 015e 5BF8044C 		ldr	r4, [fp, #-4]
 1235              	.L122:
 1236              		.loc 1 353 0
 1237 0162 54F82600 		ldr	r0, [r4, r6, lsl #2]
ARM GAS  C:\DOCUME~1\z_80\LOCALS~1\Temp\ccR6lMq5.s 			page 23


 1238 0166 B300     		lsls	r3, r6, #2
 1239 0168 0028     		cmp	r0, #0
 1240 016a A1D1     		bne	.L114
 1241              	.LVL91:
 1242              	.L120:
 1243              		.loc 1 351 0
 1244 016c 5BF8044B 		ldr	r4, [fp], #4
 1245 0170 002C     		cmp	r4, #0
 1246 0172 94D1     		bne	.L107
 1247              		.loc 1 379 0
 1248 0174 FFF7FEFF 		bl	print_line
 1249              		.loc 1 380 0
 1250 0178 0E48     		ldr	r0, .L123+4
 1251 017a FFF7FEFF 		bl	test_println
 1252              		.loc 1 381 0
 1253 017e 2C48     		ldr	r0, .L123+128
 1254 0180 FFF7FEFF 		bl	test_print
 1255              		.loc 1 382 0
 1256 0184 1E4A     		ldr	r2, .L123+80
 1257 0186 1378     		ldrb	r3, [r2, #0]	@ zero_extendqisi2
 1258 0188 6BB9     		cbnz	r3, .L121
 1259              		.loc 1 385 0
 1260 018a 2A48     		ldr	r0, .L123+132
 1261 018c FFF7FEFF 		bl	test_println
 1262              	.L118:
 1263              		.loc 1 388 0
 1264 0190 1B48     		ldr	r0, .L123+80
 1265 0192 0078     		ldrb	r0, [r0, #0]	@ zero_extendqisi2
 1266 0194 03B0     		add	sp, sp, #12
 1267 0196 BDE8F08F 		pop	{r4, r5, r6, r7, r8, r9, sl, fp, pc}
 1268              	.LVL92:
 1269              	.L110:
 1270              		.loc 1 374 0
 1271 019a 2748     		ldr	r0, .L123+136
 1272 019c FFF7FEFF 		bl	test_println
 1273              	.LVL93:
 1274 01a0 5BF8044C 		ldr	r4, [fp, #-4]
 1275 01a4 DDE7     		b	.L122
 1276              	.LVL94:
 1277              	.L121:
 1278              		.loc 1 383 0
 1279 01a6 2548     		ldr	r0, .L123+140
 1280 01a8 FFF7FEFF 		bl	test_println
 1281 01ac F0E7     		b	.L118
 1282              	.L124:
 1283 01ae 00BF     		.align	2
 1284              	.L123:
 1285 01b0 00000000 		.word	.LANCHOR1
 1286 01b4 04000000 		.word	.LC1
 1287 01b8 08000000 		.word	.LC2
 1288 01bc 24000000 		.word	.LC3
 1289 01c0 28000000 		.word	.LC4
 1290 01c4 3C000000 		.word	.LC5
 1291 01c8 44000000 		.word	.LC6
 1292 01cc 58000000 		.word	.LC7
 1293 01d0 70000000 		.word	.LC8
 1294 01d4 84000000 		.word	.LC9
ARM GAS  C:\DOCUME~1\z_80\LOCALS~1\Temp\ccR6lMq5.s 			page 24


 1295 01d8 90000000 		.word	.LC10
 1296 01dc A4000000 		.word	.LC11
 1297 01e0 AC000000 		.word	.LC12
 1298 01e4 C0000000 		.word	.LC13
 1299 01e8 CC000000 		.word	.LC14
 1300 01ec E0000000 		.word	.LC15
 1301 01f0 F8000000 		.word	.LC16
 1302 01f4 0C010000 		.word	.LC17
 1303 01f8 38010000 		.word	.LC18
 1304 01fc 4C010000 		.word	.LC19
 1305 0200 00000000 		.word	.LANCHOR4
 1306 0204 00000000 		.word	patternthd
 1307 0208 00000000 		.word	.LANCHOR2
 1308 020c 60010000 		.word	.LC20
 1309 0210 70010000 		.word	.LC21
 1310 0214 74010000 		.word	.LC22
 1311 0218 78010000 		.word	.LC23
 1312 021c 7C010000 		.word	.LC24
 1313 0220 00000000 		.word	.LANCHOR5
 1314 0224 94010000 		.word	.LC25
 1315 0228 00000000 		.word	.LANCHOR6
 1316 022c 98010000 		.word	.LC26
 1317 0230 B0010000 		.word	.LC28
 1318 0234 C8010000 		.word	.LC30
 1319 0238 9C010000 		.word	.LC27
 1320 023c C0010000 		.word	.LC29
 1321 0240 04000000 		.word	.LANCHOR9+4
 1322 0244 00000000 		.word	.LANCHOR3
 1323 0248 00000000 		.word	.LANCHOR7
 1324              		.cfi_endproc
 1325              	.LFE81:
 1326              		.size	TestThread, .-TestThread
 1327              		.global	wa
 1328              		.global	threads
 1329              		.global	test
 1330              		.global	test_timer_done
 1331 024c AFF30080 		.section	.bss.test,"aw",%nobits
 1332              		.align	3
 1333              		.type	test, %object
 1334              		.size	test, 1520
 1335              	test:
 1336 0000 00000000 		.space	1520
 1336      00000000 
 1336      00000000 
 1336      00000000 
 1336      00000000 
 1337              		.section	.bss.failpoint,"aw",%nobits
 1338              		.align	2
 1339              		.set	.LANCHOR5,. + 0
 1340              		.type	failpoint, %object
 1341              		.size	failpoint, 4
 1342              	failpoint:
 1343 0000 00000000 		.space	4
 1344              		.section	.bss.local_fail,"aw",%nobits
 1345              		.set	.LANCHOR3,. + 0
 1346              		.type	local_fail, %object
 1347              		.size	local_fail, 1
ARM GAS  C:\DOCUME~1\z_80\LOCALS~1\Temp\ccR6lMq5.s 			page 25


 1348              	local_fail:
 1349 0000 00       		.space	1
 1350              		.section	.bss.test_timer_done,"aw",%nobits
 1351              		.set	.LANCHOR0,. + 0
 1352              		.type	test_timer_done, %object
 1353              		.size	test_timer_done, 1
 1354              	test_timer_done:
 1355 0000 00       		.space	1
 1356              		.section	.rodata.wa,"a",%progbits
 1357              		.align	2
 1358              		.type	wa, %object
 1359              		.size	wa, 20
 1360              	wa:
 1361 0000 00000000 		.word	test
 1362 0004 30010000 		.word	test+304
 1363 0008 60020000 		.word	test+608
 1364 000c 90030000 		.word	test+912
 1365 0010 C0040000 		.word	test+1216
 1366              		.section	.bss.tokp,"aw",%nobits
 1367              		.align	2
 1368              		.set	.LANCHOR2,. + 0
 1369              		.type	tokp, %object
 1370              		.size	tokp, 4
 1371              	tokp:
 1372 0000 00000000 		.space	4
 1373              		.section	.bss.global_fail,"aw",%nobits
 1374              		.set	.LANCHOR4,. + 0
 1375              		.type	global_fail, %object
 1376              		.size	global_fail, 1
 1377              	global_fail:
 1378 0000 00       		.space	1
 1379              		.section	.rodata.str1.4,"aMS",%progbits,1
 1380              		.align	2
 1381              	.LC0:
 1382 0000 0D0A00   		.ascii	"\015\012\000"
 1383 0003 00       		.space	1
 1384              	.LC1:
 1385 0004 00       		.ascii	"\000"
 1386 0005 000000   		.space	3
 1387              	.LC2:
 1388 0008 2A2A2A20 		.ascii	"*** ChibiOS/RT test suite\000"
 1388      43686962 
 1388      694F532F 
 1388      52542074 
 1388      65737420 
 1389 0022 0000     		.space	2
 1390              	.LC3:
 1391 0024 2A2A2A00 		.ascii	"***\000"
 1392              	.LC4:
 1393 0028 2A2A2A20 		.ascii	"*** Kernel:       \000"
 1393      4B65726E 
 1393      656C3A20 
 1393      20202020 
 1393      202000
 1394 003b 00       		.space	1
 1395              	.LC5:
 1396 003c 322E362E 		.ascii	"2.6.3\000"
ARM GAS  C:\DOCUME~1\z_80\LOCALS~1\Temp\ccR6lMq5.s 			page 26


 1396      3300
 1397 0042 0000     		.space	2
 1398              	.LC6:
 1399 0044 2A2A2A20 		.ascii	"*** Compiled:     \000"
 1399      436F6D70 
 1399      696C6564 
 1399      3A202020 
 1399      202000
 1400 0057 00       		.space	1
 1401              	.LC7:
 1402 0058 46656220 		.ascii	"Feb 14 2014 - 12:53:15\000"
 1402      31342032 
 1402      30313420 
 1402      2D203132 
 1402      3A35333A 
 1403 006f 00       		.space	1
 1404              	.LC8:
 1405 0070 2A2A2A20 		.ascii	"*** Compiler:     \000"
 1405      436F6D70 
 1405      696C6572 
 1405      3A202020 
 1405      202000
 1406 0083 00       		.space	1
 1407              	.LC9:
 1408 0084 47434320 		.ascii	"GCC 4.5.2\000"
 1408      342E352E 
 1408      3200
 1409 008e 0000     		.space	2
 1410              	.LC10:
 1411 0090 2A2A2A20 		.ascii	"*** Architecture: \000"
 1411      41726368 
 1411      69746563 
 1411      74757265 
 1411      3A2000
 1412 00a3 00       		.space	1
 1413              	.LC11:
 1414 00a4 41524D76 		.ascii	"ARMv7-M\000"
 1414      372D4D00 
 1415              	.LC12:
 1416 00ac 2A2A2A20 		.ascii	"*** Core Variant: \000"
 1416      436F7265 
 1416      20566172 
 1416      69616E74 
 1416      3A2000
 1417 00bf 00       		.space	1
 1418              	.LC13:
 1419 00c0 436F7274 		.ascii	"Cortex-M3\000"
 1419      65782D4D 
 1419      3300
 1420 00ca 0000     		.space	2
 1421              	.LC14:
 1422 00cc 2A2A2A20 		.ascii	"*** Port Info:    \000"
 1422      506F7274 
 1422      20496E66 
 1422      6F3A2020 
 1422      202000
 1423 00df 00       		.space	1
ARM GAS  C:\DOCUME~1\z_80\LOCALS~1\Temp\ccR6lMq5.s 			page 27


 1424              	.LC15:
 1425 00e0 41647661 		.ascii	"Advanced kernel mode\000"
 1425      6E636564 
 1425      206B6572 
 1425      6E656C20 
 1425      6D6F6465 
 1426 00f5 000000   		.space	3
 1427              	.LC16:
 1428 00f8 2A2A2A20 		.ascii	"*** Platform:     \000"
 1428      506C6174 
 1428      666F726D 
 1428      3A202020 
 1428      202000
 1429 010b 00       		.space	1
 1430              	.LC17:
 1431 010c 53544D33 		.ascii	"STM32F10x Performance Line Medium Density\000"
 1431      32463130 
 1431      78205065 
 1431      72666F72 
 1431      6D616E63 
 1432 0136 0000     		.space	2
 1433              	.LC18:
 1434 0138 2A2A2A20 		.ascii	"*** Test Board:   \000"
 1434      54657374 
 1434      20426F61 
 1434      72643A20 
 1434      202000
 1435 014b 00       		.space	1
 1436              	.LC19:
 1437 014c 4F6C696D 		.ascii	"Olimex STM32-103STK\000"
 1437      65782053 
 1437      544D3332 
 1437      2D313033 
 1437      53544B00 
 1438              	.LC20:
 1439 0160 2D2D2D20 		.ascii	"--- Test Case \000"
 1439      54657374 
 1439      20436173 
 1439      652000
 1440 016f 00       		.space	1
 1441              	.LC21:
 1442 0170 2E00     		.ascii	".\000"
 1443 0172 0000     		.space	2
 1444              	.LC22:
 1445 0174 202800   		.ascii	" (\000"
 1446 0177 00       		.space	1
 1447              	.LC23:
 1448 0178 2900     		.ascii	")\000"
 1449 017a 0000     		.space	2
 1450              	.LC24:
 1451 017c 2D2D2D20 		.ascii	"--- Result: FAILURE (#\000"
 1451      52657375 
 1451      6C743A20 
 1451      4641494C 
 1451      55524520 
 1452 0193 00       		.space	1
 1453              	.LC25:
ARM GAS  C:\DOCUME~1\z_80\LOCALS~1\Temp\ccR6lMq5.s 			page 28


 1454 0194 205B00   		.ascii	" [\000"
 1455 0197 00       		.space	1
 1456              	.LC26:
 1457 0198 5D2900   		.ascii	"])\000"
 1458 019b 00       		.space	1
 1459              	.LC27:
 1460 019c 2D2D2D20 		.ascii	"--- Result: SUCCESS\000"
 1460      52657375 
 1460      6C743A20 
 1460      53554343 
 1460      45535300 
 1461              	.LC28:
 1462 01b0 46696E61 		.ascii	"Final result: \000"
 1462      6C207265 
 1462      73756C74 
 1462      3A2000
 1463 01bf 00       		.space	1
 1464              	.LC29:
 1465 01c0 4641494C 		.ascii	"FAILURE\000"
 1465      55524500 
 1466              	.LC30:
 1467 01c8 53554343 		.ascii	"SUCCESS\000"
 1467      45535300 
 1468              		.section	.bss.vt,"aw",%nobits
 1469              		.align	2
 1470              		.set	.LANCHOR8,. + 0
 1471              		.type	vt, %object
 1472              		.size	vt, 20
 1473              	vt:
 1474 0000 00000000 		.space	20
 1474      00000000 
 1474      00000000 
 1474      00000000 
 1474      00000000 
 1475              		.section	.bss.threads,"aw",%nobits
 1476              		.align	2
 1477              		.set	.LANCHOR7,. + 0
 1478              		.type	threads, %object
 1479              		.size	threads, 20
 1480              	threads:
 1481 0000 00000000 		.space	20
 1481      00000000 
 1481      00000000 
 1481      00000000 
 1481      00000000 
 1482              		.section	.rodata.patterns,"a",%progbits
 1483              		.align	2
 1484              		.set	.LANCHOR9,. + 0
 1485              		.type	patterns, %object
 1486              		.size	patterns, 48
 1487              	patterns:
 1488 0000 00000000 		.word	patternthd
 1489 0004 00000000 		.word	patternsem
 1490 0008 00000000 		.word	patternmtx
 1491 000c 00000000 		.word	patternmsg
 1492 0010 00000000 		.word	patternmbox
 1493 0014 00000000 		.word	patternevt
ARM GAS  C:\DOCUME~1\z_80\LOCALS~1\Temp\ccR6lMq5.s 			page 29


 1494 0018 00000000 		.word	patternheap
 1495 001c 00000000 		.word	patternpools
 1496 0020 00000000 		.word	patterndyn
 1497 0024 00000000 		.word	patternqueues
 1498 0028 00000000 		.word	patternbmk
 1499 002c 00000000 		.word	0
 1500              		.section	.bss.chp,"aw",%nobits
 1501              		.align	2
 1502              		.set	.LANCHOR1,. + 0
 1503              		.type	chp, %object
 1504              		.size	chp, 4
 1505              	chp:
 1506 0000 00000000 		.space	4
 1507              		.section	.bss.tokens_buffer,"aw",%nobits
 1508              		.align	2
 1509              		.set	.LANCHOR6,. + 0
 1510              		.type	tokens_buffer, %object
 1511              		.size	tokens_buffer, 16
 1512              	tokens_buffer:
 1513 0000 00000000 		.space	16
 1513      00000000 
 1513      00000000 
 1513      00000000 
 1514              		.text
 1515              	.Letext0: