ARM GAS  C:\DOCUME~1\z_80\LOCALS~1\Temp\ccsJikj9.s 			page 1


   1              		.syntax unified
   2              		.cpu cortex-m3
   3              		.fpu softvfp
   4              		.eabi_attribute 20, 1
   5              		.eabi_attribute 21, 1
   6              		.eabi_attribute 23, 3
   7              		.eabi_attribute 24, 1
   8              		.eabi_attribute 25, 1
   9              		.eabi_attribute 26, 1
  10              		.eabi_attribute 30, 2
  11              		.eabi_attribute 18, 4
  12              		.thumb
  13              		.file	"testsem.c"
  20 0000 FF020000 		.text
  20      02007201 
  20      00000201 
  20      FB0E0D00 
  20      01010101 
  21              	.Ltext0:
  22              		.cfi_sections	.debug_frame
  23              		.section	.text.sem3_setup,"ax",%progbits
  24              		.align	2
  25              		.p2align 4,,15
  26              		.thumb
  27              		.thumb_func
  28              		.type	sem3_setup, %function
  29              	sem3_setup:
  30              	.LFB13:
  31              		.file 1 "../chibios_2.6.3/test/testsem.c"
  32              		.loc 1 205 0
  33              		.cfi_startproc
  34              		@ args = 0, pretend = 0, frame = 0
  35              		@ frame_needed = 0, uses_anonymous_args = 0
  36              		@ link register save eliminated.
  37              		.loc 1 207 0
  38 0000 0148     		ldr	r0, .L2
  39 0002 0021     		movs	r1, #0
  40              		.loc 1 208 0
  41              		.loc 1 207 0
  42 0004 FFF7FEBF 		b	chSemInit
  43              	.L3:
  44              		.align	2
  45              	.L2:
  46 0008 00000000 		.word	.LANCHOR0
  47              		.cfi_endproc
  48              	.LFE13:
  49              		.size	sem3_setup, .-sem3_setup
  50 000c AFF30080 		.section	.text.sem2_setup,"ax",%progbits
  51              		.align	2
  52              		.p2align 4,,15
  53              		.thumb
ARM GAS  C:\DOCUME~1\z_80\LOCALS~1\Temp\ccsJikj9.s 			page 2


  54              		.thumb_func
  55              		.type	sem2_setup, %function
  56              	sem2_setup:
  57              	.LFB10:
  58              		.loc 1 129 0
  59              		.cfi_startproc
  60              		@ args = 0, pretend = 0, frame = 0
  61              		@ frame_needed = 0, uses_anonymous_args = 0
  62              		@ link register save eliminated.
  63              		.loc 1 131 0
  64 0000 0148     		ldr	r0, .L5
  65 0002 0021     		movs	r1, #0
  66              		.loc 1 132 0
  67              		.loc 1 131 0
  68 0004 FFF7FEBF 		b	chSemInit
  69              	.L6:
  70              		.align	2
  71              	.L5:
  72 0008 00000000 		.word	.LANCHOR0
  73              		.cfi_endproc
  74              	.LFE10:
  75              		.size	sem2_setup, .-sem2_setup
  76 000c AFF30080 		.section	.text.sem1_setup,"ax",%progbits
  77              		.align	2
  78              		.p2align 4,,15
  79              		.thumb
  80              		.thumb_func
  81              		.type	sem1_setup, %function
  82              	sem1_setup:
  83              	.LFB7:
  84              		.loc 1 72 0
  85              		.cfi_startproc
  86              		@ args = 0, pretend = 0, frame = 0
  87              		@ frame_needed = 0, uses_anonymous_args = 0
  88              		@ link register save eliminated.
  89              		.loc 1 74 0
  90 0000 0148     		ldr	r0, .L8
  91 0002 0021     		movs	r1, #0
  92              		.loc 1 75 0
  93              		.loc 1 74 0
  94 0004 FFF7FEBF 		b	chSemInit
  95              	.L9:
  96              		.align	2
  97              	.L8:
  98 0008 00000000 		.word	.LANCHOR0
  99              		.cfi_endproc
 100              	.LFE7:
 101              		.size	sem1_setup, .-sem1_setup
 102 000c AFF30080 		.section	.text.sem4_execute,"ax",%progbits
 103              		.align	2
 104              		.p2align 4,,15
 105              		.thumb
 106              		.thumb_func
 107              		.type	sem4_execute, %function
 108              	sem4_execute:
 109              	.LFB17:
 110              		.loc 1 252 0
ARM GAS  C:\DOCUME~1\z_80\LOCALS~1\Temp\ccsJikj9.s 			page 3


 111              		.cfi_startproc
 112              		@ args = 0, pretend = 0, frame = 16
 113              		@ frame_needed = 0, uses_anonymous_args = 0
 114 0000 10B5     		push	{r4, lr}
 115              	.LCFI0:
 116              		.cfi_def_cfa_offset 8
 117 0002 86B0     		sub	sp, sp, #24
 118              	.LCFI1:
 119              		.cfi_def_cfa_offset 32
 120              		.loc 1 256 0
 121 0004 0021     		movs	r1, #0
 122 0006 03A8     		add	r0, sp, #12
 123              		.cfi_offset 14, -4
 124              		.cfi_offset 4, -8
 125 0008 FFF7FEFF 		bl	chSemInit
 126              		.loc 1 257 0
 127 000c 0021     		movs	r1, #0
 128 000e 03A8     		add	r0, sp, #12
 129 0010 FFF7FEFF 		bl	chSemReset
 130              		.loc 1 258 0
 131 0014 0599     		ldr	r1, [sp, #20]
 132 0016 0120     		movs	r0, #1
 133 0018 0029     		cmp	r1, #0
 134 001a CCBF     		ite	gt
 135 001c 0021     		movgt	r1, #0
 136 001e 0121     		movle	r1, #1
 137 0020 FFF7FEFF 		bl	_test_assert
 138 0024 08B1     		cbz	r0, .L15
 139              	.L10:
 140              		.loc 1 280 0
 141 0026 06B0     		add	sp, sp, #24
 142 0028 10BD     		pop	{r4, pc}
 143              	.L15:
 144              		.loc 1 262 0
 145 002a 324C     		ldr	r4, .L18
 146              		.loc 1 261 0
 147 002c 3248     		ldr	r0, .L18+4
 148              		.loc 1 262 0
 149 002e A169     		ldr	r1, [r4, #24]
 150              		.loc 1 261 0
 151 0030 324B     		ldr	r3, .L18+8
 152 0032 8A68     		ldr	r2, [r1, #8]
 153 0034 0068     		ldr	r0, [r0, #0]
 154 0036 4FF49871 		mov	r1, #304
 155 003a 013A     		subs	r2, r2, #1
 156 003c 03AC     		add	r4, sp, #12
 157 003e 0094     		str	r4, [sp, #0]
 158 0040 FFF7FEFF 		bl	chThdCreateStatic
 159 0044 2E4B     		ldr	r3, .L18+12
 160 0046 1860     		str	r0, [r3, #0]
 161              		.loc 1 265 0
 162 0048 03A8     		add	r0, sp, #12
 163 004a FFF7FEFF 		bl	chSemWait
 164              		.loc 1 268 0
 165 004e 0599     		ldr	r1, [sp, #20]
 166 0050 0220     		movs	r0, #2
 167 0052 0029     		cmp	r1, #0
ARM GAS  C:\DOCUME~1\z_80\LOCALS~1\Temp\ccsJikj9.s 			page 4


 168 0054 CCBF     		ite	gt
 169 0056 0021     		movgt	r1, #0
 170 0058 0121     		movle	r1, #1
 171 005a FFF7FEFF 		bl	_test_assert
 172 005e 0028     		cmp	r0, #0
 173 0060 E1D1     		bne	.L10
 174              	.LBB2:
 175              		.loc 1 272 0
 176 0062 2023     		movs	r3, #32
 177              	.LVL0:
 178              	@ 272 "../chibios_2.6.3/test/testsem.c" 1
 179 0064 83F31188 		msr     BASEPRI, r3
 180              	@ 0 "" 2
 181              	.LVL1:
 182              		.thumb
 183              	.LBE2:
 184 0068 059B     		ldr	r3, [sp, #20]
 185              	.LVL2:
 186 006a 002B     		cmp	r3, #0
 187 006c 3DDD     		ble	.L16
 188              	.L12:
 189              		.loc 1 272 0 is_stmt 0 discriminator 2
 190 006e FFF7FEFF 		bl	chSchRescheduleS
 191              	.LBB3:
 192 0072 0023     		movs	r3, #0
 193              	.LVL3:
 194              	@ 272 "../chibios_2.6.3/test/testsem.c" 1
 195 0074 83F31188 		msr     BASEPRI, r3
 196              	@ 0 "" 2
 197              	.LVL4:
 198              		.thumb
 199              	.LBE3:
 200              		.loc 1 273 0 is_stmt 1 discriminator 2
 201 0078 0599     		ldr	r1, [sp, #20]
 202 007a 0320     		movs	r0, #3
 203 007c 9942     		cmp	r1, r3
 204              	.LVL5:
 205 007e D4BF     		ite	le
 206 0080 0021     		movle	r1, #0
 207 0082 0121     		movgt	r1, #1
 208 0084 FFF7FEFF 		bl	_test_assert
 209 0088 0028     		cmp	r0, #0
 210 008a CCD1     		bne	.L10
 211              		.loc 1 274 0
 212 008c 059A     		ldr	r2, [sp, #20]
 213 008e 0420     		movs	r0, #4
 214 0090 A2F1010E 		sub	lr, r2, #1
 215 0094 DEF1000C 		rsbs	ip, lr, #0
 216 0098 4CEB0E01 		adc	r1, ip, lr
 217 009c FFF7FEFF 		bl	_test_assert
 218 00a0 0028     		cmp	r0, #0
 219 00a2 C0D1     		bne	.L10
 220              	.LBB4:
 221              		.loc 1 277 0
 222 00a4 2023     		movs	r3, #32
 223              	.LVL6:
 224              	@ 277 "../chibios_2.6.3/test/testsem.c" 1
ARM GAS  C:\DOCUME~1\z_80\LOCALS~1\Temp\ccsJikj9.s 			page 5


 225 00a6 83F31188 		msr     BASEPRI, r3
 226              	@ 0 "" 2
 227              	.LVL7:
 228              		.thumb
 229              	.LBE4:
 230 00aa 0598     		ldr	r0, [sp, #20]
 231 00ac 0028     		cmp	r0, #0
 232 00ae 18DD     		ble	.L17
 233              	.L13:
 234              		.loc 1 277 0 is_stmt 0 discriminator 2
 235 00b0 FFF7FEFF 		bl	chSchRescheduleS
 236              	.LVL8:
 237              	.LBB5:
 238 00b4 0023     		movs	r3, #0
 239              	.LVL9:
 240              	@ 277 "../chibios_2.6.3/test/testsem.c" 1
 241 00b6 83F31188 		msr     BASEPRI, r3
 242              	@ 0 "" 2
 243              	.LVL10:
 244              		.thumb
 245              	.LBE5:
 246              		.loc 1 278 0 is_stmt 1 discriminator 2
 247 00ba 0599     		ldr	r1, [sp, #20]
 248 00bc 0320     		movs	r0, #3
 249 00be 9942     		cmp	r1, r3
 250              	.LVL11:
 251 00c0 D4BF     		ite	le
 252 00c2 0021     		movle	r1, #0
 253 00c4 0121     		movgt	r1, #1
 254 00c6 FFF7FEFF 		bl	_test_assert
 255 00ca 0028     		cmp	r0, #0
 256 00cc ABD1     		bne	.L10
 257              		.loc 1 279 0
 258 00ce 059A     		ldr	r2, [sp, #20]
 259 00d0 0520     		movs	r0, #5
 260 00d2 A2F10103 		sub	r3, r2, #1
 261 00d6 5942     		rsbs	r1, r3, #0
 262 00d8 41EB0301 		adc	r1, r1, r3
 263 00dc FFF7FEFF 		bl	_test_assert
 264 00e0 A1E7     		b	.L10
 265              	.LVL12:
 266              	.L17:
 267              		.loc 1 277 0 discriminator 1
 268 00e2 03A8     		add	r0, sp, #12
 269 00e4 FFF7FEFF 		bl	chSemSignalI
 270              	.LVL13:
 271 00e8 E2E7     		b	.L13
 272              	.L16:
 273              		.loc 1 272 0 discriminator 1
 274 00ea 03A8     		add	r0, sp, #12
 275 00ec FFF7FEFF 		bl	chSemSignalI
 276 00f0 BDE7     		b	.L12
 277              	.L19:
 278 00f2 00BF     		.align	2
 279              	.L18:
 280 00f4 00000000 		.word	rlist
 281 00f8 00000000 		.word	wa
ARM GAS  C:\DOCUME~1\z_80\LOCALS~1\Temp\ccsJikj9.s 			page 6


 282 00fc 00000000 		.word	thread4
 283 0100 00000000 		.word	threads
 284              		.cfi_endproc
 285              	.LFE17:
 286              		.size	sem4_execute, .-sem4_execute
 287 0104 AFF30080 		.section	.text.thread4,"ax",%progbits
 287      AFF30080 
 287      AFF30080 
 288              		.align	2
 289              		.p2align 4,,15
 290              		.thumb
 291              		.thumb_func
 292              		.type	thread4, %function
 293              	thread4:
 294              	.LFB16:
 295              		.loc 1 246 0
 296              		.cfi_startproc
 297              		@ args = 0, pretend = 0, frame = 0
 298              		@ frame_needed = 0, uses_anonymous_args = 0
 299              	.LVL14:
 300 0000 08B5     		push	{r3, lr}
 301              	.LCFI2:
 302              		.cfi_def_cfa_offset 8
 303              	.LBB6:
 304              		.loc 1 248 0
 305 0002 2023     		movs	r3, #32
 306              		.cfi_offset 14, -4
 307              		.cfi_offset 3, -8
 308              	.LVL15:
 309              	@ 248 "../chibios_2.6.3/test/testsem.c" 1
 310 0004 83F31188 		msr     BASEPRI, r3
 311              	@ 0 "" 2
 312              	.LVL16:
 313              		.thumb
 314              	.LBE6:
 315 0008 8368     		ldr	r3, [r0, #8]
 316              	.LVL17:
 317 000a 002B     		cmp	r3, #0
 318 000c 06DD     		ble	.L22
 319              		.loc 1 248 0 is_stmt 0 discriminator 2
 320 000e FFF7FEFF 		bl	chSchRescheduleS
 321              	.LVL18:
 322              	.LBB7:
 323 0012 0023     		movs	r3, #0
 324              	.LVL19:
 325              	@ 248 "../chibios_2.6.3/test/testsem.c" 1
 326 0014 83F31188 		msr     BASEPRI, r3
 327              	@ 0 "" 2
 328              	.LVL20:
 329              		.thumb
 330              	.LBE7:
 331              		.loc 1 250 0 is_stmt 1 discriminator 2
 332 0018 1846     		mov	r0, r3
 333 001a 08BD     		pop	{r3, pc}
 334              	.LVL21:
 335              	.L22:
 336              		.loc 1 248 0 discriminator 1
ARM GAS  C:\DOCUME~1\z_80\LOCALS~1\Temp\ccsJikj9.s 			page 7


 337 001c FFF7FEFF 		bl	chSemSignalI
 338              	.LVL22:
 339 0020 FFF7FEFF 		bl	chSchRescheduleS
 340              	.LBB8:
 341 0024 0023     		movs	r3, #0
 342              	@ 248 "../chibios_2.6.3/test/testsem.c" 1
 343 0026 83F31188 		msr     BASEPRI, r3
 344              	@ 0 "" 2
 345              	.LVL23:
 346              		.thumb
 347              	.LBE8:
 348              		.loc 1 250 0 discriminator 1
 349 002a 1846     		mov	r0, r3
 350 002c 08BD     		pop	{r3, pc}
 351              		.cfi_endproc
 352              	.LFE16:
 353              		.size	thread4, .-thread4
 354 002e 00BF     		.section	.text.sem3_execute,"ax",%progbits
 355              		.align	2
 356              		.p2align 4,,15
 357              		.thumb
 358              		.thumb_func
 359              		.type	sem3_execute, %function
 360              	sem3_execute:
 361              	.LFB15:
 362              		.loc 1 218 0
 363              		.cfi_startproc
 364              		@ args = 0, pretend = 0, frame = 0
 365              		@ frame_needed = 0, uses_anonymous_args = 0
 366              		.loc 1 220 0
 367 0000 234B     		ldr	r3, .L26
 368              		.loc 1 218 0
 369 0002 10B5     		push	{r4, lr}
 370              	.LCFI3:
 371              		.cfi_def_cfa_offset 8
 372              		.loc 1 220 0
 373 0004 9969     		ldr	r1, [r3, #24]
 374 0006 2348     		ldr	r0, .L26+4
 375 0008 8A68     		ldr	r2, [r1, #8]
 376              		.loc 1 218 0
 377 000a 82B0     		sub	sp, sp, #8
 378              	.LCFI4:
 379              		.cfi_def_cfa_offset 16
 380              		.loc 1 220 0
 381 000c 0132     		adds	r2, r2, #1
 382 000e 0024     		movs	r4, #0
 383              		.cfi_offset 14, -4
 384              		.cfi_offset 4, -8
 385 0010 4FF49871 		mov	r1, #304
 386 0014 204B     		ldr	r3, .L26+8
 387 0016 0068     		ldr	r0, [r0, #0]
 388 0018 0094     		str	r4, [sp, #0]
 389 001a FFF7FEFF 		bl	chThdCreateStatic
 390              		.loc 1 221 0
 391 001e 1F4C     		ldr	r4, .L26+12
 392              		.loc 1 220 0
 393 0020 1F4B     		ldr	r3, .L26+16
ARM GAS  C:\DOCUME~1\z_80\LOCALS~1\Temp\ccsJikj9.s 			page 8


 394              		.loc 1 221 0
 395 0022 2146     		mov	r1, r4
 396              		.loc 1 220 0
 397 0024 1860     		str	r0, [r3, #0]
 398              		.loc 1 221 0
 399 0026 2046     		mov	r0, r4
 400 0028 FFF7FEFF 		bl	chSemSignalWait
 401              		.loc 1 222 0
 402 002c 2268     		ldr	r2, [r4, #0]
 403 002e 0120     		movs	r0, #1
 404 0030 C4EB020C 		rsb	ip, r4, r2
 405 0034 DCF10001 		rsbs	r1, ip, #0
 406 0038 41EB0C01 		adc	r1, r1, ip
 407 003c FFF7FEFF 		bl	_test_assert
 408 0040 08B1     		cbz	r0, .L25
 409              	.L23:
 410              		.loc 1 228 0
 411 0042 02B0     		add	sp, sp, #8
 412 0044 10BD     		pop	{r4, pc}
 413              	.L25:
 414              		.loc 1 223 0
 415 0046 A268     		ldr	r2, [r4, #8]
 416 0048 0220     		movs	r0, #2
 417 004a D2F10101 		rsbs	r1, r2, #1
 418 004e 38BF     		it	cc
 419 0050 0021     		movcc	r1, #0
 420 0052 FFF7FEFF 		bl	_test_assert
 421 0056 0028     		cmp	r0, #0
 422 0058 F3D1     		bne	.L23
 423              		.loc 1 225 0
 424 005a 2146     		mov	r1, r4
 425 005c 2046     		mov	r0, r4
 426 005e FFF7FEFF 		bl	chSemSignalWait
 427              		.loc 1 226 0
 428 0062 2168     		ldr	r1, [r4, #0]
 429 0064 0320     		movs	r0, #3
 430 0066 C1EB040E 		rsb	lr, r1, r4
 431 006a DEF1000C 		rsbs	ip, lr, #0
 432 006e 4CEB0E01 		adc	r1, ip, lr
 433 0072 FFF7FEFF 		bl	_test_assert
 434 0076 0028     		cmp	r0, #0
 435 0078 E3D1     		bne	.L23
 436              		.loc 1 227 0
 437 007a A368     		ldr	r3, [r4, #8]
 438 007c 0420     		movs	r0, #4
 439 007e D3F10101 		rsbs	r1, r3, #1
 440 0082 38BF     		it	cc
 441 0084 0021     		movcc	r1, #0
 442              		.loc 1 228 0
 443 0086 02B0     		add	sp, sp, #8
 444 0088 BDE81040 		pop	{r4, lr}
 445              		.loc 1 227 0
 446 008c FFF7FEBF 		b	_test_assert
 447              	.L27:
 448              		.align	2
 449              	.L26:
 450 0090 00000000 		.word	rlist
ARM GAS  C:\DOCUME~1\z_80\LOCALS~1\Temp\ccsJikj9.s 			page 9


 451 0094 00000000 		.word	wa
 452 0098 00000000 		.word	thread3
 453 009c 00000000 		.word	.LANCHOR0
 454 00a0 00000000 		.word	threads
 455              		.cfi_endproc
 456              	.LFE15:
 457              		.size	sem3_execute, .-sem3_execute
 458 00a4 AFF30080 		.section	.text.thread3,"ax",%progbits
 458      AFF30080 
 458      AFF30080 
 459              		.align	2
 460              		.p2align 4,,15
 461              		.thumb
 462              		.thumb_func
 463              		.type	thread3, %function
 464              	thread3:
 465              	.LFB14:
 466              		.loc 1 210 0
 467              		.cfi_startproc
 468              		@ args = 0, pretend = 0, frame = 0
 469              		@ frame_needed = 0, uses_anonymous_args = 0
 470              	.LVL24:
 471 0000 10B5     		push	{r4, lr}
 472              	.LCFI5:
 473              		.cfi_def_cfa_offset 8
 474              		.loc 1 213 0
 475 0002 044C     		ldr	r4, .L29
 476              		.cfi_offset 14, -4
 477              		.cfi_offset 4, -8
 478 0004 2046     		mov	r0, r4
 479              	.LVL25:
 480 0006 FFF7FEFF 		bl	chSemWait
 481              		.loc 1 214 0
 482 000a 2046     		mov	r0, r4
 483 000c FFF7FEFF 		bl	chSemSignal
 484              		.loc 1 216 0
 485 0010 0020     		movs	r0, #0
 486 0012 10BD     		pop	{r4, pc}
 487              	.L30:
 488              		.align	2
 489              	.L29:
 490 0014 00000000 		.word	.LANCHOR0
 491              		.cfi_endproc
 492              	.LFE14:
 493              		.size	thread3, .-thread3
 494 0018 AFF30080 		.section	.text.thread1,"ax",%progbits
 494      AFF30080 
 495              		.align	2
 496              		.p2align 4,,15
 497              		.thumb
 498              		.thumb_func
 499              		.type	thread1, %function
 500              	thread1:
 501              	.LFB8:
 502              		.loc 1 77 0
 503              		.cfi_startproc
 504              		@ args = 0, pretend = 0, frame = 0
ARM GAS  C:\DOCUME~1\z_80\LOCALS~1\Temp\ccsJikj9.s 			page 10


 505              		@ frame_needed = 0, uses_anonymous_args = 0
 506              	.LVL26:
 507 0000 10B5     		push	{r4, lr}
 508              	.LCFI6:
 509              		.cfi_def_cfa_offset 8
 510              		.loc 1 77 0
 511 0002 0446     		mov	r4, r0
 512              		.cfi_offset 14, -4
 513              		.cfi_offset 4, -8
 514              		.loc 1 79 0
 515 0004 0348     		ldr	r0, .L32
 516              	.LVL27:
 517 0006 FFF7FEFF 		bl	chSemWait
 518              		.loc 1 80 0
 519 000a 2078     		ldrb	r0, [r4, #0]	@ zero_extendqisi2
 520 000c FFF7FEFF 		bl	test_emit_token
 521              		.loc 1 82 0
 522 0010 0020     		movs	r0, #0
 523 0012 10BD     		pop	{r4, pc}
 524              	.L33:
 525              		.align	2
 526              	.L32:
 527 0014 00000000 		.word	.LANCHOR0
 528              		.cfi_endproc
 529              	.LFE8:
 530              		.size	thread1, .-thread1
 531 0018 AFF30080 		.section	.text.sem2_execute,"ax",%progbits
 531      AFF30080 
 532              		.align	2
 533              		.p2align 4,,15
 534              		.thumb
 535              		.thumb_func
 536              		.type	sem2_execute, %function
 537              	sem2_execute:
 538              	.LFB12:
 539              		.loc 1 145 0
 540              		.cfi_startproc
 541              		@ args = 0, pretend = 0, frame = 0
 542              		@ frame_needed = 0, uses_anonymous_args = 0
 543 0000 F0B5     		push	{r4, r5, r6, r7, lr}
 544              	.LCFI7:
 545              		.cfi_def_cfa_offset 20
 546              		.loc 1 153 0
 547 0002 A34C     		ldr	r4, .L37
 548              		.cfi_offset 14, -4
 549              		.cfi_offset 7, -8
 550              		.cfi_offset 6, -12
 551              		.cfi_offset 5, -16
 552              		.cfi_offset 4, -20
 553 0004 0021     		movs	r1, #0
 554              		.loc 1 145 0
 555 0006 83B0     		sub	sp, sp, #12
 556              	.LCFI8:
 557              		.cfi_def_cfa_offset 32
 558              		.loc 1 153 0
 559 0008 2046     		mov	r0, r4
 560 000a FFF7FEFF 		bl	chSemWaitTimeout
ARM GAS  C:\DOCUME~1\z_80\LOCALS~1\Temp\ccsJikj9.s 			page 11


 561              	.LVL28:
 562              		.loc 1 154 0
 563 000e A0F1FF33 		sub	r3, r0, #-1
 564 0012 5942     		rsbs	r1, r3, #0
 565 0014 41EB0301 		adc	r1, r1, r3
 566 0018 0120     		movs	r0, #1
 567              	.LVL29:
 568 001a FFF7FEFF 		bl	_test_assert
 569              	.LVL30:
 570 001e 08B1     		cbz	r0, .L36
 571              	.L34:
 572              		.loc 1 183 0
 573 0020 03B0     		add	sp, sp, #12
 574 0022 F0BD     		pop	{r4, r5, r6, r7, pc}
 575              	.L36:
 576              		.loc 1 155 0
 577 0024 2168     		ldr	r1, [r4, #0]
 578 0026 0220     		movs	r0, #2
 579 0028 C4EB010C 		rsb	ip, r4, r1
 580 002c DCF10002 		rsbs	r2, ip, #0
 581 0030 42EB0C01 		adc	r1, r2, ip
 582 0034 FFF7FEFF 		bl	_test_assert
 583 0038 0028     		cmp	r0, #0
 584 003a F1D1     		bne	.L34
 585              		.loc 1 156 0
 586 003c A668     		ldr	r6, [r4, #8]
 587 003e 0320     		movs	r0, #3
 588 0040 D6F10101 		rsbs	r1, r6, #1
 589 0044 38BF     		it	cc
 590 0046 0021     		movcc	r1, #0
 591 0048 FFF7FEFF 		bl	_test_assert
 592 004c 0646     		mov	r6, r0
 593 004e 0028     		cmp	r0, #0
 594 0050 E6D1     		bne	.L34
 595              		.loc 1 161 0
 596 0052 904B     		ldr	r3, .L37+4
 597 0054 9048     		ldr	r0, .L37+8
 598 0056 9969     		ldr	r1, [r3, #24]
 599 0058 0068     		ldr	r0, [r0, #0]
 600 005a 8A68     		ldr	r2, [r1, #8]
 601 005c 8F4B     		ldr	r3, .L37+12
 602 005e 013A     		subs	r2, r2, #1
 603 0060 4FF49871 		mov	r1, #304
 604 0064 0096     		str	r6, [sp, #0]
 605 0066 FFF7FEFF 		bl	chThdCreateStatic
 606 006a 8D4B     		ldr	r3, .L37+16
 607              		.loc 1 163 0
 608 006c 4FF4FA71 		mov	r1, #500
 609              		.loc 1 161 0
 610 0070 1860     		str	r0, [r3, #0]
 611              		.loc 1 163 0
 612 0072 2046     		mov	r0, r4
 613 0074 FFF7FEFF 		bl	chSemWaitTimeout
 614 0078 0646     		mov	r6, r0
 615              	.LVL31:
 616              		.loc 1 164 0
 617 007a FFF7FEFF 		bl	test_wait_threads
ARM GAS  C:\DOCUME~1\z_80\LOCALS~1\Temp\ccsJikj9.s 			page 12


 618              	.LVL32:
 619              		.loc 1 165 0
 620 007e 0420     		movs	r0, #4
 621 0080 D6F10101 		rsbs	r1, r6, #1
 622 0084 38BF     		it	cc
 623 0086 0021     		movcc	r1, #0
 624 0088 FFF7FEFF 		bl	_test_assert
 625 008c 0028     		cmp	r0, #0
 626 008e C7D1     		bne	.L34
 627              		.loc 1 166 0
 628 0090 2268     		ldr	r2, [r4, #0]
 629 0092 0520     		movs	r0, #5
 630 0094 C2EB040E 		rsb	lr, r2, r4
 631 0098 DEF1000C 		rsbs	ip, lr, #0
 632 009c 4CEB0E01 		adc	r1, ip, lr
 633 00a0 FFF7FEFF 		bl	_test_assert
 634 00a4 0028     		cmp	r0, #0
 635 00a6 BBD1     		bne	.L34
 636              		.loc 1 167 0
 637 00a8 A168     		ldr	r1, [r4, #8]
 638 00aa 0620     		movs	r0, #6
 639 00ac D1F10101 		rsbs	r1, r1, #1
 640 00b0 38BF     		it	cc
 641 00b2 0021     		movcc	r1, #0
 642 00b4 FFF7FEFF 		bl	_test_assert
 643 00b8 0028     		cmp	r0, #0
 644 00ba B1D1     		bne	.L34
 645              		.loc 1 173 0
 646 00bc 794F     		ldr	r7, .L37+20
 647              		.loc 1 172 0
 648 00be FFF7FEFF 		bl	test_wait_tick
 649              		.loc 1 175 0
 650 00c2 4120     		movs	r0, #65
 651              		.loc 1 173 0
 652 00c4 FF68     		ldr	r7, [r7, #12]
 653              	.LVL33:
 654              		.loc 1 175 0
 655 00c6 FFF7FEFF 		bl	test_emit_token
 656              		.loc 1 176 0
 657 00ca 4FF4FA71 		mov	r1, #500
 658 00ce 2046     		mov	r0, r4
 659 00d0 FFF7FEFF 		bl	chSemWaitTimeout
 660              	.LVL34:
 661              		.loc 1 177 0
 662 00d4 A0F1FF33 		sub	r3, r0, #-1
 663 00d8 5842     		rsbs	r0, r3, #0
 664              	.LVL35:
 665 00da 40EB0301 		adc	r1, r0, r3
 666 00de 0720     		movs	r0, #7
 667 00e0 FFF7FEFF 		bl	_test_assert
 668              	.LVL36:
 669 00e4 0028     		cmp	r0, #0
 670 00e6 9BD1     		bne	.L34
 671              		.loc 1 178 0
 672 00e8 2268     		ldr	r2, [r4, #0]
 673 00ea 0820     		movs	r0, #8
 674 00ec C2EB040E 		rsb	lr, r2, r4
ARM GAS  C:\DOCUME~1\z_80\LOCALS~1\Temp\ccsJikj9.s 			page 13


 675 00f0 DEF1000C 		rsbs	ip, lr, #0
 676 00f4 4CEB0E01 		adc	r1, ip, lr
 677 00f8 FFF7FEFF 		bl	_test_assert
 678 00fc 0028     		cmp	r0, #0
 679 00fe 8FD1     		bne	.L34
 680              		.loc 1 179 0
 681 0100 A168     		ldr	r1, [r4, #8]
 682 0102 0920     		movs	r0, #9
 683 0104 D1F10101 		rsbs	r1, r1, #1
 684 0108 38BF     		it	cc
 685 010a 0021     		movcc	r1, #0
 686 010c FFF7FEFF 		bl	_test_assert
 687 0110 0028     		cmp	r0, #0
 688 0112 85D1     		bne	.L34
 689              	.LVL37:
 690              		.loc 1 175 0
 691 0114 4220     		movs	r0, #66
 692 0116 FFF7FEFF 		bl	test_emit_token
 693              		.loc 1 176 0
 694 011a 4FF4FA71 		mov	r1, #500
 695 011e 2046     		mov	r0, r4
 696 0120 FFF7FEFF 		bl	chSemWaitTimeout
 697              	.LVL38:
 698              		.loc 1 177 0
 699 0124 A0F1FF33 		sub	r3, r0, #-1
 700 0128 5842     		rsbs	r0, r3, #0
 701              	.LVL39:
 702 012a 40EB0301 		adc	r1, r0, r3
 703 012e 0720     		movs	r0, #7
 704 0130 FFF7FEFF 		bl	_test_assert
 705              	.LVL40:
 706 0134 0028     		cmp	r0, #0
 707 0136 7FF473AF 		bne	.L34
 708              		.loc 1 178 0
 709 013a 2268     		ldr	r2, [r4, #0]
 710 013c 0820     		movs	r0, #8
 711 013e C2EB040E 		rsb	lr, r2, r4
 712 0142 DEF1000C 		rsbs	ip, lr, #0
 713 0146 4CEB0E01 		adc	r1, ip, lr
 714 014a FFF7FEFF 		bl	_test_assert
 715 014e 0028     		cmp	r0, #0
 716 0150 7FF466AF 		bne	.L34
 717              		.loc 1 179 0
 718 0154 A168     		ldr	r1, [r4, #8]
 719 0156 0920     		movs	r0, #9
 720 0158 D1F10101 		rsbs	r1, r1, #1
 721 015c 38BF     		it	cc
 722 015e 0021     		movcc	r1, #0
 723 0160 FFF7FEFF 		bl	_test_assert
 724 0164 0028     		cmp	r0, #0
 725 0166 7FF45BAF 		bne	.L34
 726              	.LVL41:
 727              		.loc 1 175 0
 728 016a 4320     		movs	r0, #67
 729 016c FFF7FEFF 		bl	test_emit_token
 730              		.loc 1 176 0
 731 0170 4FF4FA71 		mov	r1, #500
ARM GAS  C:\DOCUME~1\z_80\LOCALS~1\Temp\ccsJikj9.s 			page 14


 732 0174 2046     		mov	r0, r4
 733 0176 FFF7FEFF 		bl	chSemWaitTimeout
 734              	.LVL42:
 735              		.loc 1 177 0
 736 017a A0F1FF33 		sub	r3, r0, #-1
 737 017e 5842     		rsbs	r0, r3, #0
 738              	.LVL43:
 739 0180 40EB0301 		adc	r1, r0, r3
 740 0184 0720     		movs	r0, #7
 741 0186 FFF7FEFF 		bl	_test_assert
 742              	.LVL44:
 743 018a 0028     		cmp	r0, #0
 744 018c 7FF448AF 		bne	.L34
 745              		.loc 1 178 0
 746 0190 2268     		ldr	r2, [r4, #0]
 747 0192 0820     		movs	r0, #8
 748 0194 C2EB040E 		rsb	lr, r2, r4
 749 0198 DEF1000C 		rsbs	ip, lr, #0
 750 019c 4CEB0E01 		adc	r1, ip, lr
 751 01a0 FFF7FEFF 		bl	_test_assert
 752 01a4 0028     		cmp	r0, #0
 753 01a6 7FF43BAF 		bne	.L34
 754              		.loc 1 179 0
 755 01aa A168     		ldr	r1, [r4, #8]
 756 01ac 0920     		movs	r0, #9
 757 01ae D1F10101 		rsbs	r1, r1, #1
 758 01b2 38BF     		it	cc
 759 01b4 0021     		movcc	r1, #0
 760 01b6 FFF7FEFF 		bl	_test_assert
 761 01ba 0028     		cmp	r0, #0
 762 01bc 7FF430AF 		bne	.L34
 763              	.LVL45:
 764              		.loc 1 175 0
 765 01c0 4420     		movs	r0, #68
 766 01c2 FFF7FEFF 		bl	test_emit_token
 767              		.loc 1 176 0
 768 01c6 4FF4FA71 		mov	r1, #500
 769 01ca 2046     		mov	r0, r4
 770 01cc FFF7FEFF 		bl	chSemWaitTimeout
 771              	.LVL46:
 772              		.loc 1 177 0
 773 01d0 A0F1FF33 		sub	r3, r0, #-1
 774 01d4 5842     		rsbs	r0, r3, #0
 775              	.LVL47:
 776 01d6 40EB0301 		adc	r1, r0, r3
 777 01da 0720     		movs	r0, #7
 778 01dc FFF7FEFF 		bl	_test_assert
 779              	.LVL48:
 780 01e0 0028     		cmp	r0, #0
 781 01e2 7FF41DAF 		bne	.L34
 782              		.loc 1 178 0
 783 01e6 2268     		ldr	r2, [r4, #0]
 784 01e8 0820     		movs	r0, #8
 785 01ea C2EB040E 		rsb	lr, r2, r4
 786 01ee DEF1000C 		rsbs	ip, lr, #0
 787 01f2 4CEB0E01 		adc	r1, ip, lr
 788 01f6 FFF7FEFF 		bl	_test_assert
ARM GAS  C:\DOCUME~1\z_80\LOCALS~1\Temp\ccsJikj9.s 			page 15


 789 01fa 0028     		cmp	r0, #0
 790 01fc 7FF410AF 		bne	.L34
 791              		.loc 1 179 0
 792 0200 A168     		ldr	r1, [r4, #8]
 793 0202 0920     		movs	r0, #9
 794 0204 D1F10101 		rsbs	r1, r1, #1
 795 0208 38BF     		it	cc
 796 020a 0021     		movcc	r1, #0
 797 020c FFF7FEFF 		bl	_test_assert
 798 0210 0028     		cmp	r0, #0
 799 0212 7FF405AF 		bne	.L34
 800              	.LVL49:
 801              		.loc 1 175 0
 802 0216 4520     		movs	r0, #69
 803 0218 FFF7FEFF 		bl	test_emit_token
 804              		.loc 1 176 0
 805 021c 4FF4FA71 		mov	r1, #500
 806 0220 2046     		mov	r0, r4
 807 0222 FFF7FEFF 		bl	chSemWaitTimeout
 808              	.LVL50:
 809              		.loc 1 177 0
 810 0226 A0F1FF33 		sub	r3, r0, #-1
 811 022a 5842     		rsbs	r0, r3, #0
 812              	.LVL51:
 813 022c 40EB0301 		adc	r1, r0, r3
 814 0230 0720     		movs	r0, #7
 815 0232 FFF7FEFF 		bl	_test_assert
 816              	.LVL52:
 817 0236 0028     		cmp	r0, #0
 818 0238 7FF4F2AE 		bne	.L34
 819              		.loc 1 178 0
 820 023c 2268     		ldr	r2, [r4, #0]
 821 023e 0820     		movs	r0, #8
 822 0240 C2EB040E 		rsb	lr, r2, r4
 823 0244 DEF1000C 		rsbs	ip, lr, #0
 824 0248 4CEB0E01 		adc	r1, ip, lr
 825 024c FFF7FEFF 		bl	_test_assert
 826 0250 0028     		cmp	r0, #0
 827 0252 7FF4E5AE 		bne	.L34
 828              		.loc 1 179 0
 829 0256 A168     		ldr	r1, [r4, #8]
 830 0258 0920     		movs	r0, #9
 831 025a D1F10101 		rsbs	r1, r1, #1
 832 025e 38BF     		it	cc
 833 0260 0021     		movcc	r1, #0
 834 0262 FFF7FEFF 		bl	_test_assert
 835 0266 0028     		cmp	r0, #0
 836 0268 7FF4DAAE 		bne	.L34
 837              	.LVL53:
 838              		.loc 1 181 0
 839 026c 0A20     		movs	r0, #10
 840 026e 0E49     		ldr	r1, .L37+24
 841 0270 FFF7FEFF 		bl	_test_assert_sequence
 842 0274 0028     		cmp	r0, #0
 843 0276 7FF4D3AE 		bne	.L34
 844              		.loc 1 173 0
 845 027a 07F51C62 		add	r2, r7, #2496
ARM GAS  C:\DOCUME~1\z_80\LOCALS~1\Temp\ccsJikj9.s 			page 16


 846              		.loc 1 182 0
 847 027e 111D     		adds	r1, r2, #4
 848 0280 0B20     		movs	r0, #11
 849 0282 0932     		adds	r2, r2, #9
 850              		.loc 1 183 0
 851 0284 03B0     		add	sp, sp, #12
 852 0286 BDE8F040 		pop	{r4, r5, r6, r7, lr}
 853              		.loc 1 182 0
 854 028a FFF7FEBF 		b	_test_assert_time_window
 855              	.L38:
 856 028e 00BF     		.align	2
 857              	.L37:
 858 0290 00000000 		.word	.LANCHOR0
 859 0294 00000000 		.word	rlist
 860 0298 00000000 		.word	wa
 861 029c 00000000 		.word	thread2
 862 02a0 00000000 		.word	threads
 863 02a4 00000000 		.word	vtlist
 864 02a8 00000000 		.word	.LC0
 865              		.cfi_endproc
 866              	.LFE12:
 867              		.size	sem2_execute, .-sem2_execute
 868 02ac AFF30080 		.section	.text.thread2,"ax",%progbits
 869              		.align	2
 870              		.p2align 4,,15
 871              		.thumb
 872              		.thumb_func
 873              		.type	thread2, %function
 874              	thread2:
 875              	.LFB11:
 876              		.loc 1 134 0
 877              		.cfi_startproc
 878              		@ args = 0, pretend = 0, frame = 0
 879              		@ frame_needed = 0, uses_anonymous_args = 0
 880              	.LVL54:
 881 0000 08B5     		push	{r3, lr}
 882              	.LCFI9:
 883              		.cfi_def_cfa_offset 8
 884              		.loc 1 137 0
 885 0002 3220     		movs	r0, #50
 886              	.LVL55:
 887              		.cfi_offset 14, -4
 888              		.cfi_offset 3, -8
 889 0004 FFF7FEFF 		bl	chThdSleep
 890              	.LBB9:
 891              		.loc 1 138 0
 892 0008 2023     		movs	r3, #32
 893              	.LVL56:
 894              	@ 138 "../chibios_2.6.3/test/testsem.c" 1
 895 000a 83F31188 		msr     BASEPRI, r3
 896              	@ 0 "" 2
 897              	.LVL57:
 898              		.thumb
 899              	.LBE9:
 900              		.loc 1 139 0
 901 000e 0548     		ldr	r0, .L40
 902 0010 FFF7FEFF 		bl	chSemSignalI
ARM GAS  C:\DOCUME~1\z_80\LOCALS~1\Temp\ccsJikj9.s 			page 17


 903              	.LVL58:
 904              		.loc 1 140 0
 905 0014 FFF7FEFF 		bl	chSchRescheduleS
 906              	.LBB10:
 907              		.loc 1 141 0
 908 0018 0023     		movs	r3, #0
 909              	.LVL59:
 910              	@ 141 "../chibios_2.6.3/test/testsem.c" 1
 911 001a 83F31188 		msr     BASEPRI, r3
 912              	@ 0 "" 2
 913              	.LVL60:
 914              		.thumb
 915              	.LBE10:
 916              		.loc 1 143 0
 917 001e 1846     		mov	r0, r3
 918 0020 08BD     		pop	{r3, pc}
 919              	.L41:
 920 0022 00BF     		.align	2
 921              	.L40:
 922 0024 00000000 		.word	.LANCHOR0
 923              		.cfi_endproc
 924              	.LFE11:
 925              		.size	thread2, .-thread2
 926 0028 AFF30080 		.section	.text.sem1_execute,"ax",%progbits
 926      AFF30080 
 927              		.align	2
 928              		.p2align 4,,15
 929              		.thumb
 930              		.thumb_func
 931              		.type	sem1_execute, %function
 932              	sem1_execute:
 933              	.LFB9:
 934              		.loc 1 84 0
 935              		.cfi_startproc
 936              		@ args = 0, pretend = 0, frame = 0
 937              		@ frame_needed = 0, uses_anonymous_args = 0
 938 0000 2DE9F043 		push	{r4, r5, r6, r7, r8, r9, lr}
 939              	.LCFI10:
 940              		.cfi_def_cfa_offset 28
 941              		.loc 1 86 0
 942 0004 474E     		ldr	r6, .L45
 943              		.cfi_offset 14, -4
 944              		.cfi_offset 9, -8
 945              		.cfi_offset 8, -12
 946              		.cfi_offset 7, -16
 947              		.cfi_offset 6, -20
 948              		.cfi_offset 5, -24
 949              		.cfi_offset 4, -28
 950 0006 484C     		ldr	r4, .L45+4
 951 0008 B569     		ldr	r5, [r6, #24]
 952 000a D4F80090 		ldr	r9, [r4, #0]
 953 000e A868     		ldr	r0, [r5, #8]
 954 0010 464F     		ldr	r7, .L45+8
 955              		.loc 1 84 0
 956 0012 83B0     		sub	sp, sp, #12
 957              	.LCFI11:
 958              		.cfi_def_cfa_offset 40
ARM GAS  C:\DOCUME~1\z_80\LOCALS~1\Temp\ccsJikj9.s 			page 18


 959              		.loc 1 86 0
 960 0014 421D     		adds	r2, r0, #5
 961 0016 4FF49871 		mov	r1, #304
 962 001a 454B     		ldr	r3, .L45+12
 963 001c 4846     		mov	r0, r9
 964 001e 0097     		str	r7, [sp, #0]
 965 0020 FFF7FEFF 		bl	chThdCreateStatic
 966              		.loc 1 87 0
 967 0024 B169     		ldr	r1, [r6, #24]
 968              		.loc 1 86 0
 969 0026 434D     		ldr	r5, .L45+16
 970              		.loc 1 87 0
 971 0028 8B68     		ldr	r3, [r1, #8]
 972 002a D4F804C0 		ldr	ip, [r4, #4]
 973 002e DFF81481 		ldr	r8, .L45+32
 974              		.loc 1 86 0
 975 0032 2860     		str	r0, [r5, #0]
 976              		.loc 1 87 0
 977 0034 5A1C     		adds	r2, r3, #1
 978 0036 4FF49871 		mov	r1, #304
 979 003a 3D4B     		ldr	r3, .L45+12
 980 003c 6046     		mov	r0, ip
 981 003e CDF80080 		str	r8, [sp, #0]
 982 0042 FFF7FEFF 		bl	chThdCreateStatic
 983              		.loc 1 88 0
 984 0046 B269     		ldr	r2, [r6, #24]
 985 0048 D4F808E0 		ldr	lr, [r4, #8]
 986 004c 9368     		ldr	r3, [r2, #8]
 987 004e DFF8F8C0 		ldr	ip, .L45+36
 988              		.loc 1 87 0
 989 0052 6860     		str	r0, [r5, #4]
 990              		.loc 1 88 0
 991 0054 DA1C     		adds	r2, r3, #3
 992 0056 4FF49871 		mov	r1, #304
 993 005a 354B     		ldr	r3, .L45+12
 994 005c 7046     		mov	r0, lr
 995 005e CDF800C0 		str	ip, [sp, #0]
 996 0062 FFF7FEFF 		bl	chThdCreateStatic
 997              		.loc 1 89 0
 998 0066 B169     		ldr	r1, [r6, #24]
 999 0068 D4F80C80 		ldr	r8, [r4, #12]
 1000 006c 8A68     		ldr	r2, [r1, #8]
 1001 006e DFF8DCE0 		ldr	lr, .L45+40
 1002              		.loc 1 88 0
 1003 0072 A860     		str	r0, [r5, #8]
 1004              		.loc 1 89 0
 1005 0074 4FF49871 		mov	r1, #304
 1006 0078 0432     		adds	r2, r2, #4
 1007 007a 2D4B     		ldr	r3, .L45+12
 1008 007c 4046     		mov	r0, r8
 1009 007e CDF800E0 		str	lr, [sp, #0]
 1010 0082 FFF7FEFF 		bl	chThdCreateStatic
 1011              		.loc 1 90 0
 1012 0086 B369     		ldr	r3, [r6, #24]
 1013 0088 2469     		ldr	r4, [r4, #16]
 1014 008a 9A68     		ldr	r2, [r3, #8]
 1015              		.loc 1 89 0
ARM GAS  C:\DOCUME~1\z_80\LOCALS~1\Temp\ccsJikj9.s 			page 19


 1016 008c E860     		str	r0, [r5, #12]
 1017              		.loc 1 90 0
 1018 008e 2046     		mov	r0, r4
 1019 0090 294C     		ldr	r4, .L45+20
 1020 0092 4FF49871 		mov	r1, #304
 1021 0096 0232     		adds	r2, r2, #2
 1022 0098 254B     		ldr	r3, .L45+12
 1023 009a 0094     		str	r4, [sp, #0]
 1024 009c FFF7FEFF 		bl	chThdCreateStatic
 1025              		.loc 1 91 0
 1026 00a0 264C     		ldr	r4, .L45+24
 1027              		.loc 1 90 0
 1028 00a2 2861     		str	r0, [r5, #16]
 1029              		.loc 1 91 0
 1030 00a4 2046     		mov	r0, r4
 1031 00a6 FFF7FEFF 		bl	chSemSignal
 1032              		.loc 1 92 0
 1033 00aa 2046     		mov	r0, r4
 1034 00ac FFF7FEFF 		bl	chSemSignal
 1035              		.loc 1 93 0
 1036 00b0 2046     		mov	r0, r4
 1037 00b2 FFF7FEFF 		bl	chSemSignal
 1038              		.loc 1 94 0
 1039 00b6 2046     		mov	r0, r4
 1040 00b8 FFF7FEFF 		bl	chSemSignal
 1041              		.loc 1 95 0
 1042 00bc 2046     		mov	r0, r4
 1043 00be FFF7FEFF 		bl	chSemSignal
 1044              		.loc 1 96 0
 1045 00c2 FFF7FEFF 		bl	test_wait_threads
 1046              		.loc 1 100 0
 1047 00c6 0120     		movs	r0, #1
 1048 00c8 1D49     		ldr	r1, .L45+28
 1049 00ca FFF7FEFF 		bl	_test_assert_sequence
 1050 00ce 8046     		mov	r8, r0
 1051 00d0 10B1     		cbz	r0, .L44
 1052              		.loc 1 109 0
 1053 00d2 03B0     		add	sp, sp, #12
 1054 00d4 BDE8F083 		pop	{r4, r5, r6, r7, r8, r9, pc}
 1055              	.L44:
 1056              		.loc 1 102 0
 1057 00d8 B169     		ldr	r1, [r6, #24]
 1058 00da 4846     		mov	r0, r9
 1059 00dc 8A68     		ldr	r2, [r1, #8]
 1060 00de 144B     		ldr	r3, .L45+12
 1061 00e0 4FF49871 		mov	r1, #304
 1062 00e4 0532     		adds	r2, r2, #5
 1063 00e6 0097     		str	r7, [sp, #0]
 1064 00e8 FFF7FEFF 		bl	chThdCreateStatic
 1065              	.LBB11:
 1066              		.loc 1 103 0
 1067 00ec 2023     		movs	r3, #32
 1068              	.LVL61:
 1069              	.LBE11:
 1070              		.loc 1 102 0
 1071 00ee 2860     		str	r0, [r5, #0]
 1072              	.LBB12:
ARM GAS  C:\DOCUME~1\z_80\LOCALS~1\Temp\ccsJikj9.s 			page 20


 1073              		.loc 1 103 0
 1074              	@ 103 "../chibios_2.6.3/test/testsem.c" 1
 1075 00f0 83F31188 		msr     BASEPRI, r3
 1076              	@ 0 "" 2
 1077              	.LVL62:
 1078              		.thumb
 1079              	.LBE12:
 1080              		.loc 1 104 0
 1081 00f4 0221     		movs	r1, #2
 1082 00f6 2046     		mov	r0, r4
 1083 00f8 FFF7FEFF 		bl	chSemAddCounterI
 1084              	.LVL63:
 1085              		.loc 1 105 0
 1086 00fc FFF7FEFF 		bl	chSchRescheduleS
 1087              	.LBB13:
 1088              		.loc 1 106 0
 1089 0100 4346     		mov	r3, r8
 1090              	.LVL64:
 1091              	@ 106 "../chibios_2.6.3/test/testsem.c" 1
 1092 0102 83F31188 		msr     BASEPRI, r3
 1093              	@ 0 "" 2
 1094              	.LVL65:
 1095              		.thumb
 1096              	.LBE13:
 1097              		.loc 1 107 0
 1098 0106 FFF7FEFF 		bl	test_wait_threads
 1099              	.LVL66:
 1100              		.loc 1 108 0
 1101 010a A368     		ldr	r3, [r4, #8]
 1102 010c 0220     		movs	r0, #2
 1103 010e A3F10102 		sub	r2, r3, #1
 1104 0112 D2F1000C 		rsbs	ip, r2, #0
 1105 0116 4CEB0201 		adc	r1, ip, r2
 1106              		.loc 1 109 0
 1107 011a 03B0     		add	sp, sp, #12
 1108 011c BDE8F043 		pop	{r4, r5, r6, r7, r8, r9, lr}
 1109              		.loc 1 108 0
 1110 0120 FFF7FEBF 		b	_test_assert
 1111              	.L46:
 1112              		.align	2
 1113              	.L45:
 1114 0124 00000000 		.word	rlist
 1115 0128 00000000 		.word	wa
 1116 012c 08000000 		.word	.LC1
 1117 0130 00000000 		.word	thread1
 1118 0134 00000000 		.word	threads
 1119 0138 18000000 		.word	.LC5
 1120 013c 00000000 		.word	.LANCHOR0
 1121 0140 00000000 		.word	.LC0
 1122 0144 0C000000 		.word	.LC2
 1123 0148 10000000 		.word	.LC3
 1124 014c 14000000 		.word	.LC4
 1125              		.cfi_endproc
 1126              	.LFE9:
 1127              		.size	sem1_execute, .-sem1_execute
 1128              		.global	testsem1
 1129              		.global	testsem2
ARM GAS  C:\DOCUME~1\z_80\LOCALS~1\Temp\ccsJikj9.s 			page 21


 1130              		.global	testsem3
 1131              		.global	testsem4
 1132              		.global	patternsem
 1133              		.section	.rodata.testsem1,"a",%progbits
 1134              		.align	2
 1135              		.type	testsem1, %object
 1136              		.size	testsem1, 16
 1137              	testsem1:
 1138 0000 1C000000 		.word	.LC6
 1139 0004 00000000 		.word	sem1_setup
 1140 0008 00000000 		.word	0
 1141 000c 00000000 		.word	sem1_execute
 1142              		.section	.rodata.testsem2,"a",%progbits
 1143              		.align	2
 1144              		.type	testsem2, %object
 1145              		.size	testsem2, 16
 1146              	testsem2:
 1147 0000 34000000 		.word	.LC7
 1148 0004 00000000 		.word	sem2_setup
 1149 0008 00000000 		.word	0
 1150 000c 00000000 		.word	sem2_execute
 1151              		.section	.rodata.testsem3,"a",%progbits
 1152              		.align	2
 1153              		.type	testsem3, %object
 1154              		.size	testsem3, 16
 1155              	testsem3:
 1156 0000 48000000 		.word	.LC8
 1157 0004 00000000 		.word	sem3_setup
 1158 0008 00000000 		.word	0
 1159 000c 00000000 		.word	sem3_execute
 1160              		.section	.rodata.testsem4,"a",%progbits
 1161              		.align	2
 1162              		.type	testsem4, %object
 1163              		.size	testsem4, 16
 1164              	testsem4:
 1165 0000 68000000 		.word	.LC9
 1166 0004 00000000 		.word	0
 1167 0008 00000000 		.word	0
 1168 000c 00000000 		.word	sem4_execute
 1169              		.section	.data.sem1,"aw",%progbits
 1170              		.align	2
 1171              		.set	.LANCHOR0,. + 0
 1172              		.type	sem1, %object
 1173              		.size	sem1, 12
 1174              	sem1:
 1175 0000 00000000 		.word	sem1
 1176 0004 00000000 		.word	sem1
 1177 0008 00000000 		.word	0
 1178              		.section	.rodata.patternsem,"a",%progbits
 1179              		.align	2
 1180              		.type	patternsem, %object
 1181              		.size	patternsem, 20
 1182              	patternsem:
 1183 0000 00000000 		.word	testsem1
 1184 0004 00000000 		.word	testsem2
 1185 0008 00000000 		.word	testsem3
 1186 000c 00000000 		.word	testsem4
ARM GAS  C:\DOCUME~1\z_80\LOCALS~1\Temp\ccsJikj9.s 			page 22


 1187 0010 00000000 		.word	0
 1188              		.section	.rodata.str1.4,"aMS",%progbits,1
 1189              		.align	2
 1190              	.LC0:
 1191 0000 41424344 		.ascii	"ABCDE\000"
 1191      4500
 1192 0006 0000     		.space	2
 1193              	.LC1:
 1194 0008 4100     		.ascii	"A\000"
 1195 000a 0000     		.space	2
 1196              	.LC2:
 1197 000c 4200     		.ascii	"B\000"
 1198 000e 0000     		.space	2
 1199              	.LC3:
 1200 0010 4300     		.ascii	"C\000"
 1201 0012 0000     		.space	2
 1202              	.LC4:
 1203 0014 4400     		.ascii	"D\000"
 1204 0016 0000     		.space	2
 1205              	.LC5:
 1206 0018 4500     		.ascii	"E\000"
 1207 001a 0000     		.space	2
 1208              	.LC6:
 1209 001c 53656D61 		.ascii	"Semaphores, enqueuing\000"
 1209      70686F72 
 1209      65732C20 
 1209      656E7175 
 1209      6575696E 
 1210 0032 0000     		.space	2
 1211              	.LC7:
 1212 0034 53656D61 		.ascii	"Semaphores, timeout\000"
 1212      70686F72 
 1212      65732C20 
 1212      74696D65 
 1212      6F757400 
 1213              	.LC8:
 1214 0048 53656D61 		.ascii	"Semaphores, atomic signal-wait\000"
 1214      70686F72 
 1214      65732C20 
 1214      61746F6D 
 1214      69632073 
 1215 0067 00       		.space	1
 1216              	.LC9:
 1217 0068 42696E61 		.ascii	"Binary Semaphores, functionality\000"
 1217      72792053 
 1217      656D6170 
 1217      686F7265 
 1217      732C2066 
 1218 0089 000000   		.text
 1219              	.Letext0: