ARM GAS  C:\DOCUME~1\z_80\LOCALS~1\Temp\ccVBPtpD.s 			page 1


   1              		.syntax unified
   2              		.cpu cortex-m3
   3              		.fpu softvfp
   4              		.eabi_attribute 20, 1
   5              		.eabi_attribute 21, 1
   6              		.eabi_attribute 23, 3
   7              		.eabi_attribute 24, 1
   8              		.eabi_attribute 25, 1
   9              		.eabi_attribute 26, 1
  10              		.eabi_attribute 30, 2
  11              		.eabi_attribute 18, 4
  12              		.thumb
  13              		.file	"testbmk.c"
  20 0000 EE050000 		.text
  20      0200D301 
  20      00000201 
  20      FB0E0D00 
  20      01010101 
  21              	.Ltext0:
  22              		.cfi_sections	.debug_frame
  23              		.section	.text.thread2,"ax",%progbits
  24              		.align	2
  25              		.p2align 4,,15
  26              		.thumb
  27              		.thumb_func
  28              		.type	thread2, %function
  29              	thread2:
  30              	.LFB11:
  31              		.file 1 "../chibios_2.6.3/test/testbmk.c"
  32              		.loc 1 154 0
  33              		.cfi_startproc
  34              		@ args = 0, pretend = 0, frame = 0
  35              		@ frame_needed = 0, uses_anonymous_args = 0
  36              		@ link register save eliminated.
  37              	.LVL0:
  38              		.loc 1 157 0
  39 0000 7047     		bx	lr
  40              		.cfi_endproc
  41              	.LFE11:
  42              		.size	thread2, .-thread2
  43 0002 00BFAFF3 		.section	.text.tmo,"ax",%progbits
  43      0080AFF3 
  43      0080AFF3 
  43      0080
  44              		.align	2
  45              		.p2align 4,,15
  46              		.thumb
  47              		.thumb_func
  48              		.type	tmo, %function
  49              	tmo:
  50              	.LFB23:
ARM GAS  C:\DOCUME~1\z_80\LOCALS~1\Temp\ccVBPtpD.s 			page 2


  51              		.loc 1 502 0
  52              		.cfi_startproc
  53              		@ args = 0, pretend = 0, frame = 0
  54              		@ frame_needed = 0, uses_anonymous_args = 0
  55              		@ link register save eliminated.
  56              	.LVL1:
  57              		.loc 1 502 0
  58 0000 7047     		bx	lr
  59              		.cfi_endproc
  60              	.LFE23:
  61              		.size	tmo, .-tmo
  62 0002 00BFAFF3 		.section	.text.bmk13_execute,"ax",%progbits
  62      0080AFF3 
  62      0080AFF3 
  62      0080
  63              		.align	2
  64              		.p2align 4,,15
  65              		.thumb
  66              		.thumb_func
  67              		.type	bmk13_execute, %function
  68              	bmk13_execute:
  69              	.LFB29:
  70              		.loc 1 637 0
  71              		.cfi_startproc
  72              		@ args = 0, pretend = 0, frame = 0
  73              		@ frame_needed = 0, uses_anonymous_args = 0
  74 0000 10B5     		push	{r4, lr}
  75              	.LCFI0:
  76              		.cfi_def_cfa_offset 8
  77              		.loc 1 639 0
  78 0002 2F48     		ldr	r0, .L4
  79              		.loc 1 645 0
  80 0004 2F4C     		ldr	r4, .L4+4
  81              		.cfi_offset 14, -4
  82              		.cfi_offset 4, -8
  83              		.loc 1 639 0
  84 0006 FFF7FEFF 		bl	test_print
  85              		.loc 1 640 0
  86 000a 4FF4CA70 		mov	r0, #404
  87 000e FFF7FEFF 		bl	test_printn
  88              		.loc 1 645 0
  89 0012 2046     		mov	r0, r4
  90 0014 FFF7FEFF 		bl	test_println
  91              		.loc 1 646 0
  92 0018 2B48     		ldr	r0, .L4+8
  93 001a FFF7FEFF 		bl	test_print
  94              		.loc 1 647 0
  95 001e 4820     		movs	r0, #72
  96 0020 FFF7FEFF 		bl	test_printn
  97              		.loc 1 648 0
  98 0024 2046     		mov	r0, r4
  99 0026 FFF7FEFF 		bl	test_println
 100              		.loc 1 649 0
 101 002a 2848     		ldr	r0, .L4+12
 102 002c FFF7FEFF 		bl	test_print
 103              		.loc 1 650 0
 104 0030 1420     		movs	r0, #20
ARM GAS  C:\DOCUME~1\z_80\LOCALS~1\Temp\ccVBPtpD.s 			page 3


 105 0032 FFF7FEFF 		bl	test_printn
 106              		.loc 1 651 0
 107 0036 2046     		mov	r0, r4
 108 0038 FFF7FEFF 		bl	test_println
 109              		.loc 1 653 0
 110 003c 2448     		ldr	r0, .L4+16
 111 003e FFF7FEFF 		bl	test_print
 112              		.loc 1 654 0
 113 0042 0C20     		movs	r0, #12
 114 0044 FFF7FEFF 		bl	test_printn
 115              		.loc 1 655 0
 116 0048 2046     		mov	r0, r4
 117 004a FFF7FEFF 		bl	test_println
 118              		.loc 1 658 0
 119 004e 2148     		ldr	r0, .L4+20
 120 0050 FFF7FEFF 		bl	test_print
 121              		.loc 1 659 0
 122 0054 0420     		movs	r0, #4
 123 0056 FFF7FEFF 		bl	test_printn
 124              		.loc 1 660 0
 125 005a 2046     		mov	r0, r4
 126 005c FFF7FEFF 		bl	test_println
 127              		.loc 1 661 0
 128 0060 1D48     		ldr	r0, .L4+24
 129 0062 FFF7FEFF 		bl	test_print
 130              		.loc 1 662 0
 131 0066 1020     		movs	r0, #16
 132 0068 FFF7FEFF 		bl	test_printn
 133              		.loc 1 663 0
 134 006c 2046     		mov	r0, r4
 135 006e FFF7FEFF 		bl	test_println
 136              		.loc 1 666 0
 137 0072 1A48     		ldr	r0, .L4+28
 138 0074 FFF7FEFF 		bl	test_print
 139              		.loc 1 667 0
 140 0078 1020     		movs	r0, #16
 141 007a FFF7FEFF 		bl	test_printn
 142              		.loc 1 668 0
 143 007e 2046     		mov	r0, r4
 144 0080 FFF7FEFF 		bl	test_println
 145              		.loc 1 671 0
 146 0084 1648     		ldr	r0, .L4+32
 147 0086 FFF7FEFF 		bl	test_print
 148              		.loc 1 672 0
 149 008a 0820     		movs	r0, #8
 150 008c FFF7FEFF 		bl	test_printn
 151              		.loc 1 673 0
 152 0090 2046     		mov	r0, r4
 153 0092 FFF7FEFF 		bl	test_println
 154              		.loc 1 676 0
 155 0096 1348     		ldr	r0, .L4+36
 156 0098 FFF7FEFF 		bl	test_print
 157              		.loc 1 677 0
 158 009c 2420     		movs	r0, #36
 159 009e FFF7FEFF 		bl	test_printn
 160              		.loc 1 678 0
 161 00a2 2046     		mov	r0, r4
ARM GAS  C:\DOCUME~1\z_80\LOCALS~1\Temp\ccVBPtpD.s 			page 4


 162 00a4 FFF7FEFF 		bl	test_println
 163              		.loc 1 681 0
 164 00a8 0F48     		ldr	r0, .L4+40
 165 00aa FFF7FEFF 		bl	test_print
 166              		.loc 1 682 0
 167 00ae 2820     		movs	r0, #40
 168 00b0 FFF7FEFF 		bl	test_printn
 169              		.loc 1 683 0
 170 00b4 2046     		mov	r0, r4
 171              		.loc 1 685 0
 172 00b6 BDE81040 		pop	{r4, lr}
 173              		.loc 1 683 0
 174 00ba FFF7FEBF 		b	test_println
 175              	.L5:
 176 00be 00BF     		.align	2
 177              	.L4:
 178 00c0 00000000 		.word	.LC0
 179 00c4 10000000 		.word	.LC1
 180 00c8 18000000 		.word	.LC2
 181 00cc 28000000 		.word	.LC3
 182 00d0 38000000 		.word	.LC4
 183 00d4 48000000 		.word	.LC5
 184 00d8 58000000 		.word	.LC6
 185 00dc 68000000 		.word	.LC7
 186 00e0 78000000 		.word	.LC8
 187 00e4 88000000 		.word	.LC9
 188 00e8 98000000 		.word	.LC10
 189              		.cfi_endproc
 190              	.LFE29:
 191              		.size	bmk13_execute, .-bmk13_execute
 192 00ec AFF30080 		.section	.text.bmk12_execute,"ax",%progbits
 193              		.align	2
 194              		.p2align 4,,15
 195              		.thumb
 196              		.thumb_func
 197              		.type	bmk12_execute, %function
 198              	bmk12_execute:
 199              	.LFB28:
 200              		.loc 1 598 0
 201              		.cfi_startproc
 202              		@ args = 0, pretend = 0, frame = 0
 203              		@ frame_needed = 0, uses_anonymous_args = 0
 204              	.LVL2:
 205 0000 70B5     		push	{r4, r5, r6, lr}
 206              	.LCFI1:
 207              		.cfi_def_cfa_offset 16
 208              		.loc 1 601 0
 209              		.cfi_offset 14, -4
 210              		.cfi_offset 6, -8
 211              		.cfi_offset 5, -12
 212              		.cfi_offset 4, -16
 213 0002 FFF7FEFF 		bl	test_wait_tick
 214              		.loc 1 602 0
 215 0006 4FF47A70 		mov	r0, #1000
 216 000a FFF7FEFF 		bl	test_start_timer
 217 000e 124D     		ldr	r5, .L10
 218              		.loc 1 599 0
ARM GAS  C:\DOCUME~1\z_80\LOCALS~1\Temp\ccVBPtpD.s 			page 5


 219 0010 0024     		movs	r4, #0
 220              	.LVL3:
 221              	.L7:
 222              		.loc 1 604 0 discriminator 1
 223 0012 1248     		ldr	r0, .L10+4
 224 0014 FFF7FEFF 		bl	chMtxLock
 225              		.loc 1 605 0 discriminator 1
 226 0018 FFF7FEFF 		bl	chMtxUnlock
 227              		.loc 1 606 0 discriminator 1
 228 001c 0F48     		ldr	r0, .L10+4
 229 001e FFF7FEFF 		bl	chMtxLock
 230              		.loc 1 607 0 discriminator 1
 231 0022 FFF7FEFF 		bl	chMtxUnlock
 232              		.loc 1 608 0 discriminator 1
 233 0026 0D48     		ldr	r0, .L10+4
 234 0028 FFF7FEFF 		bl	chMtxLock
 235              		.loc 1 609 0 discriminator 1
 236 002c FFF7FEFF 		bl	chMtxUnlock
 237              		.loc 1 610 0 discriminator 1
 238 0030 0A48     		ldr	r0, .L10+4
 239 0032 FFF7FEFF 		bl	chMtxLock
 240              		.loc 1 611 0 discriminator 1
 241 0036 FFF7FEFF 		bl	chMtxUnlock
 242              		.loc 1 616 0 discriminator 1
 243 003a 2B78     		ldrb	r3, [r5, #0]	@ zero_extendqisi2
 244              		.loc 1 612 0 discriminator 1
 245 003c 0134     		adds	r4, r4, #1
 246              	.LVL4:
 247              		.loc 1 616 0 discriminator 1
 248 003e 002B     		cmp	r3, #0
 249 0040 E7D0     		beq	.L7
 250              		.loc 1 617 0
 251 0042 0748     		ldr	r0, .L10+8
 252 0044 FFF7FEFF 		bl	test_print
 253              		.loc 1 618 0
 254 0048 A000     		lsls	r0, r4, #2
 255 004a FFF7FEFF 		bl	test_printn
 256              		.loc 1 619 0
 257 004e 0548     		ldr	r0, .L10+12
 258              		.loc 1 620 0
 259 0050 BDE87040 		pop	{r4, r5, r6, lr}
 260              		.loc 1 619 0
 261 0054 FFF7FEBF 		b	test_println
 262              	.L11:
 263              		.align	2
 264              	.L10:
 265 0058 00000000 		.word	test_timer_done
 266 005c 00000000 		.word	.LANCHOR0
 267 0060 A8000000 		.word	.LC11
 268 0064 B8000000 		.word	.LC12
 269              		.cfi_endproc
 270              	.LFE28:
 271              		.size	bmk12_execute, .-bmk12_execute
 272 0068 AFF30080 		.section	.text.bmk12_setup,"ax",%progbits
 272      AFF30080 
 273              		.align	2
 274              		.p2align 4,,15
ARM GAS  C:\DOCUME~1\z_80\LOCALS~1\Temp\ccVBPtpD.s 			page 6


 275              		.thumb
 276              		.thumb_func
 277              		.type	bmk12_setup, %function
 278              	bmk12_setup:
 279              	.LFB27:
 280              		.loc 1 593 0
 281              		.cfi_startproc
 282              		@ args = 0, pretend = 0, frame = 0
 283              		@ frame_needed = 0, uses_anonymous_args = 0
 284              		@ link register save eliminated.
 285              		.loc 1 595 0
 286 0000 0148     		ldr	r0, .L13
 287              		.loc 1 596 0
 288              		.loc 1 595 0
 289 0002 FFF7FEBF 		b	chMtxInit
 290              	.L14:
 291 0006 00BF     		.align	2
 292              	.L13:
 293 0008 00000000 		.word	.LANCHOR0
 294              		.cfi_endproc
 295              	.LFE27:
 296              		.size	bmk12_setup, .-bmk12_setup
 297 000c AFF30080 		.section	.text.thread3,"ax",%progbits
 298              		.align	2
 299              		.p2align 4,,15
 300              		.thumb
 301              		.thumb_func
 302              		.type	thread3, %function
 303              	thread3:
 304              	.LFB17:
 305              		.loc 1 341 0
 306              		.cfi_startproc
 307              		@ args = 0, pretend = 0, frame = 0
 308              		@ frame_needed = 0, uses_anonymous_args = 0
 309              	.LVL5:
 310 0000 10B5     		push	{r4, lr}
 311              	.LCFI2:
 312              		.cfi_def_cfa_offset 8
 313              		.loc 1 344 0
 314 0002 084C     		ldr	r4, .L20
 315              		.cfi_offset 14, -4
 316              		.cfi_offset 4, -8
 317 0004 A069     		ldr	r0, [r4, #24]
 318              	.LVL6:
 319 0006 437F     		ldrb	r3, [r0, #29]	@ zero_extendqisi2
 320 0008 13F0040F 		tst	r3, #4
 321 000c 07D1     		bne	.L16
 322              	.L18:
 323              		.loc 1 345 0
 324 000e 0648     		ldr	r0, .L20+4
 325 0010 FFF7FEFF 		bl	chSemWait
 326              		.loc 1 344 0
 327 0014 A269     		ldr	r2, [r4, #24]
 328 0016 517F     		ldrb	r1, [r2, #29]	@ zero_extendqisi2
 329 0018 11F0040F 		tst	r1, #4
 330 001c F7D0     		beq	.L18
 331              	.L16:
ARM GAS  C:\DOCUME~1\z_80\LOCALS~1\Temp\ccVBPtpD.s 			page 7


 332              		.loc 1 347 0
 333 001e 0020     		movs	r0, #0
 334 0020 10BD     		pop	{r4, pc}
 335              	.L21:
 336 0022 00BF     		.align	2
 337              	.L20:
 338 0024 00000000 		.word	rlist
 339 0028 00000000 		.word	.LANCHOR1
 340              		.cfi_endproc
 341              	.LFE17:
 342              		.size	thread3, .-thread3
 343              		.section	.text.bmk11_execute,"ax",%progbits
 344              		.align	2
 345              		.p2align 4,,15
 346              		.thumb
 347              		.thumb_func
 348              		.type	bmk11_execute, %function
 349              	bmk11_execute:
 350              	.LFB26:
 351              		.loc 1 550 0
 352              		.cfi_startproc
 353              		@ args = 0, pretend = 0, frame = 0
 354              		@ frame_needed = 0, uses_anonymous_args = 0
 355              	.LVL7:
 356 0000 70B5     		push	{r4, r5, r6, lr}
 357              	.LCFI3:
 358              		.cfi_def_cfa_offset 16
 359              		.loc 1 553 0
 360              		.cfi_offset 14, -4
 361              		.cfi_offset 6, -8
 362              		.cfi_offset 5, -12
 363              		.cfi_offset 4, -16
 364 0002 FFF7FEFF 		bl	test_wait_tick
 365              		.loc 1 554 0
 366 0006 4FF47A70 		mov	r0, #1000
 367 000a FFF7FEFF 		bl	test_start_timer
 368 000e 144D     		ldr	r5, .L25
 369              		.loc 1 551 0
 370 0010 0024     		movs	r4, #0
 371              	.LVL8:
 372              	.L23:
 373              		.loc 1 556 0 discriminator 1
 374 0012 1448     		ldr	r0, .L25+4
 375 0014 FFF7FEFF 		bl	chSemWait
 376              		.loc 1 557 0 discriminator 1
 377 0018 1248     		ldr	r0, .L25+4
 378 001a FFF7FEFF 		bl	chSemSignal
 379              		.loc 1 558 0 discriminator 1
 380 001e 1148     		ldr	r0, .L25+4
 381 0020 FFF7FEFF 		bl	chSemWait
 382              		.loc 1 559 0 discriminator 1
 383 0024 0F48     		ldr	r0, .L25+4
 384 0026 FFF7FEFF 		bl	chSemSignal
 385              		.loc 1 560 0 discriminator 1
 386 002a 0E48     		ldr	r0, .L25+4
 387 002c FFF7FEFF 		bl	chSemWait
 388              		.loc 1 561 0 discriminator 1
ARM GAS  C:\DOCUME~1\z_80\LOCALS~1\Temp\ccVBPtpD.s 			page 8


 389 0030 0C48     		ldr	r0, .L25+4
 390 0032 FFF7FEFF 		bl	chSemSignal
 391              		.loc 1 562 0 discriminator 1
 392 0036 0B48     		ldr	r0, .L25+4
 393 0038 FFF7FEFF 		bl	chSemWait
 394              		.loc 1 563 0 discriminator 1
 395 003c 0948     		ldr	r0, .L25+4
 396 003e FFF7FEFF 		bl	chSemSignal
 397              		.loc 1 568 0 discriminator 1
 398 0042 2B78     		ldrb	r3, [r5, #0]	@ zero_extendqisi2
 399              		.loc 1 564 0 discriminator 1
 400 0044 0134     		adds	r4, r4, #1
 401              	.LVL9:
 402              		.loc 1 568 0 discriminator 1
 403 0046 002B     		cmp	r3, #0
 404 0048 E3D0     		beq	.L23
 405              		.loc 1 569 0
 406 004a 0748     		ldr	r0, .L25+8
 407 004c FFF7FEFF 		bl	test_print
 408              		.loc 1 570 0
 409 0050 A000     		lsls	r0, r4, #2
 410 0052 FFF7FEFF 		bl	test_printn
 411              		.loc 1 571 0
 412 0056 0548     		ldr	r0, .L25+12
 413              		.loc 1 572 0
 414 0058 BDE87040 		pop	{r4, r5, r6, lr}
 415              		.loc 1 571 0
 416 005c FFF7FEBF 		b	test_println
 417              	.L26:
 418              		.align	2
 419              	.L25:
 420 0060 00000000 		.word	test_timer_done
 421 0064 00000000 		.word	.LANCHOR1
 422 0068 A8000000 		.word	.LC11
 423 006c C8000000 		.word	.LC13
 424              		.cfi_endproc
 425              	.LFE26:
 426              		.size	bmk11_execute, .-bmk11_execute
 427              		.section	.text.bmk11_setup,"ax",%progbits
 428              		.align	2
 429              		.p2align 4,,15
 430              		.thumb
 431              		.thumb_func
 432              		.type	bmk11_setup, %function
 433              	bmk11_setup:
 434              	.LFB25:
 435              		.loc 1 545 0
 436              		.cfi_startproc
 437              		@ args = 0, pretend = 0, frame = 0
 438              		@ frame_needed = 0, uses_anonymous_args = 0
 439              		@ link register save eliminated.
 440              		.loc 1 547 0
 441 0000 0148     		ldr	r0, .L28
 442 0002 0121     		movs	r1, #1
 443              		.loc 1 548 0
 444              		.loc 1 547 0
 445 0004 FFF7FEBF 		b	chSemInit
ARM GAS  C:\DOCUME~1\z_80\LOCALS~1\Temp\ccVBPtpD.s 			page 9


 446              	.L29:
 447              		.align	2
 448              	.L28:
 449 0008 00000000 		.word	.LANCHOR1
 450              		.cfi_endproc
 451              	.LFE25:
 452              		.size	bmk11_setup, .-bmk11_setup
 453 000c AFF30080 		.section	.text.bmk7_setup,"ax",%progbits
 454              		.align	2
 455              		.p2align 4,,15
 456              		.thumb
 457              		.thumb_func
 458              		.type	bmk7_setup, %function
 459              	bmk7_setup:
 460              	.LFB18:
 461              		.loc 1 349 0
 462              		.cfi_startproc
 463              		@ args = 0, pretend = 0, frame = 0
 464              		@ frame_needed = 0, uses_anonymous_args = 0
 465              		@ link register save eliminated.
 466              		.loc 1 351 0
 467 0000 0148     		ldr	r0, .L31
 468 0002 0021     		movs	r1, #0
 469              		.loc 1 352 0
 470              		.loc 1 351 0
 471 0004 FFF7FEBF 		b	chSemInit
 472              	.L32:
 473              		.align	2
 474              	.L31:
 475 0008 00000000 		.word	.LANCHOR1
 476              		.cfi_endproc
 477              	.LFE18:
 478              		.size	bmk7_setup, .-bmk7_setup
 479 000c AFF30080 		.section	.text.bmk10_execute,"ax",%progbits
 480              		.align	2
 481              		.p2align 4,,15
 482              		.thumb
 483              		.thumb_func
 484              		.type	bmk10_execute, %function
 485              	bmk10_execute:
 486              	.LFB24:
 487              		.loc 1 504 0
 488              		.cfi_startproc
 489              		@ args = 0, pretend = 0, frame = 0
 490              		@ frame_needed = 0, uses_anonymous_args = 0
 491              	.LVL10:
 492 0000 70B5     		push	{r4, r5, r6, lr}
 493              	.LCFI4:
 494              		.cfi_def_cfa_offset 16
 495              		.loc 1 508 0
 496              		.cfi_offset 14, -4
 497              		.cfi_offset 6, -8
 498              		.cfi_offset 5, -12
 499              		.cfi_offset 4, -16
 500 0002 FFF7FEFF 		bl	test_wait_tick
 501              		.loc 1 509 0
 502 0006 4FF47A70 		mov	r0, #1000
ARM GAS  C:\DOCUME~1\z_80\LOCALS~1\Temp\ccVBPtpD.s 			page 10


 503 000a FFF7FEFF 		bl	test_start_timer
 504 000e 154D     		ldr	r5, .L36
 505              		.loc 1 506 0
 506 0010 0024     		movs	r4, #0
 507              	.LVL11:
 508              	.L34:
 509              	.LBB2:
 510              		.loc 1 511 0 discriminator 1
 511 0012 2023     		movs	r3, #32
 512              	.LVL12:
 513              	@ 511 "../chibios_2.6.3/test/testbmk.c" 1
 514 0014 83F31188 		msr     BASEPRI, r3
 515              	@ 0 "" 2
 516              	.LVL13:
 517              		.thumb
 518              	.LBE2:
 519              		.loc 1 512 0 discriminator 1
 520 0018 0121     		movs	r1, #1
 521 001a 0023     		movs	r3, #0
 522              	.LVL14:
 523 001c 1248     		ldr	r0, .L36+4
 524 001e 134A     		ldr	r2, .L36+8
 525 0020 FFF7FEFF 		bl	chVTSetI
 526              		.loc 1 513 0 discriminator 1
 527 0024 0023     		movs	r3, #0
 528 0026 42F21071 		movw	r1, #10000
 529 002a 104A     		ldr	r2, .L36+8
 530 002c 1048     		ldr	r0, .L36+12
 531 002e FFF7FEFF 		bl	chVTSetI
 532              		.loc 1 514 0 discriminator 1
 533 0032 0D48     		ldr	r0, .L36+4
 534 0034 FFF7FEFF 		bl	chVTResetI
 535              		.loc 1 515 0 discriminator 1
 536 0038 0D48     		ldr	r0, .L36+12
 537 003a FFF7FEFF 		bl	chVTResetI
 538              	.LBB3:
 539              		.loc 1 516 0 discriminator 1
 540 003e 0023     		movs	r3, #0
 541              	.LVL15:
 542              	@ 516 "../chibios_2.6.3/test/testbmk.c" 1
 543 0040 83F31188 		msr     BASEPRI, r3
 544              	@ 0 "" 2
 545              	.LVL16:
 546              		.thumb
 547              	.LBE3:
 548              		.loc 1 521 0 discriminator 1
 549 0044 2B78     		ldrb	r3, [r5, #0]	@ zero_extendqisi2
 550              	.LVL17:
 551              		.loc 1 517 0 discriminator 1
 552 0046 0134     		adds	r4, r4, #1
 553              	.LVL18:
 554              		.loc 1 521 0 discriminator 1
 555 0048 002B     		cmp	r3, #0
 556 004a E2D0     		beq	.L34
 557              		.loc 1 522 0
 558 004c 0948     		ldr	r0, .L36+16
 559 004e FFF7FEFF 		bl	test_print
ARM GAS  C:\DOCUME~1\z_80\LOCALS~1\Temp\ccVBPtpD.s 			page 11


 560              		.loc 1 523 0
 561 0052 6000     		lsls	r0, r4, #1
 562 0054 FFF7FEFF 		bl	test_printn
 563              		.loc 1 524 0
 564 0058 0748     		ldr	r0, .L36+20
 565              		.loc 1 525 0
 566 005a BDE87040 		pop	{r4, r5, r6, lr}
 567              		.loc 1 524 0
 568 005e FFF7FEBF 		b	test_println
 569              	.L37:
 570 0062 00BF     		.align	2
 571              	.L36:
 572 0064 00000000 		.word	test_timer_done
 573 0068 00000000 		.word	.LANCHOR2
 574 006c 00000000 		.word	tmo
 575 0070 00000000 		.word	.LANCHOR3
 576 0074 A8000000 		.word	.LC11
 577 0078 D8000000 		.word	.LC14
 578              		.cfi_endproc
 579              	.LFE24:
 580              		.size	bmk10_execute, .-bmk10_execute
 581 007c AFF30080 		.section	.text.bmk9_execute,"ax",%progbits
 582              		.align	2
 583              		.p2align 4,,15
 584              		.thumb
 585              		.thumb_func
 586              		.type	bmk9_execute, %function
 587              	bmk9_execute:
 588              	.LFB22:
 589              		.loc 1 455 0
 590              		.cfi_startproc
 591              		@ args = 0, pretend = 0, frame = 0
 592              		@ frame_needed = 0, uses_anonymous_args = 0
 593 0000 30B5     		push	{r4, r5, lr}
 594              	.LCFI5:
 595              		.cfi_def_cfa_offset 12
 596              		.loc 1 460 0
 597 0002 0024     		movs	r4, #0
 598              		.cfi_offset 14, -4
 599              		.cfi_offset 5, -8
 600              		.cfi_offset 4, -12
 601              		.loc 1 455 0
 602 0004 83B0     		sub	sp, sp, #12
 603              	.LCFI6:
 604              		.cfi_def_cfa_offset 24
 605              		.loc 1 460 0
 606 0006 2449     		ldr	r1, .L41
 607 0008 1022     		movs	r2, #16
 608 000a 2346     		mov	r3, r4
 609 000c 2348     		ldr	r0, .L41+4
 610 000e 0094     		str	r4, [sp, #0]
 611 0010 FFF7FEFF 		bl	chIQInit
 612              	.LVL19:
 613              		.loc 1 462 0
 614 0014 FFF7FEFF 		bl	test_wait_tick
 615              		.loc 1 463 0
 616 0018 4FF47A70 		mov	r0, #1000
ARM GAS  C:\DOCUME~1\z_80\LOCALS~1\Temp\ccVBPtpD.s 			page 12


 617 001c FFF7FEFF 		bl	test_start_timer
 618 0020 1F4D     		ldr	r5, .L41+8
 619              	.LVL20:
 620              	.L39:
 621              	.LBB4:
 622              		.loc 1 465 0 discriminator 1
 623 0022 2023     		movs	r3, #32
 624              	.LVL21:
 625              	@ 465 "../chibios_2.6.3/test/testbmk.c" 1
 626 0024 83F31188 		msr     BASEPRI, r3
 627              	@ 0 "" 2
 628              	.LVL22:
 629              		.thumb
 630              	.LBE4:
 631              		.loc 1 466 0 discriminator 1
 632 0028 0021     		movs	r1, #0
 633 002a 1C48     		ldr	r0, .L41+4
 634 002c FFF7FEFF 		bl	chIQPutI
 635              	.LVL23:
 636              		.loc 1 467 0 discriminator 1
 637 0030 0121     		movs	r1, #1
 638 0032 1A48     		ldr	r0, .L41+4
 639 0034 FFF7FEFF 		bl	chIQPutI
 640              		.loc 1 468 0 discriminator 1
 641 0038 0221     		movs	r1, #2
 642 003a 1848     		ldr	r0, .L41+4
 643 003c FFF7FEFF 		bl	chIQPutI
 644              		.loc 1 469 0 discriminator 1
 645 0040 0321     		movs	r1, #3
 646 0042 1648     		ldr	r0, .L41+4
 647 0044 FFF7FEFF 		bl	chIQPutI
 648              	.LBB5:
 649              		.loc 1 470 0 discriminator 1
 650 0048 0023     		movs	r3, #0
 651              	.LVL24:
 652              	@ 470 "../chibios_2.6.3/test/testbmk.c" 1
 653 004a 83F31188 		msr     BASEPRI, r3
 654              	@ 0 "" 2
 655              	.LVL25:
 656              		.thumb
 657              	.LBE5:
 658              		.loc 1 471 0 discriminator 1
 659 004e 4FF0FF31 		mov	r1, #-1
 660 0052 1248     		ldr	r0, .L41+4
 661 0054 FFF7FEFF 		bl	chIQGetTimeout
 662              	.LVL26:
 663              		.loc 1 472 0 discriminator 1
 664 0058 4FF0FF31 		mov	r1, #-1
 665 005c 0F48     		ldr	r0, .L41+4
 666 005e FFF7FEFF 		bl	chIQGetTimeout
 667              		.loc 1 473 0 discriminator 1
 668 0062 4FF0FF31 		mov	r1, #-1
 669 0066 0D48     		ldr	r0, .L41+4
 670 0068 FFF7FEFF 		bl	chIQGetTimeout
 671              		.loc 1 474 0 discriminator 1
 672 006c 0B48     		ldr	r0, .L41+4
 673 006e 4FF0FF31 		mov	r1, #-1
ARM GAS  C:\DOCUME~1\z_80\LOCALS~1\Temp\ccVBPtpD.s 			page 13


 674 0072 FFF7FEFF 		bl	chIQGetTimeout
 675              		.loc 1 479 0 discriminator 1
 676 0076 2B78     		ldrb	r3, [r5, #0]	@ zero_extendqisi2
 677              		.loc 1 475 0 discriminator 1
 678 0078 0134     		adds	r4, r4, #1
 679              	.LVL27:
 680              		.loc 1 479 0 discriminator 1
 681 007a 002B     		cmp	r3, #0
 682 007c D1D0     		beq	.L39
 683              		.loc 1 480 0
 684 007e 0948     		ldr	r0, .L41+12
 685 0080 FFF7FEFF 		bl	test_print
 686              		.loc 1 481 0
 687 0084 A000     		lsls	r0, r4, #2
 688 0086 FFF7FEFF 		bl	test_printn
 689              		.loc 1 482 0
 690 008a 0748     		ldr	r0, .L41+16
 691              		.loc 1 483 0
 692 008c 03B0     		add	sp, sp, #12
 693 008e BDE83040 		pop	{r4, r5, lr}
 694              		.loc 1 482 0
 695 0092 FFF7FEBF 		b	test_println
 696              	.L42:
 697 0096 00BF     		.align	2
 698              	.L41:
 699 0098 00000000 		.word	.LANCHOR5
 700 009c 00000000 		.word	.LANCHOR4
 701 00a0 00000000 		.word	test_timer_done
 702 00a4 A8000000 		.word	.LC11
 703 00a8 E4000000 		.word	.LC15
 704              		.cfi_endproc
 705              	.LFE22:
 706              		.size	bmk9_execute, .-bmk9_execute
 707 00ac AFF30080 		.section	.text.bmk6_execute,"ax",%progbits
 708              		.align	2
 709              		.p2align 4,,15
 710              		.thumb
 711              		.thumb_func
 712              		.type	bmk6_execute, %function
 713              	bmk6_execute:
 714              	.LFB16:
 715              		.loc 1 304 0
 716              		.cfi_startproc
 717              		@ args = 0, pretend = 0, frame = 0
 718              		@ frame_needed = 0, uses_anonymous_args = 0
 719              	.LVL28:
 720 0000 2DE9F041 		push	{r4, r5, r6, r7, r8, lr}
 721              	.LCFI7:
 722              		.cfi_def_cfa_offset 24
 723              		.loc 1 308 0
 724 0004 1448     		ldr	r0, .L46
 725              		.loc 1 307 0
 726 0006 154A     		ldr	r2, .L46+4
 727              		.loc 1 308 0
 728 0008 8369     		ldr	r3, [r0, #24]
 729              		.loc 1 304 0
 730 000a 82B0     		sub	sp, sp, #8
ARM GAS  C:\DOCUME~1\z_80\LOCALS~1\Temp\ccVBPtpD.s 			page 14


 731              	.LCFI8:
 732              		.cfi_def_cfa_offset 32
 733              		.loc 1 308 0
 734 000c 9F68     		ldr	r7, [r3, #8]
 735              		.cfi_offset 14, -4
 736              		.cfi_offset 8, -8
 737              		.cfi_offset 7, -12
 738              		.cfi_offset 6, -16
 739              		.cfi_offset 5, -20
 740              		.cfi_offset 4, -24
 741              		.loc 1 307 0
 742 000e D2F80080 		ldr	r8, [r2, #0]
 743              	.LVL29:
 744              		.loc 1 309 0
 745 0012 FFF7FEFF 		bl	test_wait_tick
 746              	.LVL30:
 747              		.loc 1 310 0
 748 0016 4FF47A70 		mov	r0, #1000
 749 001a FFF7FEFF 		bl	test_start_timer
 750              		.loc 1 306 0
 751 001e 0024     		movs	r4, #0
 752 0020 0F4E     		ldr	r6, .L46+8
 753              		.loc 1 308 0
 754 0022 0137     		adds	r7, r7, #1
 755              	.LVL31:
 756              		.loc 1 312 0
 757 0024 2546     		mov	r5, r4
 758              	.LVL32:
 759              	.L44:
 760              		.loc 1 312 0 is_stmt 0 discriminator 1
 761 0026 4FF49871 		mov	r1, #304
 762 002a 4046     		mov	r0, r8
 763 002c 3A46     		mov	r2, r7
 764 002e 0D4B     		ldr	r3, .L46+12
 765 0030 0095     		str	r5, [sp, #0]
 766 0032 FFF7FEFF 		bl	chThdCreateStatic
 767              		.loc 1 317 0 is_stmt 1 discriminator 1
 768 0036 3178     		ldrb	r1, [r6, #0]	@ zero_extendqisi2
 769              		.loc 1 313 0 discriminator 1
 770 0038 0134     		adds	r4, r4, #1
 771              	.LVL33:
 772              		.loc 1 317 0 discriminator 1
 773 003a 0029     		cmp	r1, #0
 774 003c F3D0     		beq	.L44
 775              		.loc 1 318 0
 776 003e 0A48     		ldr	r0, .L46+16
 777 0040 FFF7FEFF 		bl	test_print
 778              		.loc 1 319 0
 779 0044 2046     		mov	r0, r4
 780 0046 FFF7FEFF 		bl	test_printn
 781              		.loc 1 320 0
 782 004a 0848     		ldr	r0, .L46+20
 783              		.loc 1 321 0
 784 004c 02B0     		add	sp, sp, #8
 785 004e BDE8F041 		pop	{r4, r5, r6, r7, r8, lr}
 786              		.loc 1 320 0
 787 0052 FFF7FEBF 		b	test_println
ARM GAS  C:\DOCUME~1\z_80\LOCALS~1\Temp\ccVBPtpD.s 			page 15


 788              	.L47:
 789 0056 00BF     		.align	2
 790              	.L46:
 791 0058 00000000 		.word	rlist
 792 005c 00000000 		.word	wa
 793 0060 00000000 		.word	test_timer_done
 794 0064 00000000 		.word	thread2
 795 0068 A8000000 		.word	.LC11
 796 006c F0000000 		.word	.LC16
 797              		.cfi_endproc
 798              	.LFE16:
 799              		.size	bmk6_execute, .-bmk6_execute
 800              		.section	.text.bmk8_execute,"ax",%progbits
 801              		.align	2
 802              		.p2align 4,,15
 803              		.thumb
 804              		.thumb_func
 805              		.type	bmk8_execute, %function
 806              	bmk8_execute:
 807              	.LFB21:
 808              		.loc 1 416 0
 809              		.cfi_startproc
 810              		@ args = 0, pretend = 0, frame = 8
 811              		@ frame_needed = 0, uses_anonymous_args = 0
 812 0000 2DE9F041 		push	{r4, r5, r6, r7, r8, lr}
 813              	.LCFI9:
 814              		.cfi_def_cfa_offset 24
 815              		.loc 1 422 0
 816 0004 314F     		ldr	r7, .L49
 817              		.cfi_offset 14, -4
 818              		.cfi_offset 8, -8
 819              		.cfi_offset 7, -12
 820              		.cfi_offset 6, -16
 821              		.cfi_offset 5, -20
 822              		.cfi_offset 4, -24
 823              		.loc 1 416 0
 824 0006 84B0     		sub	sp, sp, #16
 825              	.LCFI10:
 826              		.cfi_def_cfa_offset 40
 827              		.loc 1 419 0
 828 0008 04AC     		add	r4, sp, #16
 829 000a 0025     		movs	r5, #0
 830 000c 44F8045D 		str	r5, [r4, #-4]!
 831              	.LVL34:
 832              		.loc 1 420 0
 833 0010 FFF7FEFF 		bl	test_wait_tick
 834              		.loc 1 422 0
 835 0014 B869     		ldr	r0, [r7, #24]
 836 0016 2E4D     		ldr	r5, .L49+4
 837 0018 2E4E     		ldr	r6, .L49+8
 838 001a 8268     		ldr	r2, [r0, #8]
 839 001c 2B46     		mov	r3, r5
 840 001e 013A     		subs	r2, r2, #1
 841 0020 3068     		ldr	r0, [r6, #0]
 842 0022 4FF49871 		mov	r1, #304
 843 0026 0094     		str	r4, [sp, #0]
 844 0028 FFF7FEFF 		bl	chThdCreateStatic
ARM GAS  C:\DOCUME~1\z_80\LOCALS~1\Temp\ccVBPtpD.s 			page 16


 845              		.loc 1 423 0
 846 002c B969     		ldr	r1, [r7, #24]
 847              		.loc 1 422 0
 848 002e DFF8B080 		ldr	r8, .L49+20
 849              		.loc 1 423 0
 850 0032 8B68     		ldr	r3, [r1, #8]
 851 0034 D6F804E0 		ldr	lr, [r6, #4]
 852 0038 5A1E     		subs	r2, r3, #1
 853              		.loc 1 422 0
 854 003a C8F80000 		str	r0, [r8, #0]
 855              		.loc 1 423 0
 856 003e 2B46     		mov	r3, r5
 857 0040 7046     		mov	r0, lr
 858 0042 4FF49871 		mov	r1, #304
 859 0046 0094     		str	r4, [sp, #0]
 860 0048 FFF7FEFF 		bl	chThdCreateStatic
 861              		.loc 1 424 0
 862 004c BA69     		ldr	r2, [r7, #24]
 863 004e D6F808C0 		ldr	ip, [r6, #8]
 864 0052 9368     		ldr	r3, [r2, #8]
 865 0054 4FF49871 		mov	r1, #304
 866 0058 5A1E     		subs	r2, r3, #1
 867              		.loc 1 423 0
 868 005a C8F80400 		str	r0, [r8, #4]
 869              		.loc 1 424 0
 870 005e 2B46     		mov	r3, r5
 871 0060 6046     		mov	r0, ip
 872 0062 0094     		str	r4, [sp, #0]
 873 0064 FFF7FEFF 		bl	chThdCreateStatic
 874              		.loc 1 425 0
 875 0068 B969     		ldr	r1, [r7, #24]
 876 006a D6F80CE0 		ldr	lr, [r6, #12]
 877 006e 8A68     		ldr	r2, [r1, #8]
 878 0070 2B46     		mov	r3, r5
 879              		.loc 1 424 0
 880 0072 C8F80800 		str	r0, [r8, #8]
 881              		.loc 1 425 0
 882 0076 013A     		subs	r2, r2, #1
 883 0078 7046     		mov	r0, lr
 884 007a 4FF49871 		mov	r1, #304
 885 007e 0094     		str	r4, [sp, #0]
 886 0080 FFF7FEFF 		bl	chThdCreateStatic
 887              		.loc 1 426 0
 888 0084 BB69     		ldr	r3, [r7, #24]
 889 0086 3669     		ldr	r6, [r6, #16]
 890 0088 9A68     		ldr	r2, [r3, #8]
 891 008a 4FF49871 		mov	r1, #304
 892 008e 013A     		subs	r2, r2, #1
 893 0090 2B46     		mov	r3, r5
 894              		.loc 1 425 0
 895 0092 C8F80C00 		str	r0, [r8, #12]
 896              		.loc 1 426 0
 897 0096 3046     		mov	r0, r6
 898 0098 0094     		str	r4, [sp, #0]
 899 009a FFF7FEFF 		bl	chThdCreateStatic
 900 009e C8F81000 		str	r0, [r8, #16]
 901              		.loc 1 428 0
ARM GAS  C:\DOCUME~1\z_80\LOCALS~1\Temp\ccVBPtpD.s 			page 17


 902 00a2 4FF47A70 		mov	r0, #1000
 903 00a6 FFF7FEFF 		bl	chThdSleep
 904              		.loc 1 429 0
 905 00aa FFF7FEFF 		bl	test_terminate_threads
 906              		.loc 1 430 0
 907 00ae FFF7FEFF 		bl	test_wait_threads
 908              		.loc 1 432 0
 909 00b2 0948     		ldr	r0, .L49+12
 910 00b4 FFF7FEFF 		bl	test_print
 911              		.loc 1 433 0
 912 00b8 0398     		ldr	r0, [sp, #12]
 913 00ba FFF7FEFF 		bl	test_printn
 914              		.loc 1 434 0
 915 00be 0748     		ldr	r0, .L49+16
 916 00c0 FFF7FEFF 		bl	test_println
 917              		.loc 1 435 0
 918 00c4 04B0     		add	sp, sp, #16
 919 00c6 BDE8F081 		pop	{r4, r5, r6, r7, r8, pc}
 920              	.L50:
 921 00ca 00BF     		.align	2
 922              	.L49:
 923 00cc 00000000 		.word	rlist
 924 00d0 00000000 		.word	thread8
 925 00d4 00000000 		.word	wa
 926 00d8 A8000000 		.word	.LC11
 927 00dc FC000000 		.word	.LC17
 928 00e0 00000000 		.word	threads
 929              		.cfi_endproc
 930              	.LFE21:
 931              		.size	bmk8_execute, .-bmk8_execute
 932 00e4 AFF30080 		.section	.text.thread8,"ax",%progbits
 932      AFF30080 
 932      AFF30080 
 933              		.align	2
 934              		.p2align 4,,15
 935              		.thumb
 936              		.thumb_func
 937              		.type	thread8, %function
 938              	thread8:
 939              	.LFB20:
 940              		.loc 1 401 0
 941              		.cfi_startproc
 942              		@ args = 0, pretend = 0, frame = 0
 943              		@ frame_needed = 0, uses_anonymous_args = 0
 944              	.LVL35:
 945 0000 38B5     		push	{r3, r4, r5, lr}
 946              	.LCFI11:
 947              		.cfi_def_cfa_offset 16
 948 0002 0A4C     		ldr	r4, .L54
 949              		.cfi_offset 14, -4
 950              		.cfi_offset 5, -8
 951              		.cfi_offset 4, -12
 952              		.cfi_offset 3, -16
 953              		.loc 1 401 0
 954 0004 0546     		mov	r5, r0
 955              	.LVL36:
 956              	.L52:
ARM GAS  C:\DOCUME~1\z_80\LOCALS~1\Temp\ccVBPtpD.s 			page 18


 957              		.loc 1 404 0 discriminator 1
 958 0006 FFF7FEFF 		bl	chThdYield
 959              		.loc 1 405 0 discriminator 1
 960 000a FFF7FEFF 		bl	chThdYield
 961              		.loc 1 406 0 discriminator 1
 962 000e FFF7FEFF 		bl	chThdYield
 963              		.loc 1 407 0 discriminator 1
 964 0012 FFF7FEFF 		bl	chThdYield
 965              		.loc 1 408 0 discriminator 1
 966 0016 2968     		ldr	r1, [r5, #0]
 967              		.loc 1 412 0 discriminator 1
 968 0018 A069     		ldr	r0, [r4, #24]
 969              		.loc 1 408 0 discriminator 1
 970 001a 0A1D     		adds	r2, r1, #4
 971 001c 2A60     		str	r2, [r5, #0]
 972              		.loc 1 412 0 discriminator 1
 973 001e 437F     		ldrb	r3, [r0, #29]	@ zero_extendqisi2
 974 0020 13F0040F 		tst	r3, #4
 975 0024 EFD0     		beq	.L52
 976              		.loc 1 414 0
 977 0026 0020     		movs	r0, #0
 978 0028 38BD     		pop	{r3, r4, r5, pc}
 979              	.L55:
 980 002a 00BF     		.align	2
 981              	.L54:
 982 002c 00000000 		.word	rlist
 983              		.cfi_endproc
 984              	.LFE20:
 985              		.size	thread8, .-thread8
 986              		.section	.text.bmk7_execute,"ax",%progbits
 987              		.align	2
 988              		.p2align 4,,15
 989              		.thumb
 990              		.thumb_func
 991              		.type	bmk7_execute, %function
 992              	bmk7_execute:
 993              	.LFB19:
 994              		.loc 1 354 0
 995              		.cfi_startproc
 996              		@ args = 0, pretend = 0, frame = 0
 997              		@ frame_needed = 0, uses_anonymous_args = 0
 998 0000 F0B5     		push	{r4, r5, r6, r7, lr}
 999              	.LCFI12:
 1000              		.cfi_def_cfa_offset 20
 1001              		.loc 1 357 0
 1002 0002 374F     		ldr	r7, .L59
 1003              		.cfi_offset 14, -4
 1004              		.cfi_offset 7, -8
 1005              		.cfi_offset 6, -12
 1006              		.cfi_offset 5, -16
 1007              		.cfi_offset 4, -20
 1008 0004 374E     		ldr	r6, .L59+4
 1009 0006 BC69     		ldr	r4, [r7, #24]
 1010              		.loc 1 354 0
 1011 0008 83B0     		sub	sp, sp, #12
 1012              	.LCFI13:
 1013              		.cfi_def_cfa_offset 32
ARM GAS  C:\DOCUME~1\z_80\LOCALS~1\Temp\ccVBPtpD.s 			page 19


 1014              		.loc 1 357 0
 1015 000a A568     		ldr	r5, [r4, #8]
 1016 000c 3068     		ldr	r0, [r6, #0]
 1017 000e 0024     		movs	r4, #0
 1018 0010 6A1D     		adds	r2, r5, #5
 1019 0012 4FF49871 		mov	r1, #304
 1020 0016 344B     		ldr	r3, .L59+8
 1021 0018 0094     		str	r4, [sp, #0]
 1022 001a FFF7FEFF 		bl	chThdCreateStatic
 1023              		.loc 1 358 0
 1024 001e B969     		ldr	r1, [r7, #24]
 1025              		.loc 1 357 0
 1026 0020 324D     		ldr	r5, .L59+12
 1027              		.loc 1 358 0
 1028 0022 8B68     		ldr	r3, [r1, #8]
 1029 0024 D6F804E0 		ldr	lr, [r6, #4]
 1030              		.loc 1 357 0
 1031 0028 2860     		str	r0, [r5, #0]
 1032              		.loc 1 358 0
 1033 002a 1A1D     		adds	r2, r3, #4
 1034 002c 7046     		mov	r0, lr
 1035 002e 4FF49871 		mov	r1, #304
 1036 0032 2D4B     		ldr	r3, .L59+8
 1037 0034 0094     		str	r4, [sp, #0]
 1038 0036 FFF7FEFF 		bl	chThdCreateStatic
 1039              		.loc 1 359 0
 1040 003a BA69     		ldr	r2, [r7, #24]
 1041 003c D6F808C0 		ldr	ip, [r6, #8]
 1042 0040 9368     		ldr	r3, [r2, #8]
 1043 0042 4FF49871 		mov	r1, #304
 1044              		.loc 1 358 0
 1045 0046 6860     		str	r0, [r5, #4]
 1046              		.loc 1 359 0
 1047 0048 DA1C     		adds	r2, r3, #3
 1048 004a 6046     		mov	r0, ip
 1049 004c 264B     		ldr	r3, .L59+8
 1050 004e 0094     		str	r4, [sp, #0]
 1051 0050 FFF7FEFF 		bl	chThdCreateStatic
 1052              		.loc 1 360 0
 1053 0054 B969     		ldr	r1, [r7, #24]
 1054 0056 D6F80CE0 		ldr	lr, [r6, #12]
 1055 005a 8A68     		ldr	r2, [r1, #8]
 1056 005c 224B     		ldr	r3, .L59+8
 1057              		.loc 1 359 0
 1058 005e A860     		str	r0, [r5, #8]
 1059              		.loc 1 360 0
 1060 0060 4FF49871 		mov	r1, #304
 1061 0064 7046     		mov	r0, lr
 1062 0066 0232     		adds	r2, r2, #2
 1063 0068 0094     		str	r4, [sp, #0]
 1064 006a FFF7FEFF 		bl	chThdCreateStatic
 1065              		.loc 1 361 0
 1066 006e BB69     		ldr	r3, [r7, #24]
 1067 0070 3669     		ldr	r6, [r6, #16]
 1068 0072 9A68     		ldr	r2, [r3, #8]
 1069 0074 4FF49871 		mov	r1, #304
 1070              		.loc 1 360 0
ARM GAS  C:\DOCUME~1\z_80\LOCALS~1\Temp\ccVBPtpD.s 			page 20


 1071 0078 E860     		str	r0, [r5, #12]
 1072              		.loc 1 361 0
 1073 007a 0132     		adds	r2, r2, #1
 1074 007c 1A4B     		ldr	r3, .L59+8
 1075 007e 3046     		mov	r0, r6
 1076 0080 0094     		str	r4, [sp, #0]
 1077 0082 FFF7FEFF 		bl	chThdCreateStatic
 1078 0086 2861     		str	r0, [r5, #16]
 1079              	.LVL37:
 1080              		.loc 1 364 0
 1081 0088 FFF7FEFF 		bl	test_wait_tick
 1082              		.loc 1 365 0
 1083 008c 4FF47A70 		mov	r0, #1000
 1084 0090 FFF7FEFF 		bl	test_start_timer
 1085 0094 164D     		ldr	r5, .L59+16
 1086              	.LVL38:
 1087              	.L57:
 1088              		.loc 1 367 0 discriminator 1
 1089 0096 1748     		ldr	r0, .L59+20
 1090 0098 0021     		movs	r1, #0
 1091 009a FFF7FEFF 		bl	chSemReset
 1092              		.loc 1 372 0 discriminator 1
 1093 009e 2878     		ldrb	r0, [r5, #0]	@ zero_extendqisi2
 1094              		.loc 1 368 0 discriminator 1
 1095 00a0 0134     		adds	r4, r4, #1
 1096              	.LVL39:
 1097              		.loc 1 372 0 discriminator 1
 1098 00a2 0028     		cmp	r0, #0
 1099 00a4 F7D0     		beq	.L57
 1100              		.loc 1 373 0
 1101 00a6 FFF7FEFF 		bl	test_terminate_threads
 1102              		.loc 1 374 0
 1103 00aa 0021     		movs	r1, #0
 1104 00ac 1148     		ldr	r0, .L59+20
 1105 00ae FFF7FEFF 		bl	chSemReset
 1106              		.loc 1 375 0
 1107 00b2 FFF7FEFF 		bl	test_wait_threads
 1108              		.loc 1 377 0
 1109 00b6 1048     		ldr	r0, .L59+24
 1110 00b8 FFF7FEFF 		bl	test_print
 1111              		.loc 1 378 0
 1112 00bc 2046     		mov	r0, r4
 1113 00be FFF7FEFF 		bl	test_printn
 1114              		.loc 1 380 0
 1115 00c2 04EB4404 		add	r4, r4, r4, lsl #1
 1116              	.LVL40:
 1117              		.loc 1 379 0
 1118 00c6 0D48     		ldr	r0, .L59+28
 1119 00c8 FFF7FEFF 		bl	test_print
 1120              		.loc 1 380 0
 1121 00cc 6000     		lsls	r0, r4, #1
 1122 00ce FFF7FEFF 		bl	test_printn
 1123              		.loc 1 381 0
 1124 00d2 0B48     		ldr	r0, .L59+32
 1125              		.loc 1 382 0
 1126 00d4 03B0     		add	sp, sp, #12
 1127 00d6 BDE8F040 		pop	{r4, r5, r6, r7, lr}
ARM GAS  C:\DOCUME~1\z_80\LOCALS~1\Temp\ccVBPtpD.s 			page 21


 1128              		.loc 1 381 0
 1129 00da FFF7FEBF 		b	test_println
 1130              	.L60:
 1131 00de 00BF     		.align	2
 1132              	.L59:
 1133 00e0 00000000 		.word	rlist
 1134 00e4 00000000 		.word	wa
 1135 00e8 00000000 		.word	thread3
 1136 00ec 00000000 		.word	threads
 1137 00f0 00000000 		.word	test_timer_done
 1138 00f4 00000000 		.word	.LANCHOR1
 1139 00f8 A8000000 		.word	.LC11
 1140 00fc 08010000 		.word	.LC18
 1141 0100 FC000000 		.word	.LC17
 1142              		.cfi_endproc
 1143              	.LFE19:
 1144              		.size	bmk7_execute, .-bmk7_execute
 1145 0104 AFF30080 		.section	.text.bmk5_execute,"ax",%progbits
 1145      AFF30080 
 1145      AFF30080 
 1146              		.align	2
 1147              		.p2align 4,,15
 1148              		.thumb
 1149              		.thumb_func
 1150              		.type	bmk5_execute, %function
 1151              	bmk5_execute:
 1152              	.LFB15:
 1153              		.loc 1 265 0
 1154              		.cfi_startproc
 1155              		@ args = 0, pretend = 0, frame = 0
 1156              		@ frame_needed = 0, uses_anonymous_args = 0
 1157              	.LVL41:
 1158 0000 2DE9F041 		push	{r4, r5, r6, r7, r8, lr}
 1159              	.LCFI14:
 1160              		.cfi_def_cfa_offset 24
 1161              		.loc 1 269 0
 1162 0004 1548     		ldr	r0, .L64
 1163              		.loc 1 268 0
 1164 0006 164A     		ldr	r2, .L64+4
 1165              		.loc 1 269 0
 1166 0008 8369     		ldr	r3, [r0, #24]
 1167              		.loc 1 265 0
 1168 000a 82B0     		sub	sp, sp, #8
 1169              	.LCFI15:
 1170              		.cfi_def_cfa_offset 32
 1171              		.loc 1 269 0
 1172 000c 9F68     		ldr	r7, [r3, #8]
 1173              		.cfi_offset 14, -4
 1174              		.cfi_offset 8, -8
 1175              		.cfi_offset 7, -12
 1176              		.cfi_offset 6, -16
 1177              		.cfi_offset 5, -20
 1178              		.cfi_offset 4, -24
 1179              		.loc 1 268 0
 1180 000e D2F80080 		ldr	r8, [r2, #0]
 1181              	.LVL42:
 1182              		.loc 1 270 0
ARM GAS  C:\DOCUME~1\z_80\LOCALS~1\Temp\ccVBPtpD.s 			page 22


 1183 0012 FFF7FEFF 		bl	test_wait_tick
 1184              	.LVL43:
 1185              		.loc 1 271 0
 1186 0016 4FF47A70 		mov	r0, #1000
 1187 001a FFF7FEFF 		bl	test_start_timer
 1188              		.loc 1 267 0
 1189 001e 0024     		movs	r4, #0
 1190 0020 104E     		ldr	r6, .L64+8
 1191              		.loc 1 269 0
 1192 0022 013F     		subs	r7, r7, #1
 1193              	.LVL44:
 1194              		.loc 1 273 0
 1195 0024 2546     		mov	r5, r4
 1196              	.LVL45:
 1197              	.L62:
 1198              		.loc 1 273 0 is_stmt 0 discriminator 1
 1199 0026 4FF49871 		mov	r1, #304
 1200 002a 3A46     		mov	r2, r7
 1201 002c 0E4B     		ldr	r3, .L64+12
 1202 002e 4046     		mov	r0, r8
 1203 0030 0095     		str	r5, [sp, #0]
 1204 0032 FFF7FEFF 		bl	chThdCreateStatic
 1205 0036 FFF7FEFF 		bl	chThdWait
 1206              		.loc 1 278 0 is_stmt 1 discriminator 1
 1207 003a 3178     		ldrb	r1, [r6, #0]	@ zero_extendqisi2
 1208              		.loc 1 274 0 discriminator 1
 1209 003c 0134     		adds	r4, r4, #1
 1210              	.LVL46:
 1211              		.loc 1 278 0 discriminator 1
 1212 003e 0029     		cmp	r1, #0
 1213 0040 F1D0     		beq	.L62
 1214              		.loc 1 279 0
 1215 0042 0A48     		ldr	r0, .L64+16
 1216 0044 FFF7FEFF 		bl	test_print
 1217              		.loc 1 280 0
 1218 0048 2046     		mov	r0, r4
 1219 004a FFF7FEFF 		bl	test_printn
 1220              		.loc 1 281 0
 1221 004e 0848     		ldr	r0, .L64+20
 1222              		.loc 1 282 0
 1223 0050 02B0     		add	sp, sp, #8
 1224 0052 BDE8F041 		pop	{r4, r5, r6, r7, r8, lr}
 1225              		.loc 1 281 0
 1226 0056 FFF7FEBF 		b	test_println
 1227              	.L65:
 1228 005a 00BF     		.align	2
 1229              	.L64:
 1230 005c 00000000 		.word	rlist
 1231 0060 00000000 		.word	wa
 1232 0064 00000000 		.word	test_timer_done
 1233 0068 00000000 		.word	thread2
 1234 006c A8000000 		.word	.LC11
 1235 0070 F0000000 		.word	.LC16
 1236              		.cfi_endproc
 1237              	.LFE15:
 1238              		.size	bmk5_execute, .-bmk5_execute
 1239 0074 AFF30080 		.section	.text.bmk4_execute,"ax",%progbits
ARM GAS  C:\DOCUME~1\z_80\LOCALS~1\Temp\ccVBPtpD.s 			page 23


 1239      AFF30080 
 1239      AFF30080 
 1240              		.align	2
 1241              		.p2align 4,,15
 1242              		.thumb
 1243              		.thumb_func
 1244              		.type	bmk4_execute, %function
 1245              	bmk4_execute:
 1246              	.LFB14:
 1247              		.loc 1 217 0
 1248              		.cfi_startproc
 1249              		@ args = 0, pretend = 0, frame = 0
 1250              		@ frame_needed = 0, uses_anonymous_args = 0
 1251 0000 70B5     		push	{r4, r5, r6, lr}
 1252              	.LCFI16:
 1253              		.cfi_def_cfa_offset 16
 1254              		.loc 1 221 0
 1255 0002 254C     		ldr	r4, .L69
 1256              		.cfi_offset 14, -4
 1257              		.cfi_offset 6, -8
 1258              		.cfi_offset 5, -12
 1259              		.cfi_offset 4, -16
 1260 0004 2548     		ldr	r0, .L69+4
 1261 0006 A169     		ldr	r1, [r4, #24]
 1262              		.loc 1 217 0
 1263 0008 82B0     		sub	sp, sp, #8
 1264              	.LCFI17:
 1265              		.cfi_def_cfa_offset 24
 1266              		.loc 1 221 0
 1267 000a 8A68     		ldr	r2, [r1, #8]
 1268 000c 244B     		ldr	r3, .L69+8
 1269 000e 4FF49871 		mov	r1, #304
 1270 0012 0132     		adds	r2, r2, #1
 1271 0014 0024     		movs	r4, #0
 1272 0016 0068     		ldr	r0, [r0, #0]
 1273 0018 0094     		str	r4, [sp, #0]
 1274 001a FFF7FEFF 		bl	chThdCreateStatic
 1275 001e 214B     		ldr	r3, .L69+12
 1276 0020 0546     		mov	r5, r0
 1277 0022 1860     		str	r0, [r3, #0]
 1278              	.LVL47:
 1279              		.loc 1 223 0
 1280 0024 FFF7FEFF 		bl	test_wait_tick
 1281              	.LVL48:
 1282              		.loc 1 224 0
 1283 0028 4FF47A70 		mov	r0, #1000
 1284 002c 1E4E     		ldr	r6, .L69+16
 1285 002e FFF7FEFF 		bl	test_start_timer
 1286              	.LVL49:
 1287              	.L67:
 1288              	.LBB6:
 1289              		.loc 1 226 0 discriminator 1
 1290 0032 2023     		movs	r3, #32
 1291              	.LVL50:
 1292              	@ 226 "../chibios_2.6.3/test/testbmk.c" 1
 1293 0034 83F31188 		msr     BASEPRI, r3
 1294              	@ 0 "" 2
ARM GAS  C:\DOCUME~1\z_80\LOCALS~1\Temp\ccVBPtpD.s 			page 24


 1295              	.LVL51:
 1296              		.thumb
 1297              	.LBE6:
 1298              		.loc 1 227 0 discriminator 1
 1299 0038 0021     		movs	r1, #0
 1300 003a 2846     		mov	r0, r5
 1301 003c FFF7FEFF 		bl	chSchWakeupS
 1302              	.LVL52:
 1303              		.loc 1 228 0 discriminator 1
 1304 0040 2846     		mov	r0, r5
 1305 0042 0021     		movs	r1, #0
 1306 0044 FFF7FEFF 		bl	chSchWakeupS
 1307              		.loc 1 229 0 discriminator 1
 1308 0048 2846     		mov	r0, r5
 1309 004a 0021     		movs	r1, #0
 1310 004c FFF7FEFF 		bl	chSchWakeupS
 1311              		.loc 1 230 0 discriminator 1
 1312 0050 2846     		mov	r0, r5
 1313 0052 0021     		movs	r1, #0
 1314 0054 FFF7FEFF 		bl	chSchWakeupS
 1315              	.LBB7:
 1316              		.loc 1 231 0 discriminator 1
 1317 0058 0023     		movs	r3, #0
 1318              	.LVL53:
 1319              	@ 231 "../chibios_2.6.3/test/testbmk.c" 1
 1320 005a 83F31188 		msr     BASEPRI, r3
 1321              	@ 0 "" 2
 1322              	.LVL54:
 1323              		.thumb
 1324              	.LBE7:
 1325              		.loc 1 236 0 discriminator 1
 1326 005e 3378     		ldrb	r3, [r6, #0]	@ zero_extendqisi2
 1327              	.LVL55:
 1328              		.loc 1 232 0 discriminator 1
 1329 0060 0434     		adds	r4, r4, #4
 1330              	.LVL56:
 1331              		.loc 1 236 0 discriminator 1
 1332 0062 002B     		cmp	r3, #0
 1333 0064 E5D0     		beq	.L67
 1334              	.LBB8:
 1335              		.loc 1 237 0
 1336 0066 2023     		movs	r3, #32
 1337              	.LVL57:
 1338              	@ 237 "../chibios_2.6.3/test/testbmk.c" 1
 1339 0068 83F31188 		msr     BASEPRI, r3
 1340              	@ 0 "" 2
 1341              	.LVL58:
 1342              		.thumb
 1343              	.LBE8:
 1344              		.loc 1 238 0
 1345 006c 4FF0FF31 		mov	r1, #-1
 1346 0070 2846     		mov	r0, r5
 1347 0072 FFF7FEFF 		bl	chSchWakeupS
 1348              	.LVL59:
 1349              	.LBB9:
 1350              		.loc 1 239 0
 1351 0076 0023     		movs	r3, #0
ARM GAS  C:\DOCUME~1\z_80\LOCALS~1\Temp\ccVBPtpD.s 			page 25


 1352              	.LVL60:
 1353              	@ 239 "../chibios_2.6.3/test/testbmk.c" 1
 1354 0078 83F31188 		msr     BASEPRI, r3
 1355              	@ 0 "" 2
 1356              	.LVL61:
 1357              		.thumb
 1358              	.LBE9:
 1359              		.loc 1 241 0
 1360 007c FFF7FEFF 		bl	test_wait_threads
 1361              	.LVL62:
 1362              		.loc 1 242 0
 1363 0080 0A48     		ldr	r0, .L69+20
 1364 0082 FFF7FEFF 		bl	test_print
 1365              		.loc 1 243 0
 1366 0086 6000     		lsls	r0, r4, #1
 1367 0088 FFF7FEFF 		bl	test_printn
 1368              		.loc 1 244 0
 1369 008c 0848     		ldr	r0, .L69+24
 1370              		.loc 1 245 0
 1371 008e 02B0     		add	sp, sp, #8
 1372 0090 BDE87040 		pop	{r4, r5, r6, lr}
 1373              		.loc 1 244 0
 1374 0094 FFF7FEBF 		b	test_println
 1375              	.L70:
 1376              		.align	2
 1377              	.L69:
 1378 0098 00000000 		.word	rlist
 1379 009c 00000000 		.word	wa
 1380 00a0 00000000 		.word	thread4
 1381 00a4 00000000 		.word	threads
 1382 00a8 00000000 		.word	test_timer_done
 1383 00ac A8000000 		.word	.LC11
 1384 00b0 FC000000 		.word	.LC17
 1385              		.cfi_endproc
 1386              	.LFE14:
 1387              		.size	bmk4_execute, .-bmk4_execute
 1388 00b4 AFF30080 		.section	.text.msg_loop_test,"ax",%progbits
 1388      AFF30080 
 1388      AFF30080 
 1389              		.align	2
 1390              		.p2align 4,,15
 1391              		.thumb
 1392              		.thumb_func
 1393              		.type	msg_loop_test, %function
 1394              	msg_loop_test:
 1395              	.LFB8:
 1396              		.loc 1 80 0
 1397              		.cfi_startproc
 1398              		@ args = 0, pretend = 0, frame = 0
 1399              		@ frame_needed = 0, uses_anonymous_args = 0
 1400              	.LVL63:
 1401 0000 70B5     		push	{r4, r5, r6, lr}
 1402              	.LCFI18:
 1403              		.cfi_def_cfa_offset 16
 1404              		.loc 1 80 0
 1405 0002 0546     		mov	r5, r0
 1406              		.cfi_offset 14, -4
ARM GAS  C:\DOCUME~1\z_80\LOCALS~1\Temp\ccVBPtpD.s 			page 26


 1407              		.cfi_offset 6, -8
 1408              		.cfi_offset 5, -12
 1409              		.cfi_offset 4, -16
 1410              		.loc 1 83 0
 1411 0004 FFF7FEFF 		bl	test_wait_tick
 1412              	.LVL64:
 1413              		.loc 1 84 0
 1414 0008 4FF47A70 		mov	r0, #1000
 1415 000c FFF7FEFF 		bl	test_start_timer
 1416 0010 074E     		ldr	r6, .L74
 1417              		.loc 1 82 0
 1418 0012 0024     		movs	r4, #0
 1419              	.LVL65:
 1420              	.L72:
 1421              		.loc 1 86 0 discriminator 1
 1422 0014 2846     		mov	r0, r5
 1423 0016 0121     		movs	r1, #1
 1424 0018 FFF7FEFF 		bl	chMsgSend
 1425              		.loc 1 91 0 discriminator 1
 1426 001c 3378     		ldrb	r3, [r6, #0]	@ zero_extendqisi2
 1427              		.loc 1 87 0 discriminator 1
 1428 001e 0134     		adds	r4, r4, #1
 1429              	.LVL66:
 1430              		.loc 1 91 0 discriminator 1
 1431 0020 002B     		cmp	r3, #0
 1432 0022 F7D0     		beq	.L72
 1433              		.loc 1 92 0
 1434 0024 2846     		mov	r0, r5
 1435 0026 0021     		movs	r1, #0
 1436 0028 FFF7FEFF 		bl	chMsgSend
 1437              		.loc 1 94 0
 1438 002c 2046     		mov	r0, r4
 1439 002e 70BD     		pop	{r4, r5, r6, pc}
 1440              	.L75:
 1441              		.align	2
 1442              	.L74:
 1443 0030 00000000 		.word	test_timer_done
 1444              		.cfi_endproc
 1445              	.LFE8:
 1446              		.size	msg_loop_test, .-msg_loop_test
 1447 0034 AFF30080 		.section	.text.bmk3_execute,"ax",%progbits
 1447      AFF30080 
 1447      AFF30080 
 1448              		.align	2
 1449              		.p2align 4,,15
 1450              		.thumb
 1451              		.thumb_func
 1452              		.type	bmk3_execute, %function
 1453              	bmk3_execute:
 1454              	.LFB12:
 1455              		.loc 1 169 0
 1456              		.cfi_startproc
 1457              		@ args = 0, pretend = 0, frame = 0
 1458              		@ frame_needed = 0, uses_anonymous_args = 0
 1459 0000 2DE9F041 		push	{r4, r5, r6, r7, r8, lr}
 1460              	.LCFI19:
 1461              		.cfi_def_cfa_offset 24
ARM GAS  C:\DOCUME~1\z_80\LOCALS~1\Temp\ccVBPtpD.s 			page 27


 1462              		.loc 1 172 0
 1463 0004 2E4F     		ldr	r7, .L77
 1464              		.cfi_offset 14, -4
 1465              		.cfi_offset 8, -8
 1466              		.cfi_offset 7, -12
 1467              		.cfi_offset 6, -16
 1468              		.cfi_offset 5, -20
 1469              		.cfi_offset 4, -24
 1470 0006 2F4E     		ldr	r6, .L77+4
 1471 0008 BD69     		ldr	r5, [r7, #24]
 1472              		.loc 1 169 0
 1473 000a 82B0     		sub	sp, sp, #8
 1474              	.LCFI20:
 1475              		.cfi_def_cfa_offset 32
 1476              		.loc 1 172 0
 1477 000c AC68     		ldr	r4, [r5, #8]
 1478 000e 3068     		ldr	r0, [r6, #0]
 1479 0010 0025     		movs	r5, #0
 1480 0012 621C     		adds	r2, r4, #1
 1481 0014 4FF49871 		mov	r1, #304
 1482 0018 2B4B     		ldr	r3, .L77+8
 1483 001a 0095     		str	r5, [sp, #0]
 1484 001c FFF7FEFF 		bl	chThdCreateStatic
 1485              		.loc 1 173 0
 1486 0020 B969     		ldr	r1, [r7, #24]
 1487              		.loc 1 172 0
 1488 0022 2A4C     		ldr	r4, .L77+12
 1489              		.loc 1 173 0
 1490 0024 8B68     		ldr	r3, [r1, #8]
 1491 0026 DFF8B480 		ldr	r8, .L77+28
 1492 002a D6F804E0 		ldr	lr, [r6, #4]
 1493              		.loc 1 172 0
 1494 002e 2060     		str	r0, [r4, #0]
 1495              		.loc 1 173 0
 1496 0030 9A1E     		subs	r2, r3, #2
 1497 0032 7046     		mov	r0, lr
 1498 0034 4346     		mov	r3, r8
 1499 0036 4FF49871 		mov	r1, #304
 1500 003a 0095     		str	r5, [sp, #0]
 1501 003c FFF7FEFF 		bl	chThdCreateStatic
 1502              		.loc 1 174 0
 1503 0040 BA69     		ldr	r2, [r7, #24]
 1504 0042 D6F808C0 		ldr	ip, [r6, #8]
 1505 0046 9368     		ldr	r3, [r2, #8]
 1506 0048 4FF49871 		mov	r1, #304
 1507              		.loc 1 173 0
 1508 004c 6060     		str	r0, [r4, #4]
 1509              		.loc 1 174 0
 1510 004e DA1E     		subs	r2, r3, #3
 1511 0050 6046     		mov	r0, ip
 1512 0052 4346     		mov	r3, r8
 1513 0054 0095     		str	r5, [sp, #0]
 1514 0056 FFF7FEFF 		bl	chThdCreateStatic
 1515              		.loc 1 175 0
 1516 005a B969     		ldr	r1, [r7, #24]
 1517 005c D6F80CE0 		ldr	lr, [r6, #12]
 1518 0060 8A68     		ldr	r2, [r1, #8]
ARM GAS  C:\DOCUME~1\z_80\LOCALS~1\Temp\ccVBPtpD.s 			page 28


 1519 0062 4346     		mov	r3, r8
 1520              		.loc 1 174 0
 1521 0064 A060     		str	r0, [r4, #8]
 1522              		.loc 1 175 0
 1523 0066 043A     		subs	r2, r2, #4
 1524 0068 7046     		mov	r0, lr
 1525 006a 4FF49871 		mov	r1, #304
 1526 006e 0095     		str	r5, [sp, #0]
 1527 0070 FFF7FEFF 		bl	chThdCreateStatic
 1528              		.loc 1 176 0
 1529 0074 BB69     		ldr	r3, [r7, #24]
 1530 0076 3669     		ldr	r6, [r6, #16]
 1531 0078 9A68     		ldr	r2, [r3, #8]
 1532 007a 4FF49871 		mov	r1, #304
 1533 007e 053A     		subs	r2, r2, #5
 1534 0080 4346     		mov	r3, r8
 1535              		.loc 1 175 0
 1536 0082 E060     		str	r0, [r4, #12]
 1537              		.loc 1 176 0
 1538 0084 3046     		mov	r0, r6
 1539 0086 0095     		str	r5, [sp, #0]
 1540 0088 FFF7FEFF 		bl	chThdCreateStatic
 1541 008c 2061     		str	r0, [r4, #16]
 1542              		.loc 1 177 0
 1543 008e 2068     		ldr	r0, [r4, #0]
 1544 0090 FFF7FEFF 		bl	msg_loop_test
 1545 0094 0446     		mov	r4, r0
 1546              	.LVL67:
 1547              		.loc 1 178 0
 1548 0096 FFF7FEFF 		bl	test_wait_threads
 1549              	.LVL68:
 1550              		.loc 1 179 0
 1551 009a 0D48     		ldr	r0, .L77+16
 1552 009c FFF7FEFF 		bl	test_print
 1553              		.loc 1 180 0
 1554 00a0 2046     		mov	r0, r4
 1555 00a2 FFF7FEFF 		bl	test_printn
 1556              		.loc 1 181 0
 1557 00a6 0B48     		ldr	r0, .L77+20
 1558 00a8 FFF7FEFF 		bl	test_print
 1559              		.loc 1 182 0
 1560 00ac 6000     		lsls	r0, r4, #1
 1561 00ae FFF7FEFF 		bl	test_printn
 1562              		.loc 1 183 0
 1563 00b2 0948     		ldr	r0, .L77+24
 1564              		.loc 1 184 0
 1565 00b4 02B0     		add	sp, sp, #8
 1566 00b6 BDE8F041 		pop	{r4, r5, r6, r7, r8, lr}
 1567              		.loc 1 183 0
 1568 00ba FFF7FEBF 		b	test_println
 1569              	.L78:
 1570 00be 00BF     		.align	2
 1571              	.L77:
 1572 00c0 00000000 		.word	rlist
 1573 00c4 00000000 		.word	wa
 1574 00c8 00000000 		.word	thread1
 1575 00cc 00000000 		.word	threads
ARM GAS  C:\DOCUME~1\z_80\LOCALS~1\Temp\ccVBPtpD.s 			page 29


 1576 00d0 A8000000 		.word	.LC11
 1577 00d4 1C010000 		.word	.LC19
 1578 00d8 FC000000 		.word	.LC17
 1579 00dc 00000000 		.word	thread2
 1580              		.cfi_endproc
 1581              	.LFE12:
 1582              		.size	bmk3_execute, .-bmk3_execute
 1583              		.section	.text.bmk2_execute,"ax",%progbits
 1584              		.align	2
 1585              		.p2align 4,,15
 1586              		.thumb
 1587              		.thumb_func
 1588              		.type	bmk2_execute, %function
 1589              	bmk2_execute:
 1590              	.LFB10:
 1591              		.loc 1 134 0
 1592              		.cfi_startproc
 1593              		@ args = 0, pretend = 0, frame = 0
 1594              		@ frame_needed = 0, uses_anonymous_args = 0
 1595              		.loc 1 137 0
 1596 0000 134B     		ldr	r3, .L80
 1597              		.loc 1 134 0
 1598 0002 10B5     		push	{r4, lr}
 1599              	.LCFI21:
 1600              		.cfi_def_cfa_offset 8
 1601              		.loc 1 137 0
 1602 0004 9969     		ldr	r1, [r3, #24]
 1603 0006 1348     		ldr	r0, .L80+4
 1604 0008 8A68     		ldr	r2, [r1, #8]
 1605              		.loc 1 134 0
 1606 000a 82B0     		sub	sp, sp, #8
 1607              	.LCFI22:
 1608              		.cfi_def_cfa_offset 16
 1609              		.loc 1 137 0
 1610 000c 4FF49871 		mov	r1, #304
 1611 0010 0132     		adds	r2, r2, #1
 1612 0012 0024     		movs	r4, #0
 1613              		.cfi_offset 14, -4
 1614              		.cfi_offset 4, -8
 1615 0014 104B     		ldr	r3, .L80+8
 1616 0016 0068     		ldr	r0, [r0, #0]
 1617 0018 0094     		str	r4, [sp, #0]
 1618 001a FFF7FEFF 		bl	chThdCreateStatic
 1619 001e 0F4B     		ldr	r3, .L80+12
 1620 0020 1860     		str	r0, [r3, #0]
 1621              		.loc 1 138 0
 1622 0022 FFF7FEFF 		bl	msg_loop_test
 1623 0026 0446     		mov	r4, r0
 1624              	.LVL69:
 1625              		.loc 1 139 0
 1626 0028 FFF7FEFF 		bl	test_wait_threads
 1627              	.LVL70:
 1628              		.loc 1 140 0
 1629 002c 0C48     		ldr	r0, .L80+16
 1630 002e FFF7FEFF 		bl	test_print
 1631              		.loc 1 141 0
 1632 0032 2046     		mov	r0, r4
ARM GAS  C:\DOCUME~1\z_80\LOCALS~1\Temp\ccVBPtpD.s 			page 30


 1633 0034 FFF7FEFF 		bl	test_printn
 1634              		.loc 1 142 0
 1635 0038 0A48     		ldr	r0, .L80+20
 1636 003a FFF7FEFF 		bl	test_print
 1637              		.loc 1 143 0
 1638 003e 6000     		lsls	r0, r4, #1
 1639 0040 FFF7FEFF 		bl	test_printn
 1640              		.loc 1 144 0
 1641 0044 0848     		ldr	r0, .L80+24
 1642              		.loc 1 145 0
 1643 0046 02B0     		add	sp, sp, #8
 1644 0048 BDE81040 		pop	{r4, lr}
 1645              		.loc 1 144 0
 1646 004c FFF7FEBF 		b	test_println
 1647              	.L81:
 1648              		.align	2
 1649              	.L80:
 1650 0050 00000000 		.word	rlist
 1651 0054 00000000 		.word	wa
 1652 0058 00000000 		.word	thread1
 1653 005c 00000000 		.word	threads
 1654 0060 A8000000 		.word	.LC11
 1655 0064 1C010000 		.word	.LC19
 1656 0068 FC000000 		.word	.LC17
 1657              		.cfi_endproc
 1658              	.LFE10:
 1659              		.size	bmk2_execute, .-bmk2_execute
 1660 006c AFF30080 		.section	.text.bmk1_execute,"ax",%progbits
 1661              		.align	2
 1662              		.p2align 4,,15
 1663              		.thumb
 1664              		.thumb_func
 1665              		.type	bmk1_execute, %function
 1666              	bmk1_execute:
 1667              	.LFB9:
 1668              		.loc 1 105 0
 1669              		.cfi_startproc
 1670              		@ args = 0, pretend = 0, frame = 0
 1671              		@ frame_needed = 0, uses_anonymous_args = 0
 1672              		.loc 1 108 0
 1673 0000 134B     		ldr	r3, .L83
 1674              		.loc 1 105 0
 1675 0002 10B5     		push	{r4, lr}
 1676              	.LCFI23:
 1677              		.cfi_def_cfa_offset 8
 1678              		.loc 1 108 0
 1679 0004 9969     		ldr	r1, [r3, #24]
 1680 0006 1348     		ldr	r0, .L83+4
 1681 0008 8A68     		ldr	r2, [r1, #8]
 1682              		.loc 1 105 0
 1683 000a 82B0     		sub	sp, sp, #8
 1684              	.LCFI24:
 1685              		.cfi_def_cfa_offset 16
 1686              		.loc 1 108 0
 1687 000c 4FF49871 		mov	r1, #304
 1688 0010 013A     		subs	r2, r2, #1
 1689 0012 0024     		movs	r4, #0
ARM GAS  C:\DOCUME~1\z_80\LOCALS~1\Temp\ccVBPtpD.s 			page 31


 1690              		.cfi_offset 14, -4
 1691              		.cfi_offset 4, -8
 1692 0014 104B     		ldr	r3, .L83+8
 1693 0016 0068     		ldr	r0, [r0, #0]
 1694 0018 0094     		str	r4, [sp, #0]
 1695 001a FFF7FEFF 		bl	chThdCreateStatic
 1696 001e 0F4B     		ldr	r3, .L83+12
 1697 0020 1860     		str	r0, [r3, #0]
 1698              		.loc 1 109 0
 1699 0022 FFF7FEFF 		bl	msg_loop_test
 1700 0026 0446     		mov	r4, r0
 1701              	.LVL71:
 1702              		.loc 1 110 0
 1703 0028 FFF7FEFF 		bl	test_wait_threads
 1704              	.LVL72:
 1705              		.loc 1 111 0
 1706 002c 0C48     		ldr	r0, .L83+16
 1707 002e FFF7FEFF 		bl	test_print
 1708              		.loc 1 112 0
 1709 0032 2046     		mov	r0, r4
 1710 0034 FFF7FEFF 		bl	test_printn
 1711              		.loc 1 113 0
 1712 0038 0A48     		ldr	r0, .L83+20
 1713 003a FFF7FEFF 		bl	test_print
 1714              		.loc 1 114 0
 1715 003e 6000     		lsls	r0, r4, #1
 1716 0040 FFF7FEFF 		bl	test_printn
 1717              		.loc 1 115 0
 1718 0044 0848     		ldr	r0, .L83+24
 1719              		.loc 1 116 0
 1720 0046 02B0     		add	sp, sp, #8
 1721 0048 BDE81040 		pop	{r4, lr}
 1722              		.loc 1 115 0
 1723 004c FFF7FEBF 		b	test_println
 1724              	.L84:
 1725              		.align	2
 1726              	.L83:
 1727 0050 00000000 		.word	rlist
 1728 0054 00000000 		.word	wa
 1729 0058 00000000 		.word	thread1
 1730 005c 00000000 		.word	threads
 1731 0060 A8000000 		.word	.LC11
 1732 0064 1C010000 		.word	.LC19
 1733 0068 FC000000 		.word	.LC17
 1734              		.cfi_endproc
 1735              	.LFE9:
 1736              		.size	bmk1_execute, .-bmk1_execute
 1737 006c AFF30080 		.section	.text.thread1,"ax",%progbits
 1738              		.align	2
 1739              		.p2align 4,,15
 1740              		.thumb
 1741              		.thumb_func
 1742              		.type	thread1, %function
 1743              	thread1:
 1744              	.LFB7:
 1745              		.loc 1 64 0
 1746              		.cfi_startproc
ARM GAS  C:\DOCUME~1\z_80\LOCALS~1\Temp\ccVBPtpD.s 			page 32


 1747              		@ args = 0, pretend = 0, frame = 0
 1748              		@ frame_needed = 0, uses_anonymous_args = 0
 1749              	.LVL73:
 1750 0000 10B5     		push	{r4, lr}
 1751              	.LCFI25:
 1752              		.cfi_def_cfa_offset 8
 1753              	.LVL74:
 1754              	.L86:
 1755              		.loc 1 70 0 discriminator 1
 1756              		.cfi_offset 14, -4
 1757              		.cfi_offset 4, -8
 1758 0002 FFF7FEFF 		bl	chMsgWait
 1759              	.LVL75:
 1760              		.loc 1 71 0 discriminator 1
 1761 0006 446B     		ldr	r4, [r0, #52]
 1762              	.LVL76:
 1763              		.loc 1 72 0 discriminator 1
 1764 0008 2146     		mov	r1, r4
 1765 000a FFF7FEFF 		bl	chMsgRelease
 1766              	.LVL77:
 1767              		.loc 1 73 0 discriminator 1
 1768 000e 002C     		cmp	r4, #0
 1769 0010 F7D1     		bne	.L86
 1770              		.loc 1 75 0
 1771 0012 2046     		mov	r0, r4
 1772 0014 10BD     		pop	{r4, pc}
 1773              		.cfi_endproc
 1774              	.LFE7:
 1775              		.size	thread1, .-thread1
 1776 0016 00BFAFF3 		.section	.text.thread4,"ax",%progbits
 1776      0080AFF3 
 1776      0080
 1777              		.align	2
 1778              		.p2align 4,,15
 1779              		.global	thread4
 1780              		.thumb
 1781              		.thumb_func
 1782              		.type	thread4, %function
 1783              	thread4:
 1784              	.LFB13:
 1785              		.loc 1 203 0
 1786              		.cfi_startproc
 1787              		@ args = 0, pretend = 0, frame = 0
 1788              		@ frame_needed = 0, uses_anonymous_args = 0
 1789              	.LVL78:
 1790              		.loc 1 205 0
 1791 0000 084A     		ldr	r2, .L91
 1792              		.loc 1 203 0
 1793 0002 10B5     		push	{r4, lr}
 1794              	.LCFI26:
 1795              		.cfi_def_cfa_offset 8
 1796              	.LBB10:
 1797              		.loc 1 208 0
 1798 0004 2023     		movs	r3, #32
 1799              	.LVL79:
 1800              	.LBE10:
 1801              		.loc 1 205 0
ARM GAS  C:\DOCUME~1\z_80\LOCALS~1\Temp\ccVBPtpD.s 			page 33


 1802 0006 9469     		ldr	r4, [r2, #24]
 1803              		.cfi_offset 14, -4
 1804              		.cfi_offset 4, -8
 1805              	.LVL80:
 1806              	.LBB11:
 1807              		.loc 1 208 0
 1808              	@ 208 "../chibios_2.6.3/test/testbmk.c" 1
 1809 0008 83F31188 		msr     BASEPRI, r3
 1810              	@ 0 "" 2
 1811              	.LVL81:
 1812              		.thumb
 1813              	.L89:
 1814              	.LBE11:
 1815              		.loc 1 210 0 discriminator 1
 1816 000c 0220     		movs	r0, #2
 1817 000e FFF7FEFF 		bl	chSchGoSleepS
 1818              	.LVL82:
 1819              		.loc 1 212 0 discriminator 1
 1820 0012 636A     		ldr	r3, [r4, #36]
 1821 0014 002B     		cmp	r3, #0
 1822 0016 F9D0     		beq	.L89
 1823              	.LBB12:
 1824              		.loc 1 213 0
 1825 0018 0023     		movs	r3, #0
 1826              	.LVL83:
 1827              	@ 213 "../chibios_2.6.3/test/testbmk.c" 1
 1828 001a 83F31188 		msr     BASEPRI, r3
 1829              	@ 0 "" 2
 1830              	.LVL84:
 1831              		.thumb
 1832              	.LBE12:
 1833              		.loc 1 215 0
 1834 001e 1846     		mov	r0, r3
 1835 0020 10BD     		pop	{r4, pc}
 1836              	.L92:
 1837 0022 00BF     		.align	2
 1838              	.L91:
 1839 0024 00000000 		.word	rlist
 1840              		.cfi_endproc
 1841              	.LFE13:
 1842              		.size	thread4, .-thread4
 1843              		.global	testbmk1
 1844              		.global	testbmk2
 1845              		.global	testbmk3
 1846              		.global	testbmk4
 1847              		.global	testbmk5
 1848              		.global	testbmk6
 1849              		.global	testbmk7
 1850              		.global	testbmk8
 1851              		.global	testbmk9
 1852              		.global	testbmk10
 1853              		.global	testbmk11
 1854              		.global	testbmk12
 1855              		.global	testbmk13
 1856              		.global	patternbmk
 1857 0028 AFF30080 		.section	.rodata.testbmk8,"a",%progbits
 1857      AFF30080 
ARM GAS  C:\DOCUME~1\z_80\LOCALS~1\Temp\ccVBPtpD.s 			page 34


 1858              		.align	2
 1859              		.type	testbmk8, %object
 1860              		.size	testbmk8, 16
 1861              	testbmk8:
 1862 0000 F4010000 		.word	.LC27
 1863 0004 00000000 		.word	0
 1864 0008 00000000 		.word	0
 1865 000c 00000000 		.word	bmk8_execute
 1866              		.section	.rodata.testbmk9,"a",%progbits
 1867              		.align	2
 1868              		.type	testbmk9, %object
 1869              		.size	testbmk9, 16
 1870              	testbmk9:
 1871 0000 20020000 		.word	.LC28
 1872 0004 00000000 		.word	0
 1873 0008 00000000 		.word	0
 1874 000c 00000000 		.word	bmk9_execute
 1875              		.section	.rodata.testbmk10,"a",%progbits
 1876              		.align	2
 1877              		.type	testbmk10, %object
 1878              		.size	testbmk10, 16
 1879              	testbmk10:
 1880 0000 44020000 		.word	.LC29
 1881 0004 00000000 		.word	0
 1882 0008 00000000 		.word	0
 1883 000c 00000000 		.word	bmk10_execute
 1884              		.section	.rodata.testbmk11,"a",%progbits
 1885              		.align	2
 1886              		.type	testbmk11, %object
 1887              		.size	testbmk11, 16
 1888              	testbmk11:
 1889 0000 68020000 		.word	.LC30
 1890 0004 00000000 		.word	bmk11_setup
 1891 0008 00000000 		.word	0
 1892 000c 00000000 		.word	bmk11_execute
 1893              		.section	.bss.ib.4789,"aw",%nobits
 1894              		.align	2
 1895              		.set	.LANCHOR5,. + 0
 1896              		.type	ib.4789, %object
 1897              		.size	ib.4789, 16
 1898              	ib.4789:
 1899 0000 00000000 		.space	16
 1899      00000000 
 1899      00000000 
 1899      00000000 
 1900              		.section	.bss.mtx1,"aw",%nobits
 1901              		.align	2
 1902              		.set	.LANCHOR0,. + 0
 1903              		.type	mtx1, %object
 1904              		.size	mtx1, 16
 1905              	mtx1:
 1906 0000 00000000 		.space	16
 1906      00000000 
 1906      00000000 
 1906      00000000 
 1907              		.section	.rodata.testbmk12,"a",%progbits
 1908              		.align	2
ARM GAS  C:\DOCUME~1\z_80\LOCALS~1\Temp\ccVBPtpD.s 			page 35


 1909              		.type	testbmk12, %object
 1910              		.size	testbmk12, 16
 1911              	testbmk12:
 1912 0000 8C020000 		.word	.LC31
 1913 0004 00000000 		.word	bmk12_setup
 1914 0008 00000000 		.word	0
 1915 000c 00000000 		.word	bmk12_execute
 1916              		.section	.bss.vt2.4803,"aw",%nobits
 1917              		.align	2
 1918              		.set	.LANCHOR3,. + 0
 1919              		.type	vt2.4803, %object
 1920              		.size	vt2.4803, 20
 1921              	vt2.4803:
 1922 0000 00000000 		.space	20
 1922      00000000 
 1922      00000000 
 1922      00000000 
 1922      00000000 
 1923              		.section	.rodata.testbmk13,"a",%progbits
 1924              		.align	2
 1925              		.type	testbmk13, %object
 1926              		.size	testbmk13, 16
 1927              	testbmk13:
 1928 0000 AC020000 		.word	.LC32
 1929 0004 00000000 		.word	0
 1930 0008 00000000 		.word	0
 1931 000c 00000000 		.word	bmk13_execute
 1932              		.section	.rodata.str1.4,"aMS",%progbits,1
 1933              		.align	2
 1934              	.LC0:
 1935 0000 2D2D2D20 		.ascii	"--- System: \000"
 1935      53797374 
 1935      656D3A20 
 1935      00
 1936 000d 000000   		.space	3
 1937              	.LC1:
 1938 0010 20627974 		.ascii	" bytes\000"
 1938      657300
 1939 0017 00       		.space	1
 1940              	.LC2:
 1941 0018 2D2D2D20 		.ascii	"--- Thread: \000"
 1941      54687265 
 1941      61643A20 
 1941      00
 1942 0025 000000   		.space	3
 1943              	.LC3:
 1944 0028 2D2D2D20 		.ascii	"--- Timer : \000"
 1944      54696D65 
 1944      72203A20 
 1944      00
 1945 0035 000000   		.space	3
 1946              	.LC4:
 1947 0038 2D2D2D20 		.ascii	"--- Semaph: \000"
 1947      53656D61 
 1947      70683A20 
 1947      00
 1948 0045 000000   		.space	3
ARM GAS  C:\DOCUME~1\z_80\LOCALS~1\Temp\ccVBPtpD.s 			page 36


 1949              	.LC5:
 1950 0048 2D2D2D20 		.ascii	"--- EventS: \000"
 1950      4576656E 
 1950      74533A20 
 1950      00
 1951 0055 000000   		.space	3
 1952              	.LC6:
 1953 0058 2D2D2D20 		.ascii	"--- EventL: \000"
 1953      4576656E 
 1953      744C3A20 
 1953      00
 1954 0065 000000   		.space	3
 1955              	.LC7:
 1956 0068 2D2D2D20 		.ascii	"--- Mutex : \000"
 1956      4D757465 
 1956      78203A20 
 1956      00
 1957 0075 000000   		.space	3
 1958              	.LC8:
 1959 0078 2D2D2D20 		.ascii	"--- CondV.: \000"
 1959      436F6E64 
 1959      562E3A20 
 1959      00
 1960 0085 000000   		.space	3
 1961              	.LC9:
 1962 0088 2D2D2D20 		.ascii	"--- Queue : \000"
 1962      51756575 
 1962      65203A20 
 1962      00
 1963 0095 000000   		.space	3
 1964              	.LC10:
 1965 0098 2D2D2D20 		.ascii	"--- MailB.: \000"
 1965      4D61696C 
 1965      422E3A20 
 1965      00
 1966 00a5 000000   		.space	3
 1967              	.LC11:
 1968 00a8 2D2D2D20 		.ascii	"--- Score : \000"
 1968      53636F72 
 1968      65203A20 
 1968      00
 1969 00b5 000000   		.space	3
 1970              	.LC12:
 1971 00b8 206C6F63 		.ascii	" lock+unlock/S\000"
 1971      6B2B756E 
 1971      6C6F636B 
 1971      2F5300
 1972 00c7 00       		.space	1
 1973              	.LC13:
 1974 00c8 20776169 		.ascii	" wait+signal/S\000"
 1974      742B7369 
 1974      676E616C 
 1974      2F5300
 1975 00d7 00       		.space	1
 1976              	.LC14:
 1977 00d8 2074696D 		.ascii	" timers/S\000"
 1977      6572732F 
ARM GAS  C:\DOCUME~1\z_80\LOCALS~1\Temp\ccVBPtpD.s 			page 37


 1977      5300
 1978 00e2 0000     		.space	2
 1979              	.LC15:
 1980 00e4 20627974 		.ascii	" bytes/S\000"
 1980      65732F53 
 1980      00
 1981 00ed 000000   		.space	3
 1982              	.LC16:
 1983 00f0 20746872 		.ascii	" threads/S\000"
 1983      65616473 
 1983      2F5300
 1984 00fb 00       		.space	1
 1985              	.LC17:
 1986 00fc 20637478 		.ascii	" ctxswc/S\000"
 1986      7377632F 
 1986      5300
 1987 0106 0000     		.space	2
 1988              	.LC18:
 1989 0108 20726573 		.ascii	" reschedules/S, \000"
 1989      63686564 
 1989      756C6573 
 1989      2F532C20 
 1989      00
 1990 0119 000000   		.space	3
 1991              	.LC19:
 1992 011c 206D7367 		.ascii	" msgs/S, \000"
 1992      732F532C 
 1992      2000
 1993 0126 0000     		.space	2
 1994              	.LC20:
 1995 0128 42656E63 		.ascii	"Benchmark, messages #1\000"
 1995      686D6172 
 1995      6B2C206D 
 1995      65737361 
 1995      67657320 
 1996 013f 00       		.space	1
 1997              	.LC21:
 1998 0140 42656E63 		.ascii	"Benchmark, messages #2\000"
 1998      686D6172 
 1998      6B2C206D 
 1998      65737361 
 1998      67657320 
 1999 0157 00       		.space	1
 2000              	.LC22:
 2001 0158 42656E63 		.ascii	"Benchmark, messages #3\000"
 2001      686D6172 
 2001      6B2C206D 
 2001      65737361 
 2001      67657320 
 2002 016f 00       		.space	1
 2003              	.LC23:
 2004 0170 42656E63 		.ascii	"Benchmark, context switch\000"
 2004      686D6172 
 2004      6B2C2063 
 2004      6F6E7465 
 2004      78742073 
 2005 018a 0000     		.space	2
ARM GAS  C:\DOCUME~1\z_80\LOCALS~1\Temp\ccVBPtpD.s 			page 38


 2006              	.LC24:
 2007 018c 42656E63 		.ascii	"Benchmark, threads, full cycle\000"
 2007      686D6172 
 2007      6B2C2074 
 2007      68726561 
 2007      64732C20 
 2008 01ab 00       		.space	1
 2009              	.LC25:
 2010 01ac 42656E63 		.ascii	"Benchmark, threads, create only\000"
 2010      686D6172 
 2010      6B2C2074 
 2010      68726561 
 2010      64732C20 
 2011              	.LC26:
 2012 01cc 42656E63 		.ascii	"Benchmark, mass reschedule, 5 threads\000"
 2012      686D6172 
 2012      6B2C206D 
 2012      61737320 
 2012      72657363 
 2013 01f2 0000     		.space	2
 2014              	.LC27:
 2015 01f4 42656E63 		.ascii	"Benchmark, round robin context switching\000"
 2015      686D6172 
 2015      6B2C2072 
 2015      6F756E64 
 2015      20726F62 
 2016 021d 000000   		.space	3
 2017              	.LC28:
 2018 0220 42656E63 		.ascii	"Benchmark, I/O Queues throughput\000"
 2018      686D6172 
 2018      6B2C2049 
 2018      2F4F2051 
 2018      75657565 
 2019 0241 000000   		.space	3
 2020              	.LC29:
 2021 0244 42656E63 		.ascii	"Benchmark, virtual timers set/reset\000"
 2021      686D6172 
 2021      6B2C2076 
 2021      69727475 
 2021      616C2074 
 2022              	.LC30:
 2023 0268 42656E63 		.ascii	"Benchmark, semaphores wait/signal\000"
 2023      686D6172 
 2023      6B2C2073 
 2023      656D6170 
 2023      686F7265 
 2024 028a 0000     		.space	2
 2025              	.LC31:
 2026 028c 42656E63 		.ascii	"Benchmark, mutexes lock/unlock\000"
 2026      686D6172 
 2026      6B2C206D 
 2026      75746578 
 2026      6573206C 
 2027 02ab 00       		.space	1
 2028              	.LC32:
 2029 02ac 42656E63 		.ascii	"Benchmark, RAM footprint\000"
 2029      686D6172 
ARM GAS  C:\DOCUME~1\z_80\LOCALS~1\Temp\ccVBPtpD.s 			page 39


 2029      6B2C2052 
 2029      414D2066 
 2029      6F6F7470 
 2030 02c5 000000   		.section	.bss.vt1.4802,"aw",%nobits
 2031              		.align	2
 2032              		.set	.LANCHOR2,. + 0
 2033              		.type	vt1.4802, %object
 2034              		.size	vt1.4802, 20
 2035              	vt1.4802:
 2036 0000 00000000 		.space	20
 2036      00000000 
 2036      00000000 
 2036      00000000 
 2036      00000000 
 2037              		.section	.bss.iq.4790,"aw",%nobits
 2038              		.align	2
 2039              		.set	.LANCHOR4,. + 0
 2040              		.type	iq.4790, %object
 2041              		.size	iq.4790, 36
 2042              	iq.4790:
 2043 0000 00000000 		.space	36
 2043      00000000 
 2043      00000000 
 2043      00000000 
 2043      00000000 
 2044              		.section	.bss.sem1,"aw",%nobits
 2045              		.align	2
 2046              		.set	.LANCHOR1,. + 0
 2047              		.type	sem1, %object
 2048              		.size	sem1, 12
 2049              	sem1:
 2050 0000 00000000 		.space	12
 2050      00000000 
 2050      00000000 
 2051              		.section	.rodata.patternbmk,"a",%progbits
 2052              		.align	2
 2053              		.type	patternbmk, %object
 2054              		.size	patternbmk, 56
 2055              	patternbmk:
 2056 0000 00000000 		.word	testbmk1
 2057 0004 00000000 		.word	testbmk2
 2058 0008 00000000 		.word	testbmk3
 2059 000c 00000000 		.word	testbmk4
 2060 0010 00000000 		.word	testbmk5
 2061 0014 00000000 		.word	testbmk6
 2062 0018 00000000 		.word	testbmk7
 2063 001c 00000000 		.word	testbmk8
 2064 0020 00000000 		.word	testbmk9
 2065 0024 00000000 		.word	testbmk10
 2066 0028 00000000 		.word	testbmk11
 2067 002c 00000000 		.word	testbmk12
 2068 0030 00000000 		.word	testbmk13
 2069 0034 00000000 		.word	0
 2070              		.section	.rodata.testbmk1,"a",%progbits
 2071              		.align	2
 2072              		.type	testbmk1, %object
 2073              		.size	testbmk1, 16
ARM GAS  C:\DOCUME~1\z_80\LOCALS~1\Temp\ccVBPtpD.s 			page 40


 2074              	testbmk1:
 2075 0000 28010000 		.word	.LC20
 2076 0004 00000000 		.word	0
 2077 0008 00000000 		.word	0
 2078 000c 00000000 		.word	bmk1_execute
 2079              		.section	.rodata.testbmk2,"a",%progbits
 2080              		.align	2
 2081              		.type	testbmk2, %object
 2082              		.size	testbmk2, 16
 2083              	testbmk2:
 2084 0000 40010000 		.word	.LC21
 2085 0004 00000000 		.word	0
 2086 0008 00000000 		.word	0
 2087 000c 00000000 		.word	bmk2_execute
 2088              		.section	.rodata.testbmk3,"a",%progbits
 2089              		.align	2
 2090              		.type	testbmk3, %object
 2091              		.size	testbmk3, 16
 2092              	testbmk3:
 2093 0000 58010000 		.word	.LC22
 2094 0004 00000000 		.word	0
 2095 0008 00000000 		.word	0
 2096 000c 00000000 		.word	bmk3_execute
 2097              		.section	.rodata.testbmk4,"a",%progbits
 2098              		.align	2
 2099              		.type	testbmk4, %object
 2100              		.size	testbmk4, 16
 2101              	testbmk4:
 2102 0000 70010000 		.word	.LC23
 2103 0004 00000000 		.word	0
 2104 0008 00000000 		.word	0
 2105 000c 00000000 		.word	bmk4_execute
 2106              		.section	.rodata.testbmk5,"a",%progbits
 2107              		.align	2
 2108              		.type	testbmk5, %object
 2109              		.size	testbmk5, 16
 2110              	testbmk5:
 2111 0000 8C010000 		.word	.LC24
 2112 0004 00000000 		.word	0
 2113 0008 00000000 		.word	0
 2114 000c 00000000 		.word	bmk5_execute
 2115              		.section	.rodata.testbmk6,"a",%progbits
 2116              		.align	2
 2117              		.type	testbmk6, %object
 2118              		.size	testbmk6, 16
 2119              	testbmk6:
 2120 0000 AC010000 		.word	.LC25
 2121 0004 00000000 		.word	0
 2122 0008 00000000 		.word	0
 2123 000c 00000000 		.word	bmk6_execute
 2124              		.section	.rodata.testbmk7,"a",%progbits
 2125              		.align	2
 2126              		.type	testbmk7, %object
 2127              		.size	testbmk7, 16
 2128              	testbmk7:
 2129 0000 CC010000 		.word	.LC26
 2130 0004 00000000 		.word	bmk7_setup
ARM GAS  C:\DOCUME~1\z_80\LOCALS~1\Temp\ccVBPtpD.s 			page 41


 2131 0008 00000000 		.word	0
 2132 000c 00000000 		.word	bmk7_execute
 2133              		.text
 2134              	.Letext0: