ARM GAS  C:\DOCUME~1\z_80\LOCALS~1\Temp\ccGlv3zb.s 			page 1


   1              		.syntax unified
   2              		.cpu cortex-m3
   3              		.fpu softvfp
   4              		.eabi_attribute 20, 1
   5              		.eabi_attribute 21, 1
   6              		.eabi_attribute 23, 3
   7              		.eabi_attribute 24, 1
   8              		.eabi_attribute 25, 1
   9              		.eabi_attribute 26, 1
  10              		.eabi_attribute 30, 2
  11              		.eabi_attribute 18, 4
  12              		.thumb
  13              		.file	"testevt.c"
  20 0000 A3020000 		.text
  20      02006901 
  20      00000201 
  20      FB0E0D00 
  20      01010101 
  21              	.Ltext0:
  22              		.cfi_sections	.debug_frame
  23              		.section	.text.evt3_execute,"ax",%progbits
  24              		.align	2
  25              		.p2align 4,,15
  26              		.thumb
  27              		.thumb_func
  28              		.type	evt3_execute, %function
  29              	evt3_execute:
  30              	.LFB17:
  31              		.file 1 "../chibios_2.6.3/test/testevt.c"
  32              		.loc 1 252 0
  33              		.cfi_startproc
  34              		@ args = 0, pretend = 0, frame = 0
  35              		@ frame_needed = 0, uses_anonymous_args = 0
  36              		.loc 1 258 0
  37 0000 0021     		movs	r1, #0
  38              		.loc 1 252 0
  39 0002 10B5     		push	{r4, lr}
  40              	.LCFI0:
  41              		.cfi_def_cfa_offset 8
  42              		.loc 1 258 0
  43 0004 4FF0FF30 		mov	r0, #-1
  44              		.cfi_offset 14, -4
  45              		.cfi_offset 4, -8
  46 0008 FFF7FEFF 		bl	chEvtWaitOneTimeout
  47              	.LVL0:
  48              		.loc 1 259 0
  49 000c D0F10101 		rsbs	r1, r0, #1
  50 0010 38BF     		it	cc
  51 0012 0021     		movcc	r1, #0
  52 0014 0120     		movs	r0, #1
  53              	.LVL1:
ARM GAS  C:\DOCUME~1\z_80\LOCALS~1\Temp\ccGlv3zb.s 			page 2


  54 0016 FFF7FEFF 		bl	_test_assert
  55 001a 00B1     		cbz	r0, .L4
  56              	.L1:
  57 001c 10BD     		pop	{r4, pc}
  58              	.L4:
  59              		.loc 1 260 0
  60 001e 0146     		mov	r1, r0
  61 0020 4FF0FF30 		mov	r0, #-1
  62 0024 FFF7FEFF 		bl	chEvtWaitAnyTimeout
  63              	.LVL2:
  64              		.loc 1 261 0
  65 0028 D0F10101 		rsbs	r1, r0, #1
  66 002c 38BF     		it	cc
  67 002e 0021     		movcc	r1, #0
  68 0030 0220     		movs	r0, #2
  69              	.LVL3:
  70 0032 FFF7FEFF 		bl	_test_assert
  71 0036 0028     		cmp	r0, #0
  72 0038 F0D1     		bne	.L1
  73              		.loc 1 262 0
  74 003a 0146     		mov	r1, r0
  75 003c 4FF0FF30 		mov	r0, #-1
  76 0040 FFF7FEFF 		bl	chEvtWaitAllTimeout
  77              	.LVL4:
  78              		.loc 1 263 0
  79 0044 D0F10101 		rsbs	r1, r0, #1
  80 0048 38BF     		it	cc
  81 004a 0021     		movcc	r1, #0
  82 004c 0320     		movs	r0, #3
  83              	.LVL5:
  84 004e FFF7FEFF 		bl	_test_assert
  85 0052 0028     		cmp	r0, #0
  86 0054 E2D1     		bne	.L1
  87              		.loc 1 264 0
  88 0056 0A21     		movs	r1, #10
  89 0058 4FF0FF30 		mov	r0, #-1
  90 005c FFF7FEFF 		bl	chEvtWaitOneTimeout
  91              	.LVL6:
  92              		.loc 1 265 0
  93 0060 D0F10101 		rsbs	r1, r0, #1
  94 0064 38BF     		it	cc
  95 0066 0021     		movcc	r1, #0
  96 0068 0420     		movs	r0, #4
  97              	.LVL7:
  98 006a FFF7FEFF 		bl	_test_assert
  99 006e 0028     		cmp	r0, #0
 100 0070 D4D1     		bne	.L1
 101              		.loc 1 266 0
 102 0072 0A21     		movs	r1, #10
 103 0074 4FF0FF30 		mov	r0, #-1
 104 0078 FFF7FEFF 		bl	chEvtWaitAnyTimeout
 105              	.LVL8:
 106              		.loc 1 267 0
 107 007c D0F10101 		rsbs	r1, r0, #1
 108 0080 38BF     		it	cc
 109 0082 0021     		movcc	r1, #0
 110 0084 0520     		movs	r0, #5
ARM GAS  C:\DOCUME~1\z_80\LOCALS~1\Temp\ccGlv3zb.s 			page 3


 111              	.LVL9:
 112 0086 FFF7FEFF 		bl	_test_assert
 113 008a 0028     		cmp	r0, #0
 114 008c C6D1     		bne	.L1
 115              		.loc 1 268 0
 116 008e 0A21     		movs	r1, #10
 117 0090 4FF0FF30 		mov	r0, #-1
 118 0094 FFF7FEFF 		bl	chEvtWaitAllTimeout
 119              	.LVL10:
 120              		.loc 1 269 0
 121 0098 D0F10101 		rsbs	r1, r0, #1
 122 009c 38BF     		it	cc
 123 009e 0021     		movcc	r1, #0
 124 00a0 0620     		movs	r0, #6
 125              	.LVL11:
 126              		.loc 1 270 0
 127 00a2 BDE81040 		pop	{r4, lr}
 128              		.loc 1 269 0
 129 00a6 FFF7FEBF 		b	_test_assert
 130              		.cfi_endproc
 131              	.LFE17:
 132              		.size	evt3_execute, .-evt3_execute
 133 00aa 00BFAFF3 		.section	.text.evt3_setup,"ax",%progbits
 133      0080
 134              		.align	2
 135              		.p2align 4,,15
 136              		.thumb
 137              		.thumb_func
 138              		.type	evt3_setup, %function
 139              	evt3_setup:
 140              	.LFB16:
 141              		.loc 1 247 0
 142              		.cfi_startproc
 143              		@ args = 0, pretend = 0, frame = 0
 144              		@ frame_needed = 0, uses_anonymous_args = 0
 145              		@ link register save eliminated.
 146              		.loc 1 249 0
 147 0000 4FF0FF30 		mov	r0, #-1
 148              		.loc 1 250 0
 149              		.loc 1 249 0
 150 0004 FFF7FEBF 		b	chEvtGetAndClearEvents
 151              		.cfi_endproc
 152              	.LFE16:
 153              		.size	evt3_setup, .-evt3_setup
 154 0008 AFF30080 		.section	.text.evt2_setup,"ax",%progbits
 154      AFF30080 
 155              		.align	2
 156              		.p2align 4,,15
 157              		.thumb
 158              		.thumb_func
 159              		.type	evt2_setup, %function
 160              	evt2_setup:
 161              	.LFB12:
 162              		.loc 1 128 0
 163              		.cfi_startproc
 164              		@ args = 0, pretend = 0, frame = 0
 165              		@ frame_needed = 0, uses_anonymous_args = 0
ARM GAS  C:\DOCUME~1\z_80\LOCALS~1\Temp\ccGlv3zb.s 			page 4


 166              		@ link register save eliminated.
 167              		.loc 1 130 0
 168 0000 4FF0FF30 		mov	r0, #-1
 169              		.loc 1 131 0
 170              		.loc 1 130 0
 171 0004 FFF7FEBF 		b	chEvtGetAndClearEvents
 172              		.cfi_endproc
 173              	.LFE12:
 174              		.size	evt2_setup, .-evt2_setup
 175 0008 AFF30080 		.section	.text.evt1_setup,"ax",%progbits
 175      AFF30080 
 176              		.align	2
 177              		.p2align 4,,15
 178              		.thumb
 179              		.thumb_func
 180              		.type	evt1_setup, %function
 181              	evt1_setup:
 182              	.LFB7:
 183              		.loc 1 75 0
 184              		.cfi_startproc
 185              		@ args = 0, pretend = 0, frame = 0
 186              		@ frame_needed = 0, uses_anonymous_args = 0
 187              		@ link register save eliminated.
 188              		.loc 1 77 0
 189 0000 4FF0FF30 		mov	r0, #-1
 190              		.loc 1 78 0
 191              		.loc 1 77 0
 192 0004 FFF7FEBF 		b	chEvtGetAndClearEvents
 193              		.cfi_endproc
 194              	.LFE7:
 195              		.size	evt1_setup, .-evt1_setup
 196 0008 AFF30080 		.section	.text.evt2_execute,"ax",%progbits
 196      AFF30080 
 197              		.align	2
 198              		.p2align 4,,15
 199              		.thumb
 200              		.thumb_func
 201              		.type	evt2_execute, %function
 202              	evt2_execute:
 203              	.LFB15:
 204              		.loc 1 149 0
 205              		.cfi_startproc
 206              		@ args = 0, pretend = 0, frame = 32
 207              		@ frame_needed = 0, uses_anonymous_args = 0
 208 0000 2DE9F047 		push	{r4, r5, r6, r7, r8, r9, sl, lr}
 209              	.LCFI1:
 210              		.cfi_def_cfa_offset 32
 211              		.loc 1 157 0
 212 0004 0520     		movs	r0, #5
 213              		.loc 1 149 0
 214 0006 8AB0     		sub	sp, sp, #40
 215              	.LCFI2:
 216              		.cfi_def_cfa_offset 72
 217              		.loc 1 157 0
 218              		.cfi_offset 14, -4
 219              		.cfi_offset 10, -8
 220              		.cfi_offset 9, -12
ARM GAS  C:\DOCUME~1\z_80\LOCALS~1\Temp\ccGlv3zb.s 			page 5


 221              		.cfi_offset 8, -16
 222              		.cfi_offset 7, -20
 223              		.cfi_offset 6, -24
 224              		.cfi_offset 5, -28
 225              		.cfi_offset 4, -32
 226 0008 FFF7FEFF 		bl	chEvtAddEvents
 227              		.loc 1 158 0
 228 000c 4FF0FF30 		mov	r0, #-1
 229 0010 FFF7FEFF 		bl	chEvtWaitOne
 230              	.LVL12:
 231              		.loc 1 159 0
 232 0014 A0F10100 		sub	r0, r0, #1
 233              	.LVL13:
 234 0018 4142     		rsbs	r1, r0, #0
 235 001a 41EB0001 		adc	r1, r1, r0
 236 001e 0120     		movs	r0, #1
 237              	.LVL14:
 238 0020 FFF7FEFF 		bl	_test_assert
 239 0024 10B1     		cbz	r0, .L10
 240              	.L8:
 241              		.loc 1 222 0
 242 0026 0AB0     		add	sp, sp, #40
 243 0028 BDE8F087 		pop	{r4, r5, r6, r7, r8, r9, sl, pc}
 244              	.L10:
 245              		.loc 1 160 0
 246 002c 4FF0FF30 		mov	r0, #-1
 247 0030 FFF7FEFF 		bl	chEvtWaitOne
 248              	.LVL15:
 249              		.loc 1 161 0
 250 0034 A0F10402 		sub	r2, r0, #4
 251 0038 5342     		rsbs	r3, r2, #0
 252 003a 43EB0201 		adc	r1, r3, r2
 253 003e 0220     		movs	r0, #2
 254              	.LVL16:
 255 0040 FFF7FEFF 		bl	_test_assert
 256              	.LVL17:
 257 0044 0028     		cmp	r0, #0
 258 0046 EED1     		bne	.L8
 259              		.loc 1 162 0
 260 0048 4FF0FF30 		mov	r0, #-1
 261 004c FFF7FEFF 		bl	chEvtGetAndClearEvents
 262              	.LVL18:
 263              		.loc 1 163 0
 264 0050 D0F10101 		rsbs	r1, r0, #1
 265 0054 38BF     		it	cc
 266 0056 0021     		movcc	r1, #0
 267 0058 0320     		movs	r0, #3
 268              	.LVL19:
 269 005a FFF7FEFF 		bl	_test_assert
 270 005e 0028     		cmp	r0, #0
 271 0060 E1D1     		bne	.L8
 272              		.loc 1 170 0
 273 0062 794F     		ldr	r7, .L11
 274              		.loc 1 168 0
 275 0064 FFF7FEFF 		bl	test_wait_tick
 276              		.loc 1 170 0
 277 0068 784E     		ldr	r6, .L11+4
ARM GAS  C:\DOCUME~1\z_80\LOCALS~1\Temp\ccGlv3zb.s 			page 6


 278 006a BD69     		ldr	r5, [r7, #24]
 279 006c D6F80080 		ldr	r8, [r6, #0]
 280 0070 AC68     		ldr	r4, [r5, #8]
 281              		.loc 1 169 0
 282 0072 774E     		ldr	r6, .L11+8
 283              		.loc 1 170 0
 284 0074 621E     		subs	r2, r4, #1
 285 0076 4FF49871 		mov	r1, #304
 286 007a 764B     		ldr	r3, .L11+12
 287 007c 4046     		mov	r0, r8
 288              		.loc 1 169 0
 289 007e F468     		ldr	r4, [r6, #12]
 290              		.loc 1 170 0
 291 0080 0095     		str	r5, [sp, #0]
 292 0082 FFF7FEFF 		bl	chThdCreateStatic
 293 0086 744D     		ldr	r5, .L11+16
 294              		.loc 1 169 0
 295 0088 04F1320A 		add	sl, r4, #50
 296              	.LVL20:
 297              		.loc 1 170 0
 298 008c 2860     		str	r0, [r5, #0]
 299              		.loc 1 172 0
 300 008e 4FF0FF30 		mov	r0, #-1
 301 0092 FFF7FEFF 		bl	chEvtWaitOne
 302              		.loc 1 173 0
 303 0096 5146     		mov	r1, sl
 304              		.loc 1 172 0
 305 0098 8146     		mov	r9, r0
 306              	.LVL21:
 307              		.loc 1 173 0
 308 009a 04F13702 		add	r2, r4, #55
 309 009e 0420     		movs	r0, #4
 310              	.LVL22:
 311 00a0 FFF7FEFF 		bl	_test_assert_time_window
 312 00a4 0028     		cmp	r0, #0
 313 00a6 BED1     		bne	.L8
 314              		.loc 1 174 0
 315 00a8 A9F1010E 		sub	lr, r9, #1
 316 00ac 0520     		movs	r0, #5
 317 00ae DEF1000C 		rsbs	ip, lr, #0
 318 00b2 4CEB0E01 		adc	r1, ip, lr
 319 00b6 FFF7FEFF 		bl	_test_assert
 320 00ba 0028     		cmp	r0, #0
 321 00bc B3D1     		bne	.L8
 322              		.loc 1 175 0
 323 00be 4FF0FF30 		mov	r0, #-1
 324 00c2 FFF7FEFF 		bl	chEvtGetAndClearEvents
 325              	.LVL23:
 326              		.loc 1 176 0
 327 00c6 D0F10101 		rsbs	r1, r0, #1
 328 00ca 38BF     		it	cc
 329 00cc 0021     		movcc	r1, #0
 330 00ce 0620     		movs	r0, #6
 331              	.LVL24:
 332 00d0 FFF7FEFF 		bl	_test_assert
 333 00d4 0028     		cmp	r0, #0
 334 00d6 A6D1     		bne	.L8
ARM GAS  C:\DOCUME~1\z_80\LOCALS~1\Temp\ccGlv3zb.s 			page 7


 335              		.loc 1 177 0
 336 00d8 FFF7FEFF 		bl	test_wait_threads
 337              		.loc 1 182 0
 338 00dc 0520     		movs	r0, #5
 339 00de FFF7FEFF 		bl	chEvtAddEvents
 340              		.loc 1 183 0
 341 00e2 4FF0FF30 		mov	r0, #-1
 342 00e6 FFF7FEFF 		bl	chEvtWaitAny
 343              	.LVL25:
 344              		.loc 1 184 0
 345 00ea A0F10500 		sub	r0, r0, #5
 346              	.LVL26:
 347 00ee 4142     		rsbs	r1, r0, #0
 348 00f0 41EB0001 		adc	r1, r1, r0
 349 00f4 0720     		movs	r0, #7
 350              	.LVL27:
 351 00f6 FFF7FEFF 		bl	_test_assert
 352 00fa 0028     		cmp	r0, #0
 353 00fc 93D1     		bne	.L8
 354              		.loc 1 185 0
 355 00fe 4FF0FF30 		mov	r0, #-1
 356 0102 FFF7FEFF 		bl	chEvtGetAndClearEvents
 357              	.LVL28:
 358              		.loc 1 186 0
 359 0106 D0F10101 		rsbs	r1, r0, #1
 360 010a 38BF     		it	cc
 361 010c 0021     		movcc	r1, #0
 362 010e 0820     		movs	r0, #8
 363              	.LVL29:
 364 0110 FFF7FEFF 		bl	_test_assert
 365 0114 0028     		cmp	r0, #0
 366 0116 86D1     		bne	.L8
 367              		.loc 1 191 0
 368 0118 FFF7FEFF 		bl	test_wait_tick
 369              		.loc 1 193 0
 370 011c D7F81890 		ldr	r9, [r7, #24]
 371 0120 4FF49871 		mov	r1, #304
 372 0124 D9F80820 		ldr	r2, [r9, #8]
 373 0128 4A4B     		ldr	r3, .L11+12
 374 012a 013A     		subs	r2, r2, #1
 375 012c 4046     		mov	r0, r8
 376              		.loc 1 192 0
 377 012e F468     		ldr	r4, [r6, #12]
 378              		.loc 1 193 0
 379 0130 CDF80090 		str	r9, [sp, #0]
 380 0134 FFF7FEFF 		bl	chThdCreateStatic
 381 0138 2860     		str	r0, [r5, #0]
 382              		.loc 1 195 0
 383 013a 4FF0FF30 		mov	r0, #-1
 384 013e FFF7FEFF 		bl	chEvtWaitAny
 385              		.loc 1 192 0
 386 0142 04F1320A 		add	sl, r4, #50
 387              	.LVL30:
 388              		.loc 1 195 0
 389 0146 8146     		mov	r9, r0
 390              	.LVL31:
 391              		.loc 1 196 0
ARM GAS  C:\DOCUME~1\z_80\LOCALS~1\Temp\ccGlv3zb.s 			page 8


 392 0148 5146     		mov	r1, sl
 393 014a 0920     		movs	r0, #9
 394              	.LVL32:
 395 014c 04F13702 		add	r2, r4, #55
 396 0150 FFF7FEFF 		bl	_test_assert_time_window
 397 0154 0028     		cmp	r0, #0
 398 0156 7FF466AF 		bne	.L8
 399              		.loc 1 197 0
 400 015a A9F1010C 		sub	ip, r9, #1
 401 015e 0A30     		adds	r0, r0, #10
 402 0160 DCF10003 		rsbs	r3, ip, #0
 403 0164 43EB0C01 		adc	r1, r3, ip
 404 0168 FFF7FEFF 		bl	_test_assert
 405 016c 0028     		cmp	r0, #0
 406 016e 7FF45AAF 		bne	.L8
 407              		.loc 1 198 0
 408 0172 0138     		subs	r0, r0, #1
 409 0174 FFF7FEFF 		bl	chEvtGetAndClearEvents
 410              	.LVL33:
 411              		.loc 1 199 0
 412 0178 D0F10101 		rsbs	r1, r0, #1
 413 017c 38BF     		it	cc
 414 017e 0021     		movcc	r1, #0
 415 0180 0B20     		movs	r0, #11
 416              	.LVL34:
 417 0182 FFF7FEFF 		bl	_test_assert
 418 0186 0028     		cmp	r0, #0
 419 0188 7FF44DAF 		bne	.L8
 420              		.loc 1 205 0
 421 018c 334C     		ldr	r4, .L11+20
 422              		.loc 1 206 0
 423 018e DFF8D890 		ldr	r9, .L11+32
 424              		.loc 1 200 0
 425 0192 FFF7FEFF 		bl	test_wait_threads
 426              		.loc 1 207 0
 427 0196 2046     		mov	r0, r4
 428 0198 06A9     		add	r1, sp, #24
 429 019a 0122     		movs	r2, #1
 430              		.loc 1 205 0
 431 019c 2460     		str	r4, [r4, #0]
 432              		.loc 1 206 0
 433 019e C9F80090 		str	r9, [r9, #0]
 434              		.loc 1 207 0
 435 01a2 FFF7FEFF 		bl	chEvtRegisterMask
 436              		.loc 1 208 0
 437 01a6 02A9     		add	r1, sp, #8
 438 01a8 0422     		movs	r2, #4
 439 01aa 4846     		mov	r0, r9
 440 01ac FFF7FEFF 		bl	chEvtRegisterMask
 441              		.loc 1 209 0
 442 01b0 FFF7FEFF 		bl	test_wait_tick
 443              		.loc 1 211 0
 444 01b4 B969     		ldr	r1, [r7, #24]
 445 01b6 2A4F     		ldr	r7, .L11+24
 446 01b8 8868     		ldr	r0, [r1, #8]
 447 01ba 2A4B     		ldr	r3, .L11+28
 448 01bc 421E     		subs	r2, r0, #1
ARM GAS  C:\DOCUME~1\z_80\LOCALS~1\Temp\ccGlv3zb.s 			page 9


 449 01be 4FF49871 		mov	r1, #304
 450 01c2 4046     		mov	r0, r8
 451              		.loc 1 210 0
 452 01c4 F668     		ldr	r6, [r6, #12]
 453              		.loc 1 211 0
 454 01c6 0097     		str	r7, [sp, #0]
 455 01c8 FFF7FEFF 		bl	chThdCreateStatic
 456              		.loc 1 210 0
 457 01cc 06F13207 		add	r7, r6, #50
 458              	.LVL35:
 459              		.loc 1 211 0
 460 01d0 2860     		str	r0, [r5, #0]
 461              		.loc 1 213 0
 462 01d2 0520     		movs	r0, #5
 463 01d4 FFF7FEFF 		bl	chEvtWaitAll
 464              		.loc 1 214 0
 465 01d8 0C20     		movs	r0, #12
 466 01da 3946     		mov	r1, r7
 467 01dc 06F13702 		add	r2, r6, #55
 468 01e0 FFF7FEFF 		bl	_test_assert_time_window
 469 01e4 0028     		cmp	r0, #0
 470 01e6 7FF41EAF 		bne	.L8
 471              		.loc 1 215 0
 472 01ea 0138     		subs	r0, r0, #1
 473 01ec FFF7FEFF 		bl	chEvtGetAndClearEvents
 474              	.LVL36:
 475              		.loc 1 216 0
 476 01f0 D0F10101 		rsbs	r1, r0, #1
 477 01f4 38BF     		it	cc
 478 01f6 0021     		movcc	r1, #0
 479 01f8 0D20     		movs	r0, #13
 480              	.LVL37:
 481 01fa FFF7FEFF 		bl	_test_assert
 482 01fe 0028     		cmp	r0, #0
 483 0200 7FF411AF 		bne	.L8
 484              		.loc 1 217 0
 485 0204 FFF7FEFF 		bl	test_wait_threads
 486              		.loc 1 218 0
 487 0208 2046     		mov	r0, r4
 488 020a 06A9     		add	r1, sp, #24
 489 020c FFF7FEFF 		bl	chEvtUnregister
 490              		.loc 1 219 0
 491 0210 4846     		mov	r0, r9
 492 0212 02A9     		add	r1, sp, #8
 493 0214 FFF7FEFF 		bl	chEvtUnregister
 494              		.loc 1 220 0
 495 0218 2168     		ldr	r1, [r4, #0]
 496 021a 0E20     		movs	r0, #14
 497 021c 0A1B     		subs	r2, r1, r4
 498 021e 5342     		rsbs	r3, r2, #0
 499 0220 43EB0201 		adc	r1, r3, r2
 500 0224 FFF7FEFF 		bl	_test_assert
 501 0228 0028     		cmp	r0, #0
 502 022a 7FF4FCAE 		bne	.L8
 503              		.loc 1 221 0
 504 022e D9F80030 		ldr	r3, [r9, #0]
 505 0232 0F30     		adds	r0, r0, #15
ARM GAS  C:\DOCUME~1\z_80\LOCALS~1\Temp\ccGlv3zb.s 			page 10


 506 0234 C9EB030C 		rsb	ip, r9, r3
 507 0238 DCF1000E 		rsbs	lr, ip, #0
 508 023c 4EEB0C01 		adc	r1, lr, ip
 509 0240 FFF7FEFF 		bl	_test_assert
 510 0244 EFE6     		b	.L8
 511              	.L12:
 512 0246 00BF     		.align	2
 513              	.L11:
 514 0248 00000000 		.word	rlist
 515 024c 00000000 		.word	wa
 516 0250 00000000 		.word	vtlist
 517 0254 00000000 		.word	thread1
 518 0258 00000000 		.word	threads
 519 025c 00000000 		.word	.LANCHOR0
 520 0260 00000000 		.word	.LC0
 521 0264 00000000 		.word	thread2
 522 0268 00000000 		.word	.LANCHOR1
 523              		.cfi_endproc
 524              	.LFE15:
 525              		.size	evt2_execute, .-evt2_execute
 526 026c AFF30080 		.section	.text.thread2,"ax",%progbits
 527              		.align	2
 528              		.p2align 4,,15
 529              		.thumb
 530              		.thumb_func
 531              		.type	thread2, %function
 532              	thread2:
 533              	.LFB14:
 534              		.loc 1 140 0
 535              		.cfi_startproc
 536              		@ args = 0, pretend = 0, frame = 0
 537              		@ frame_needed = 0, uses_anonymous_args = 0
 538              	.LVL38:
 539 0000 08B5     		push	{r3, lr}
 540              	.LCFI3:
 541              		.cfi_def_cfa_offset 8
 542              		.loc 1 143 0
 543 0002 0021     		movs	r1, #0
 544 0004 0548     		ldr	r0, .L14
 545              	.LVL39:
 546              		.cfi_offset 14, -4
 547              		.cfi_offset 3, -8
 548 0006 FFF7FEFF 		bl	chEvtBroadcastFlags
 549              		.loc 1 144 0
 550 000a 3220     		movs	r0, #50
 551 000c FFF7FEFF 		bl	chThdSleep
 552              		.loc 1 145 0
 553 0010 0348     		ldr	r0, .L14+4
 554 0012 0021     		movs	r1, #0
 555 0014 FFF7FEFF 		bl	chEvtBroadcastFlags
 556              		.loc 1 147 0
 557 0018 0020     		movs	r0, #0
 558 001a 08BD     		pop	{r3, pc}
 559              	.L15:
 560              		.align	2
 561              	.L14:
 562 001c 00000000 		.word	.LANCHOR0
ARM GAS  C:\DOCUME~1\z_80\LOCALS~1\Temp\ccGlv3zb.s 			page 11


 563 0020 00000000 		.word	.LANCHOR1
 564              		.cfi_endproc
 565              	.LFE14:
 566              		.size	thread2, .-thread2
 567 0024 AFF30080 		.section	.text.thread1,"ax",%progbits
 567      AFF30080 
 567      AFF30080 
 568              		.align	2
 569              		.p2align 4,,15
 570              		.thumb
 571              		.thumb_func
 572              		.type	thread1, %function
 573              	thread1:
 574              	.LFB13:
 575              		.loc 1 133 0
 576              		.cfi_startproc
 577              		@ args = 0, pretend = 0, frame = 0
 578              		@ frame_needed = 0, uses_anonymous_args = 0
 579              	.LVL40:
 580 0000 10B5     		push	{r4, lr}
 581              	.LCFI4:
 582              		.cfi_def_cfa_offset 8
 583              		.loc 1 133 0
 584 0002 0446     		mov	r4, r0
 585              		.cfi_offset 14, -4
 586              		.cfi_offset 4, -8
 587              		.loc 1 135 0
 588 0004 3220     		movs	r0, #50
 589              	.LVL41:
 590 0006 FFF7FEFF 		bl	chThdSleep
 591              		.loc 1 136 0
 592 000a 2046     		mov	r0, r4
 593 000c 0121     		movs	r1, #1
 594 000e FFF7FEFF 		bl	chEvtSignal
 595              		.loc 1 138 0
 596 0012 0020     		movs	r0, #0
 597 0014 10BD     		pop	{r4, pc}
 598              		.cfi_endproc
 599              	.LFE13:
 600              		.size	thread1, .-thread1
 601 0016 00BFAFF3 		.section	.text.evt1_execute,"ax",%progbits
 601      0080AFF3 
 601      0080
 602              		.align	2
 603              		.p2align 4,,15
 604              		.thumb
 605              		.thumb_func
 606              		.type	evt1_execute, %function
 607              	evt1_execute:
 608              	.LFB11:
 609              		.loc 1 85 0
 610              		.cfi_startproc
 611              		@ args = 0, pretend = 0, frame = 32
 612              		@ frame_needed = 0, uses_anonymous_args = 0
 613 0000 10B5     		push	{r4, lr}
 614              	.LCFI5:
 615              		.cfi_def_cfa_offset 8
ARM GAS  C:\DOCUME~1\z_80\LOCALS~1\Temp\ccGlv3zb.s 			page 12


 616              		.loc 1 91 0
 617 0002 1E4C     		ldr	r4, .L20
 618              		.cfi_offset 14, -4
 619              		.cfi_offset 4, -8
 620              		.loc 1 85 0
 621 0004 88B0     		sub	sp, sp, #32
 622              	.LCFI6:
 623              		.cfi_def_cfa_offset 40
 624              		.loc 1 92 0
 625 0006 0122     		movs	r2, #1
 626 0008 2046     		mov	r0, r4
 627 000a 04A9     		add	r1, sp, #16
 628              		.loc 1 91 0
 629 000c 2460     		str	r4, [r4, #0]
 630              		.loc 1 92 0
 631 000e FFF7FEFF 		bl	chEvtRegisterMask
 632              		.loc 1 93 0
 633 0012 2046     		mov	r0, r4
 634 0014 6946     		mov	r1, sp
 635 0016 0222     		movs	r2, #2
 636 0018 FFF7FEFF 		bl	chEvtRegisterMask
 637              		.loc 1 94 0
 638 001c 2168     		ldr	r1, [r4, #0]
 639 001e 0120     		movs	r0, #1
 640 0020 091B     		subs	r1, r1, r4
 641 0022 18BF     		it	ne
 642 0024 0121     		movne	r1, #1
 643 0026 FFF7FEFF 		bl	_test_assert
 644 002a 08B1     		cbz	r0, .L19
 645              	.L17:
 646              		.loc 1 105 0
 647 002c 08B0     		add	sp, sp, #32
 648 002e 10BD     		pop	{r4, pc}
 649              	.L19:
 650              		.loc 1 95 0
 651 0030 2046     		mov	r0, r4
 652 0032 04A9     		add	r1, sp, #16
 653 0034 FFF7FEFF 		bl	chEvtUnregister
 654              		.loc 1 96 0
 655 0038 2268     		ldr	r2, [r4, #0]
 656 003a 0220     		movs	r0, #2
 657 003c 111B     		subs	r1, r2, r4
 658 003e 18BF     		it	ne
 659 0040 0121     		movne	r1, #1
 660 0042 FFF7FEFF 		bl	_test_assert
 661 0046 0028     		cmp	r0, #0
 662 0048 F0D1     		bne	.L17
 663              		.loc 1 97 0
 664 004a 2046     		mov	r0, r4
 665 004c 6946     		mov	r1, sp
 666 004e FFF7FEFF 		bl	chEvtUnregister
 667              		.loc 1 98 0
 668 0052 2168     		ldr	r1, [r4, #0]
 669 0054 0320     		movs	r0, #3
 670 0056 C4EB010E 		rsb	lr, r4, r1
 671 005a DEF10003 		rsbs	r3, lr, #0
 672 005e 43EB0E01 		adc	r1, r3, lr
ARM GAS  C:\DOCUME~1\z_80\LOCALS~1\Temp\ccGlv3zb.s 			page 13


 673 0062 FFF7FEFF 		bl	_test_assert
 674 0066 0028     		cmp	r0, #0
 675 0068 E0D1     		bne	.L17
 676              		.loc 1 103 0
 677 006a 0721     		movs	r1, #7
 678 006c 0448     		ldr	r0, .L20+4
 679 006e FFF7FEFF 		bl	chEvtDispatch
 680              		.loc 1 104 0
 681 0072 0420     		movs	r0, #4
 682 0074 0349     		ldr	r1, .L20+8
 683 0076 FFF7FEFF 		bl	_test_assert_sequence
 684 007a D7E7     		b	.L17
 685              	.L21:
 686              		.align	2
 687              	.L20:
 688 007c 00000000 		.word	.LANCHOR0
 689 0080 00000000 		.word	.LANCHOR2
 690 0084 04000000 		.word	.LC1
 691              		.cfi_endproc
 692              	.LFE11:
 693              		.size	evt1_execute, .-evt1_execute
 694 0088 AFF30080 		.section	.text.h3,"ax",%progbits
 694      AFF30080 
 695              		.align	2
 696              		.p2align 4,,15
 697              		.thumb
 698              		.thumb_func
 699              		.type	h3, %function
 700              	h3:
 701              	.LFB10:
 702              		.loc 1 82 0
 703              		.cfi_startproc
 704              		@ args = 0, pretend = 0, frame = 0
 705              		@ frame_needed = 0, uses_anonymous_args = 0
 706              		@ link register save eliminated.
 707              	.LVL42:
 708              		.loc 1 82 0
 709 0000 4320     		movs	r0, #67
 710              	.LVL43:
 711 0002 FFF7FEBF 		b	test_emit_token
 712              		.cfi_endproc
 713              	.LFE10:
 714              		.size	h3, .-h3
 715 0006 00BFAFF3 		.section	.text.h2,"ax",%progbits
 715      0080AFF3 
 715      0080
 716              		.align	2
 717              		.p2align 4,,15
 718              		.thumb
 719              		.thumb_func
 720              		.type	h2, %function
 721              	h2:
 722              	.LFB9:
 723              		.loc 1 81 0
 724              		.cfi_startproc
 725              		@ args = 0, pretend = 0, frame = 0
 726              		@ frame_needed = 0, uses_anonymous_args = 0
ARM GAS  C:\DOCUME~1\z_80\LOCALS~1\Temp\ccGlv3zb.s 			page 14


 727              		@ link register save eliminated.
 728              	.LVL44:
 729              		.loc 1 81 0
 730 0000 4220     		movs	r0, #66
 731              	.LVL45:
 732 0002 FFF7FEBF 		b	test_emit_token
 733              		.cfi_endproc
 734              	.LFE9:
 735              		.size	h2, .-h2
 736 0006 00BFAFF3 		.section	.text.h1,"ax",%progbits
 736      0080AFF3 
 736      0080
 737              		.align	2
 738              		.p2align 4,,15
 739              		.thumb
 740              		.thumb_func
 741              		.type	h1, %function
 742              	h1:
 743              	.LFB8:
 744              		.loc 1 80 0
 745              		.cfi_startproc
 746              		@ args = 0, pretend = 0, frame = 0
 747              		@ frame_needed = 0, uses_anonymous_args = 0
 748              		@ link register save eliminated.
 749              	.LVL46:
 750              		.loc 1 80 0
 751 0000 4120     		movs	r0, #65
 752              	.LVL47:
 753 0002 FFF7FEBF 		b	test_emit_token
 754              		.cfi_endproc
 755              	.LFE8:
 756              		.size	h1, .-h1
 757              		.global	testevt1
 758              		.global	testevt2
 759              		.global	testevt3
 760              		.global	patternevt
 761 0006 00BFAFF3 		.section	.rodata.patternevt,"a",%progbits
 761      0080AFF3 
 761      0080
 762              		.align	2
 763              		.type	patternevt, %object
 764              		.size	patternevt, 16
 765              	patternevt:
 766 0000 00000000 		.word	testevt1
 767 0004 00000000 		.word	testevt2
 768 0008 00000000 		.word	testevt3
 769 000c 00000000 		.word	0
 770              		.section	.rodata.testevt2,"a",%progbits
 771              		.align	2
 772              		.type	testevt2, %object
 773              		.size	testevt2, 16
 774              	testevt2:
 775 0000 2C000000 		.word	.LC3
 776 0004 00000000 		.word	evt2_setup
 777 0008 00000000 		.word	0
 778 000c 00000000 		.word	evt2_execute
 779              		.section	.rodata.str1.4,"aMS",%progbits,1
ARM GAS  C:\DOCUME~1\z_80\LOCALS~1\Temp\ccGlv3zb.s 			page 15


 780              		.align	2
 781              	.LC0:
 782 0000 4100     		.ascii	"A\000"
 783 0002 0000     		.space	2
 784              	.LC1:
 785 0004 41424300 		.ascii	"ABC\000"
 786              	.LC2:
 787 0008 4576656E 		.ascii	"Events, registration and dispatch\000"
 787      74732C20 
 787      72656769 
 787      73747261 
 787      74696F6E 
 788 002a 0000     		.space	2
 789              	.LC3:
 790 002c 4576656E 		.ascii	"Events, wait and broadcast\000"
 790      74732C20 
 790      77616974 
 790      20616E64 
 790      2062726F 
 791 0047 00       		.space	1
 792              	.LC4:
 793 0048 4576656E 		.ascii	"Events, timeouts\000"
 793      74732C20 
 793      74696D65 
 793      6F757473 
 793      00
 794 0059 000000   		.section	.rodata.testevt1,"a",%progbits
 795              		.align	2
 796              		.type	testevt1, %object
 797              		.size	testevt1, 16
 798              	testevt1:
 799 0000 08000000 		.word	.LC2
 800 0004 00000000 		.word	evt1_setup
 801 0008 00000000 		.word	0
 802 000c 00000000 		.word	evt1_execute
 803              		.section	.rodata.evhndl,"a",%progbits
 804              		.align	2
 805              		.set	.LANCHOR2,. + 0
 806              		.type	evhndl, %object
 807              		.size	evhndl, 12
 808              	evhndl:
 809 0000 00000000 		.word	h1
 810 0004 00000000 		.word	h2
 811 0008 00000000 		.word	h3
 812              		.section	.rodata.testevt3,"a",%progbits
 813              		.align	2
 814              		.type	testevt3, %object
 815              		.size	testevt3, 16
 816              	testevt3:
 817 0000 48000000 		.word	.LC4
 818 0004 00000000 		.word	evt3_setup
 819 0008 00000000 		.word	0
 820 000c 00000000 		.word	evt3_execute
 821              		.section	.data.es1,"aw",%progbits
 822              		.align	2
 823              		.set	.LANCHOR0,. + 0
 824              		.type	es1, %object
ARM GAS  C:\DOCUME~1\z_80\LOCALS~1\Temp\ccGlv3zb.s 			page 16


 825              		.size	es1, 4
 826              	es1:
 827 0000 00000000 		.word	es1
 828              		.section	.data.es2,"aw",%progbits
 829              		.align	2
 830              		.set	.LANCHOR1,. + 0
 831              		.type	es2, %object
 832              		.size	es2, 4
 833              	es2:
 834 0000 00000000 		.word	es2
 835              		.text
 836              	.Letext0: