ARM GAS  C:\DOCUME~1\z_80\LOCALS~1\Temp\ccdt2OMh.s 			page 1


   1              		.syntax unified
   2              		.cpu cortex-m3
   3              		.fpu softvfp
   4              		.eabi_attribute 20, 1
   5              		.eabi_attribute 21, 1
   6              		.eabi_attribute 23, 3
   7              		.eabi_attribute 24, 1
   8              		.eabi_attribute 25, 1
   9              		.eabi_attribute 26, 1
  10              		.eabi_attribute 30, 2
  11              		.eabi_attribute 18, 4
  12              		.thumb
  13              		.file	"tm.c"
  20 0000 05020000 		.text
  20      02008701 
  20      00000201 
  20      FB0E0D00 
  20      01010101 
  21              	.Ltext0:
  22              		.cfi_sections	.debug_frame
  23              		.section	.text.tm_start,"ax",%progbits
  24              		.align	2
  25              		.p2align 4,,15
  26              		.thumb
  27              		.thumb_func
  28              		.type	tm_start, %function
  29              	tm_start:
  30              	.LFB63:
  31              		.file 1 "../chibios_2.6.3/os/hal/src/tm.c"
  32              		.loc 1 69 0
  33              		.cfi_startproc
  34              		@ args = 0, pretend = 0, frame = 0
  35              		@ frame_needed = 0, uses_anonymous_args = 0
  36              		@ link register save eliminated.
  37              	.LVL0:
  38              		.loc 1 71 0
  39 0000 0149     		ldr	r1, .L2
  40 0002 4B68     		ldr	r3, [r1, #4]
  41 0004 8360     		str	r3, [r0, #8]
  42              		.loc 1 72 0
  43 0006 7047     		bx	lr
  44              	.L3:
  45              		.align	2
  46              	.L2:
  47 0008 001000E0 		.word	-536866816
  48              		.cfi_endproc
  49              	.LFE63:
  50              		.size	tm_start, .-tm_start
  51 000c AFF30080 		.section	.text.tm_stop,"ax",%progbits
  52              		.align	2
  53              		.p2align 4,,15
ARM GAS  C:\DOCUME~1\z_80\LOCALS~1\Temp\ccdt2OMh.s 			page 2


  54              		.thumb
  55              		.thumb_func
  56              		.type	tm_stop, %function
  57              	tm_stop:
  58              	.LFB64:
  59              		.loc 1 81 0
  60              		.cfi_startproc
  61              		@ args = 0, pretend = 0, frame = 0
  62              		@ frame_needed = 0, uses_anonymous_args = 0
  63              		@ link register save eliminated.
  64              	.LVL1:
  65              		.loc 1 83 0
  66 0000 084B     		ldr	r3, .L9
  67              		.loc 1 84 0
  68 0002 0949     		ldr	r1, .L9+4
  69              		.loc 1 83 0
  70 0004 5A68     		ldr	r2, [r3, #4]
  71              	.LVL2:
  72              		.loc 1 84 0
  73 0006 8368     		ldr	r3, [r0, #8]
  74 0008 0968     		ldr	r1, [r1, #0]
  75 000a D31A     		subs	r3, r2, r3
  76              		.loc 1 85 0
  77 000c C268     		ldr	r2, [r0, #12]
  78              	.LVL3:
  79              		.loc 1 84 0
  80 000e 5B1A     		subs	r3, r3, r1
  81              		.loc 1 85 0
  82 0010 9342     		cmp	r3, r2
  83              		.loc 1 84 0
  84 0012 8360     		str	r3, [r0, #8]
  85              		.loc 1 85 0
  86 0014 04D8     		bhi	.L8
  87              		.loc 1 87 0
  88 0016 0269     		ldr	r2, [r0, #16]
  89 0018 9342     		cmp	r3, r2
  90              		.loc 1 88 0
  91 001a 38BF     		it	cc
  92 001c 0361     		strcc	r3, [r0, #16]
  93 001e 7047     		bx	lr
  94              	.L8:
  95              		.loc 1 86 0
  96 0020 C360     		str	r3, [r0, #12]
  97 0022 7047     		bx	lr
  98              	.L10:
  99              		.align	2
 100              	.L9:
 101 0024 001000E0 		.word	-536866816
 102 0028 00000000 		.word	.LANCHOR0
 103              		.cfi_endproc
 104              	.LFE64:
 105              		.size	tm_stop, .-tm_stop
 106 002c AFF30080 		.section	.text.tmInit,"ax",%progbits
 107              		.align	2
 108              		.p2align 4,,15
 109              		.global	tmInit
 110              		.thumb
ARM GAS  C:\DOCUME~1\z_80\LOCALS~1\Temp\ccdt2OMh.s 			page 3


 111              		.thumb_func
 112              		.type	tmInit, %function
 113              	tmInit:
 114              	.LFB65:
 115              		.loc 1 104 0
 116              		.cfi_startproc
 117              		@ args = 0, pretend = 0, frame = 24
 118              		@ frame_needed = 0, uses_anonymous_args = 0
 119 0000 10B5     		push	{r4, lr}
 120              	.LCFI0:
 121              		.cfi_def_cfa_offset 8
 122              	.LBB4:
 123              	.LBB6:
 124              		.loc 1 126 0
 125 0002 0B4A     		ldr	r2, .L12
 126              	.LBE6:
 127              	.LBE4:
 128              		.loc 1 104 0
 129 0004 86B0     		sub	sp, sp, #24
 130              	.LCFI1:
 131              		.cfi_def_cfa_offset 32
 132              	.LBB9:
 133              	.LBB7:
 134              		.loc 1 127 0
 135 0006 0B49     		ldr	r1, .L12+4
 136              	.LBE7:
 137              	.LBE9:
 138              		.loc 1 110 0
 139 0008 0B4C     		ldr	r4, .L12+8
 140              		.cfi_offset 14, -4
 141              		.cfi_offset 4, -8
 142 000a 0023     		movs	r3, #0
 143              		.loc 1 112 0
 144 000c 01A8     		add	r0, sp, #4
 145              	.LBB10:
 146              	.LBB5:
 147              		.loc 1 126 0
 148 000e 0192     		str	r2, [sp, #4]
 149              		.loc 1 130 0
 150 0010 4FF0FF32 		mov	r2, #-1
 151              	.LBE5:
 152              	.LBE10:
 153              		.loc 1 110 0
 154 0014 2360     		str	r3, [r4, #0]
 155              	.LVL4:
 156              	.LBB11:
 157              	.LBB8:
 158              		.loc 1 128 0
 159 0016 0393     		str	r3, [sp, #12]
 160              		.loc 1 129 0
 161 0018 0493     		str	r3, [sp, #16]
 162              		.loc 1 127 0
 163 001a 0291     		str	r1, [sp, #8]
 164              		.loc 1 130 0
 165 001c 0592     		str	r2, [sp, #20]
 166              	.LBE8:
 167              	.LBE11:
ARM GAS  C:\DOCUME~1\z_80\LOCALS~1\Temp\ccdt2OMh.s 			page 4


 168              		.loc 1 112 0
 169 001e FFF7FEFF 		bl	tm_start
 170              	.LVL5:
 171              		.loc 1 113 0
 172 0022 01A8     		add	r0, sp, #4
 173              	.LVL6:
 174 0024 0299     		ldr	r1, [sp, #8]
 175 0026 8847     		blx	r1
 176              	.LVL7:
 177              		.loc 1 114 0
 178 0028 039B     		ldr	r3, [sp, #12]
 179 002a 2360     		str	r3, [r4, #0]
 180              		.loc 1 115 0
 181 002c 06B0     		add	sp, sp, #24
 182 002e 10BD     		pop	{r4, pc}
 183              	.L13:
 184              		.align	2
 185              	.L12:
 186 0030 00000000 		.word	tm_start
 187 0034 00000000 		.word	tm_stop
 188 0038 00000000 		.word	.LANCHOR0
 189              		.cfi_endproc
 190              	.LFE65:
 191              		.size	tmInit, .-tmInit
 192 003c AFF30080 		.section	.text.tmObjectInit,"ax",%progbits
 193              		.align	2
 194              		.p2align 4,,15
 195              		.global	tmObjectInit
 196              		.thumb
 197              		.thumb_func
 198              		.type	tmObjectInit, %function
 199              	tmObjectInit:
 200              	.LFB66:
 201              		.loc 1 124 0
 202              		.cfi_startproc
 203              		@ args = 0, pretend = 0, frame = 0
 204              		@ frame_needed = 0, uses_anonymous_args = 0
 205              		@ link register save eliminated.
 206              	.LVL8:
 207              		.loc 1 126 0
 208 0000 054B     		ldr	r3, .L15
 209              		.loc 1 127 0
 210 0002 064A     		ldr	r2, .L15+4
 211              		.loc 1 128 0
 212 0004 0021     		movs	r1, #0
 213              		.loc 1 126 0
 214 0006 0360     		str	r3, [r0, #0]
 215              		.loc 1 130 0
 216 0008 4FF0FF33 		mov	r3, #-1
 217              		.loc 1 127 0
 218 000c 4260     		str	r2, [r0, #4]
 219              		.loc 1 128 0
 220 000e 8160     		str	r1, [r0, #8]
 221              		.loc 1 129 0
 222 0010 C160     		str	r1, [r0, #12]
 223              		.loc 1 130 0
 224 0012 0361     		str	r3, [r0, #16]
ARM GAS  C:\DOCUME~1\z_80\LOCALS~1\Temp\ccdt2OMh.s 			page 5


 225              		.loc 1 131 0
 226 0014 7047     		bx	lr
 227              	.L16:
 228 0016 00BF     		.align	2
 229              	.L15:
 230 0018 00000000 		.word	tm_start
 231 001c 00000000 		.word	tm_stop
 232              		.cfi_endproc
 233              	.LFE66:
 234              		.size	tmObjectInit, .-tmObjectInit
 235              		.section	.bss.measurement_offset,"aw",%nobits
 236              		.align	2
 237              		.set	.LANCHOR0,. + 0
 238              		.type	measurement_offset, %object
 239              		.size	measurement_offset, 4
 240              	measurement_offset:
 241 0000 00000000 		.space	4
 242              		.text
 243              	.Letext0: